Archive member included to satisfy reference by file (symbol)

c:/nxp/mcuxpressoide_11.6.1_8255/ide/plugins/com.nxp.mcuxpresso.tools.win32_11.6.1.202207200623/tools/bin/../lib/gcc/arm-none-eabi/10.3.1/thumb/v7e-m+dp/hard\libgcc.a(_aeabi_ldivmod.o)
                              ./source/drivers/ocotp/bl_ocotp.o (__aeabi_ldivmod)
c:/nxp/mcuxpressoide_11.6.1_8255/ide/plugins/com.nxp.mcuxpresso.tools.win32_11.6.1.202207200623/tools/bin/../lib/gcc/arm-none-eabi/10.3.1/thumb/v7e-m+dp/hard\libgcc.a(_aeabi_uldivmod.o)
                              ./source/utilities/src/fsl_rtos_abstraction.o (__aeabi_uldivmod)
c:/nxp/mcuxpressoide_11.6.1_8255/ide/plugins/com.nxp.mcuxpresso.tools.win32_11.6.1.202207200623/tools/bin/../lib/gcc/arm-none-eabi/10.3.1/thumb/v7e-m+dp/hard\libgcc.a(_udivmoddi4.o)
                              c:/nxp/mcuxpressoide_11.6.1_8255/ide/plugins/com.nxp.mcuxpresso.tools.win32_11.6.1.202207200623/tools/bin/../lib/gcc/arm-none-eabi/10.3.1/thumb/v7e-m+dp/hard\libgcc.a(_aeabi_ldivmod.o) (__udivmoddi4)
c:/nxp/mcuxpressoide_11.6.1_8255/ide/plugins/com.nxp.mcuxpresso.tools.win32_11.6.1.202207200623/tools/bin/../lib/gcc/arm-none-eabi/10.3.1/thumb/v7e-m+dp/hard\libgcc.a(_dvmd_tls.o)
                              c:/nxp/mcuxpressoide_11.6.1_8255/ide/plugins/com.nxp.mcuxpresso.tools.win32_11.6.1.202207200623/tools/bin/../lib/gcc/arm-none-eabi/10.3.1/thumb/v7e-m+dp/hard\libgcc.a(_aeabi_ldivmod.o) (__aeabi_ldiv0)
c:/nxp/mcuxpressoide_11.6.1_8255/ide/plugins/com.nxp.mcuxpresso.tools.win32_11.6.1.202207200623/tools/bin/../lib/gcc/arm-none-eabi/10.3.1/../../../../arm-none-eabi/lib/thumb/v7e-m+dp/hard\libc_nano.a(lib_a-assert.o)
                              ./source/utilities/src/fsl_rtos_abstraction.o (__assert_func)
c:/nxp/mcuxpressoide_11.6.1_8255/ide/plugins/com.nxp.mcuxpresso.tools.win32_11.6.1.202207200623/tools/bin/../lib/gcc/arm-none-eabi/10.3.1/../../../../arm-none-eabi/lib/thumb/v7e-m+dp/hard\libc_nano.a(lib_a-fprintf.o)
                              c:/nxp/mcuxpressoide_11.6.1_8255/ide/plugins/com.nxp.mcuxpresso.tools.win32_11.6.1.202207200623/tools/bin/../lib/gcc/arm-none-eabi/10.3.1/../../../../arm-none-eabi/lib/thumb/v7e-m+dp/hard\libc_nano.a(lib_a-assert.o) (fiprintf)
c:/nxp/mcuxpressoide_11.6.1_8255/ide/plugins/com.nxp.mcuxpresso.tools.win32_11.6.1.202207200623/tools/bin/../lib/gcc/arm-none-eabi/10.3.1/../../../../arm-none-eabi/lib/thumb/v7e-m+dp/hard\libc_nano.a(lib_a-impure.o)
                              c:/nxp/mcuxpressoide_11.6.1_8255/ide/plugins/com.nxp.mcuxpresso.tools.win32_11.6.1.202207200623/tools/bin/../lib/gcc/arm-none-eabi/10.3.1/../../../../arm-none-eabi/lib/thumb/v7e-m+dp/hard\libc_nano.a(lib_a-assert.o) (_impure_ptr)
c:/nxp/mcuxpressoide_11.6.1_8255/ide/plugins/com.nxp.mcuxpresso.tools.win32_11.6.1.202207200623/tools/bin/../lib/gcc/arm-none-eabi/10.3.1/../../../../arm-none-eabi/lib/thumb/v7e-m+dp/hard\libc_nano.a(lib_a-malloc.o)
                              ./drivers/fsl_common.o (malloc)
c:/nxp/mcuxpressoide_11.6.1_8255/ide/plugins/com.nxp.mcuxpresso.tools.win32_11.6.1.202207200623/tools/bin/../lib/gcc/arm-none-eabi/10.3.1/../../../../arm-none-eabi/lib/thumb/v7e-m+dp/hard\libc_nano.a(lib_a-memcmp.o)
                              ./source/sbloader/src/sbloader.o (memcmp)
c:/nxp/mcuxpressoide_11.6.1_8255/ide/plugins/com.nxp.mcuxpresso.tools.win32_11.6.1.202207200623/tools/bin/../lib/gcc/arm-none-eabi/10.3.1/../../../../arm-none-eabi/lib/thumb/v7e-m+dp/hard\libc_nano.a(lib_a-memcpy-stub.o)
                              ./source/property/src/property_imx.o (memcpy)
c:/nxp/mcuxpressoide_11.6.1_8255/ide/plugins/com.nxp.mcuxpresso.tools.win32_11.6.1.202207200623/tools/bin/../lib/gcc/arm-none-eabi/10.3.1/../../../../arm-none-eabi/lib/thumb/v7e-m+dp/hard\libc_nano.a(lib_a-memset.o)
                              ./source/sbloader/src/sbloader.o (memset)
c:/nxp/mcuxpressoide_11.6.1_8255/ide/plugins/com.nxp.mcuxpresso.tools.win32_11.6.1.202207200623/tools/bin/../lib/gcc/arm-none-eabi/10.3.1/../../../../arm-none-eabi/lib/thumb/v7e-m+dp/hard\libc_nano.a(lib_a-nano-freer.o)
                              c:/nxp/mcuxpressoide_11.6.1_8255/ide/plugins/com.nxp.mcuxpresso.tools.win32_11.6.1.202207200623/tools/bin/../lib/gcc/arm-none-eabi/10.3.1/../../../../arm-none-eabi/lib/thumb/v7e-m+dp/hard\libc_nano.a(lib_a-malloc.o) (_free_r)
c:/nxp/mcuxpressoide_11.6.1_8255/ide/plugins/com.nxp.mcuxpresso.tools.win32_11.6.1.202207200623/tools/bin/../lib/gcc/arm-none-eabi/10.3.1/../../../../arm-none-eabi/lib/thumb/v7e-m+dp/hard\libc_nano.a(lib_a-nano-mallocr.o)
                              c:/nxp/mcuxpressoide_11.6.1_8255/ide/plugins/com.nxp.mcuxpresso.tools.win32_11.6.1.202207200623/tools/bin/../lib/gcc/arm-none-eabi/10.3.1/../../../../arm-none-eabi/lib/thumb/v7e-m+dp/hard\libc_nano.a(lib_a-malloc.o) (_malloc_r)
c:/nxp/mcuxpressoide_11.6.1_8255/ide/plugins/com.nxp.mcuxpresso.tools.win32_11.6.1.202207200623/tools/bin/../lib/gcc/arm-none-eabi/10.3.1/../../../../arm-none-eabi/lib/thumb/v7e-m+dp/hard\libc_nano.a(lib_a-nano-vfprintf.o)
                              c:/nxp/mcuxpressoide_11.6.1_8255/ide/plugins/com.nxp.mcuxpresso.tools.win32_11.6.1.202207200623/tools/bin/../lib/gcc/arm-none-eabi/10.3.1/../../../../arm-none-eabi/lib/thumb/v7e-m+dp/hard\libc_nano.a(lib_a-fprintf.o) (_vfprintf_r)
c:/nxp/mcuxpressoide_11.6.1_8255/ide/plugins/com.nxp.mcuxpresso.tools.win32_11.6.1.202207200623/tools/bin/../lib/gcc/arm-none-eabi/10.3.1/../../../../arm-none-eabi/lib/thumb/v7e-m+dp/hard\libc_nano.a(lib_a-nano-vfprintf_i.o)
                              c:/nxp/mcuxpressoide_11.6.1_8255/ide/plugins/com.nxp.mcuxpresso.tools.win32_11.6.1.202207200623/tools/bin/../lib/gcc/arm-none-eabi/10.3.1/../../../../arm-none-eabi/lib/thumb/v7e-m+dp/hard\libc_nano.a(lib_a-nano-vfprintf.o) (_printf_i)
c:/nxp/mcuxpressoide_11.6.1_8255/ide/plugins/com.nxp.mcuxpresso.tools.win32_11.6.1.202207200623/tools/bin/../lib/gcc/arm-none-eabi/10.3.1/../../../../arm-none-eabi/lib/thumb/v7e-m+dp/hard\libc_nano.a(lib_a-sbrkr.o)
                              c:/nxp/mcuxpressoide_11.6.1_8255/ide/plugins/com.nxp.mcuxpresso.tools.win32_11.6.1.202207200623/tools/bin/../lib/gcc/arm-none-eabi/10.3.1/../../../../arm-none-eabi/lib/thumb/v7e-m+dp/hard\libc_nano.a(lib_a-nano-mallocr.o) (_sbrk_r)
c:/nxp/mcuxpressoide_11.6.1_8255/ide/plugins/com.nxp.mcuxpresso.tools.win32_11.6.1.202207200623/tools/bin/../lib/gcc/arm-none-eabi/10.3.1/../../../../arm-none-eabi/lib/thumb/v7e-m+dp/hard\libc_nano.a(lib_a-wbuf.o)
                              c:/nxp/mcuxpressoide_11.6.1_8255/ide/plugins/com.nxp.mcuxpresso.tools.win32_11.6.1.202207200623/tools/bin/../lib/gcc/arm-none-eabi/10.3.1/../../../../arm-none-eabi/lib/thumb/v7e-m+dp/hard\libc_nano.a(lib_a-nano-vfprintf.o) (__swbuf_r)
c:/nxp/mcuxpressoide_11.6.1_8255/ide/plugins/com.nxp.mcuxpresso.tools.win32_11.6.1.202207200623/tools/bin/../lib/gcc/arm-none-eabi/10.3.1/../../../../arm-none-eabi/lib/thumb/v7e-m+dp/hard\libc_nano.a(lib_a-wsetup.o)
                              c:/nxp/mcuxpressoide_11.6.1_8255/ide/plugins/com.nxp.mcuxpresso.tools.win32_11.6.1.202207200623/tools/bin/../lib/gcc/arm-none-eabi/10.3.1/../../../../arm-none-eabi/lib/thumb/v7e-m+dp/hard\libc_nano.a(lib_a-nano-vfprintf.o) (__swsetup_r)
c:/nxp/mcuxpressoide_11.6.1_8255/ide/plugins/com.nxp.mcuxpresso.tools.win32_11.6.1.202207200623/tools/bin/../lib/gcc/arm-none-eabi/10.3.1/../../../../arm-none-eabi/lib/thumb/v7e-m+dp/hard\libc_nano.a(lib_a-abort.o)
                              c:/nxp/mcuxpressoide_11.6.1_8255/ide/plugins/com.nxp.mcuxpresso.tools.win32_11.6.1.202207200623/tools/bin/../lib/gcc/arm-none-eabi/10.3.1/../../../../arm-none-eabi/lib/thumb/v7e-m+dp/hard\libc_nano.a(lib_a-assert.o) (abort)
c:/nxp/mcuxpressoide_11.6.1_8255/ide/plugins/com.nxp.mcuxpresso.tools.win32_11.6.1.202207200623/tools/bin/../lib/gcc/arm-none-eabi/10.3.1/../../../../arm-none-eabi/lib/thumb/v7e-m+dp/hard\libc_nano.a(lib_a-fflush.o)
                              c:/nxp/mcuxpressoide_11.6.1_8255/ide/plugins/com.nxp.mcuxpresso.tools.win32_11.6.1.202207200623/tools/bin/../lib/gcc/arm-none-eabi/10.3.1/../../../../arm-none-eabi/lib/thumb/v7e-m+dp/hard\libc_nano.a(lib_a-wbuf.o) (_fflush_r)
c:/nxp/mcuxpressoide_11.6.1_8255/ide/plugins/com.nxp.mcuxpresso.tools.win32_11.6.1.202207200623/tools/bin/../lib/gcc/arm-none-eabi/10.3.1/../../../../arm-none-eabi/lib/thumb/v7e-m+dp/hard\libc_nano.a(lib_a-findfp.o)
                              c:/nxp/mcuxpressoide_11.6.1_8255/ide/plugins/com.nxp.mcuxpresso.tools.win32_11.6.1.202207200623/tools/bin/../lib/gcc/arm-none-eabi/10.3.1/../../../../arm-none-eabi/lib/thumb/v7e-m+dp/hard\libc_nano.a(lib_a-nano-vfprintf.o) (__sinit)
c:/nxp/mcuxpressoide_11.6.1_8255/ide/plugins/com.nxp.mcuxpresso.tools.win32_11.6.1.202207200623/tools/bin/../lib/gcc/arm-none-eabi/10.3.1/../../../../arm-none-eabi/lib/thumb/v7e-m+dp/hard\libc_nano.a(lib_a-fvwrite.o)
                              c:/nxp/mcuxpressoide_11.6.1_8255/ide/plugins/com.nxp.mcuxpresso.tools.win32_11.6.1.202207200623/tools/bin/../lib/gcc/arm-none-eabi/10.3.1/../../../../arm-none-eabi/lib/thumb/v7e-m+dp/hard\libc_nano.a(lib_a-nano-vfprintf.o) (__sfvwrite_r)
c:/nxp/mcuxpressoide_11.6.1_8255/ide/plugins/com.nxp.mcuxpresso.tools.win32_11.6.1.202207200623/tools/bin/../lib/gcc/arm-none-eabi/10.3.1/../../../../arm-none-eabi/lib/thumb/v7e-m+dp/hard\libc_nano.a(lib_a-fwalk.o)
                              c:/nxp/mcuxpressoide_11.6.1_8255/ide/plugins/com.nxp.mcuxpresso.tools.win32_11.6.1.202207200623/tools/bin/../lib/gcc/arm-none-eabi/10.3.1/../../../../arm-none-eabi/lib/thumb/v7e-m+dp/hard\libc_nano.a(lib_a-findfp.o) (_fwalk)
c:/nxp/mcuxpressoide_11.6.1_8255/ide/plugins/com.nxp.mcuxpresso.tools.win32_11.6.1.202207200623/tools/bin/../lib/gcc/arm-none-eabi/10.3.1/../../../../arm-none-eabi/lib/thumb/v7e-m+dp/hard\libc_nano.a(lib_a-lock.o)
                              c:/nxp/mcuxpressoide_11.6.1_8255/ide/plugins/com.nxp.mcuxpresso.tools.win32_11.6.1.202207200623/tools/bin/../lib/gcc/arm-none-eabi/10.3.1/../../../../arm-none-eabi/lib/thumb/v7e-m+dp/hard\libc_nano.a(lib_a-findfp.o) (__retarget_lock_init_recursive)
c:/nxp/mcuxpressoide_11.6.1_8255/ide/plugins/com.nxp.mcuxpresso.tools.win32_11.6.1.202207200623/tools/bin/../lib/gcc/arm-none-eabi/10.3.1/../../../../arm-none-eabi/lib/thumb/v7e-m+dp/hard\libc_nano.a(lib_a-makebuf.o)
                              c:/nxp/mcuxpressoide_11.6.1_8255/ide/plugins/com.nxp.mcuxpresso.tools.win32_11.6.1.202207200623/tools/bin/../lib/gcc/arm-none-eabi/10.3.1/../../../../arm-none-eabi/lib/thumb/v7e-m+dp/hard\libc_nano.a(lib_a-wsetup.o) (__smakebuf_r)
c:/nxp/mcuxpressoide_11.6.1_8255/ide/plugins/com.nxp.mcuxpresso.tools.win32_11.6.1.202207200623/tools/bin/../lib/gcc/arm-none-eabi/10.3.1/../../../../arm-none-eabi/lib/thumb/v7e-m+dp/hard\libc_nano.a(lib_a-memchr.o)
                              c:/nxp/mcuxpressoide_11.6.1_8255/ide/plugins/com.nxp.mcuxpresso.tools.win32_11.6.1.202207200623/tools/bin/../lib/gcc/arm-none-eabi/10.3.1/../../../../arm-none-eabi/lib/thumb/v7e-m+dp/hard\libc_nano.a(lib_a-nano-vfprintf.o) (memchr)
c:/nxp/mcuxpressoide_11.6.1_8255/ide/plugins/com.nxp.mcuxpresso.tools.win32_11.6.1.202207200623/tools/bin/../lib/gcc/arm-none-eabi/10.3.1/../../../../arm-none-eabi/lib/thumb/v7e-m+dp/hard\libc_nano.a(lib_a-memmove.o)
                              c:/nxp/mcuxpressoide_11.6.1_8255/ide/plugins/com.nxp.mcuxpresso.tools.win32_11.6.1.202207200623/tools/bin/../lib/gcc/arm-none-eabi/10.3.1/../../../../arm-none-eabi/lib/thumb/v7e-m+dp/hard\libc_nano.a(lib_a-fvwrite.o) (memmove)
c:/nxp/mcuxpressoide_11.6.1_8255/ide/plugins/com.nxp.mcuxpresso.tools.win32_11.6.1.202207200623/tools/bin/../lib/gcc/arm-none-eabi/10.3.1/../../../../arm-none-eabi/lib/thumb/v7e-m+dp/hard\libc_nano.a(lib_a-mlock.o)
                              c:/nxp/mcuxpressoide_11.6.1_8255/ide/plugins/com.nxp.mcuxpresso.tools.win32_11.6.1.202207200623/tools/bin/../lib/gcc/arm-none-eabi/10.3.1/../../../../arm-none-eabi/lib/thumb/v7e-m+dp/hard\libc_nano.a(lib_a-nano-freer.o) (__malloc_lock)
c:/nxp/mcuxpressoide_11.6.1_8255/ide/plugins/com.nxp.mcuxpresso.tools.win32_11.6.1.202207200623/tools/bin/../lib/gcc/arm-none-eabi/10.3.1/../../../../arm-none-eabi/lib/thumb/v7e-m+dp/hard\libc_nano.a(lib_a-nano-reallocr.o)
                              c:/nxp/mcuxpressoide_11.6.1_8255/ide/plugins/com.nxp.mcuxpresso.tools.win32_11.6.1.202207200623/tools/bin/../lib/gcc/arm-none-eabi/10.3.1/../../../../arm-none-eabi/lib/thumb/v7e-m+dp/hard\libc_nano.a(lib_a-fvwrite.o) (_realloc_r)
c:/nxp/mcuxpressoide_11.6.1_8255/ide/plugins/com.nxp.mcuxpresso.tools.win32_11.6.1.202207200623/tools/bin/../lib/gcc/arm-none-eabi/10.3.1/../../../../arm-none-eabi/lib/thumb/v7e-m+dp/hard\libc_nano.a(lib_a-reent.o)
                              c:/nxp/mcuxpressoide_11.6.1_8255/ide/plugins/com.nxp.mcuxpresso.tools.win32_11.6.1.202207200623/tools/bin/../lib/gcc/arm-none-eabi/10.3.1/../../../../arm-none-eabi/lib/thumb/v7e-m+dp/hard\libc_nano.a(lib_a-sbrkr.o) (errno)
c:/nxp/mcuxpressoide_11.6.1_8255/ide/plugins/com.nxp.mcuxpresso.tools.win32_11.6.1.202207200623/tools/bin/../lib/gcc/arm-none-eabi/10.3.1/../../../../arm-none-eabi/lib/thumb/v7e-m+dp/hard\libc_nano.a(lib_a-signal.o)
                              c:/nxp/mcuxpressoide_11.6.1_8255/ide/plugins/com.nxp.mcuxpresso.tools.win32_11.6.1.202207200623/tools/bin/../lib/gcc/arm-none-eabi/10.3.1/../../../../arm-none-eabi/lib/thumb/v7e-m+dp/hard\libc_nano.a(lib_a-abort.o) (raise)
c:/nxp/mcuxpressoide_11.6.1_8255/ide/plugins/com.nxp.mcuxpresso.tools.win32_11.6.1.202207200623/tools/bin/../lib/gcc/arm-none-eabi/10.3.1/../../../../arm-none-eabi/lib/thumb/v7e-m+dp/hard\libc_nano.a(lib_a-signalr.o)
                              c:/nxp/mcuxpressoide_11.6.1_8255/ide/plugins/com.nxp.mcuxpresso.tools.win32_11.6.1.202207200623/tools/bin/../lib/gcc/arm-none-eabi/10.3.1/../../../../arm-none-eabi/lib/thumb/v7e-m+dp/hard\libc_nano.a(lib_a-signal.o) (_kill_r)
c:/nxp/mcuxpressoide_11.6.1_8255/ide/plugins/com.nxp.mcuxpresso.tools.win32_11.6.1.202207200623/tools/bin/../lib/gcc/arm-none-eabi/10.3.1/../../../../arm-none-eabi/lib/thumb/v7e-m+dp/hard\libc_nano.a(lib_a-stdio.o)
                              c:/nxp/mcuxpressoide_11.6.1_8255/ide/plugins/com.nxp.mcuxpresso.tools.win32_11.6.1.202207200623/tools/bin/../lib/gcc/arm-none-eabi/10.3.1/../../../../arm-none-eabi/lib/thumb/v7e-m+dp/hard\libc_nano.a(lib_a-findfp.o) (__sread)
c:/nxp/mcuxpressoide_11.6.1_8255/ide/plugins/com.nxp.mcuxpresso.tools.win32_11.6.1.202207200623/tools/bin/../lib/gcc/arm-none-eabi/10.3.1/../../../../arm-none-eabi/lib/thumb/v7e-m+dp/hard\libc_nano.a(lib_a-writer.o)
                              c:/nxp/mcuxpressoide_11.6.1_8255/ide/plugins/com.nxp.mcuxpresso.tools.win32_11.6.1.202207200623/tools/bin/../lib/gcc/arm-none-eabi/10.3.1/../../../../arm-none-eabi/lib/thumb/v7e-m+dp/hard\libc_nano.a(lib_a-stdio.o) (_write_r)
c:/nxp/mcuxpressoide_11.6.1_8255/ide/plugins/com.nxp.mcuxpresso.tools.win32_11.6.1.202207200623/tools/bin/../lib/gcc/arm-none-eabi/10.3.1/../../../../arm-none-eabi/lib/thumb/v7e-m+dp/hard\libc_nano.a(lib_a-closer.o)
                              c:/nxp/mcuxpressoide_11.6.1_8255/ide/plugins/com.nxp.mcuxpresso.tools.win32_11.6.1.202207200623/tools/bin/../lib/gcc/arm-none-eabi/10.3.1/../../../../arm-none-eabi/lib/thumb/v7e-m+dp/hard\libc_nano.a(lib_a-stdio.o) (_close_r)
c:/nxp/mcuxpressoide_11.6.1_8255/ide/plugins/com.nxp.mcuxpresso.tools.win32_11.6.1.202207200623/tools/bin/../lib/gcc/arm-none-eabi/10.3.1/../../../../arm-none-eabi/lib/thumb/v7e-m+dp/hard\libc_nano.a(lib_a-fstatr.o)
                              c:/nxp/mcuxpressoide_11.6.1_8255/ide/plugins/com.nxp.mcuxpresso.tools.win32_11.6.1.202207200623/tools/bin/../lib/gcc/arm-none-eabi/10.3.1/../../../../arm-none-eabi/lib/thumb/v7e-m+dp/hard\libc_nano.a(lib_a-makebuf.o) (_fstat_r)
c:/nxp/mcuxpressoide_11.6.1_8255/ide/plugins/com.nxp.mcuxpresso.tools.win32_11.6.1.202207200623/tools/bin/../lib/gcc/arm-none-eabi/10.3.1/../../../../arm-none-eabi/lib/thumb/v7e-m+dp/hard\libc_nano.a(lib_a-isattyr.o)
                              c:/nxp/mcuxpressoide_11.6.1_8255/ide/plugins/com.nxp.mcuxpresso.tools.win32_11.6.1.202207200623/tools/bin/../lib/gcc/arm-none-eabi/10.3.1/../../../../arm-none-eabi/lib/thumb/v7e-m+dp/hard\libc_nano.a(lib_a-makebuf.o) (_isatty_r)
c:/nxp/mcuxpressoide_11.6.1_8255/ide/plugins/com.nxp.mcuxpresso.tools.win32_11.6.1.202207200623/tools/bin/../lib/gcc/arm-none-eabi/10.3.1/../../../../arm-none-eabi/lib/thumb/v7e-m+dp/hard\libc_nano.a(lib_a-lseekr.o)
                              c:/nxp/mcuxpressoide_11.6.1_8255/ide/plugins/com.nxp.mcuxpresso.tools.win32_11.6.1.202207200623/tools/bin/../lib/gcc/arm-none-eabi/10.3.1/../../../../arm-none-eabi/lib/thumb/v7e-m+dp/hard\libc_nano.a(lib_a-stdio.o) (_lseek_r)
c:/nxp/mcuxpressoide_11.6.1_8255/ide/plugins/com.nxp.mcuxpresso.tools.win32_11.6.1.202207200623/tools/bin/../lib/gcc/arm-none-eabi/10.3.1/../../../../arm-none-eabi/lib/thumb/v7e-m+dp/hard\libc_nano.a(lib_a-nano-msizer.o)
                              c:/nxp/mcuxpressoide_11.6.1_8255/ide/plugins/com.nxp.mcuxpresso.tools.win32_11.6.1.202207200623/tools/bin/../lib/gcc/arm-none-eabi/10.3.1/../../../../arm-none-eabi/lib/thumb/v7e-m+dp/hard\libc_nano.a(lib_a-nano-reallocr.o) (_malloc_usable_size_r)
c:/nxp/mcuxpressoide_11.6.1_8255/ide/plugins/com.nxp.mcuxpresso.tools.win32_11.6.1.202207200623/tools/bin/../lib/gcc/arm-none-eabi/10.3.1/../../../../arm-none-eabi/lib/thumb/v7e-m+dp/hard\libc_nano.a(lib_a-readr.o)
                              c:/nxp/mcuxpressoide_11.6.1_8255/ide/plugins/com.nxp.mcuxpresso.tools.win32_11.6.1.202207200623/tools/bin/../lib/gcc/arm-none-eabi/10.3.1/../../../../arm-none-eabi/lib/thumb/v7e-m+dp/hard\libc_nano.a(lib_a-stdio.o) (_read_r)
c:/nxp/mcuxpressoide_11.6.1_8255/ide/plugins/com.nxp.mcuxpresso.tools.win32_11.6.1.202207200623/tools/bin/../lib/gcc/arm-none-eabi/10.3.1/../../../../arm-none-eabi/lib/thumb/v7e-m+dp/hard\libcr_newlib_none.a(_cr_sbrk.o)
                              c:/nxp/mcuxpressoide_11.6.1_8255/ide/plugins/com.nxp.mcuxpresso.tools.win32_11.6.1.202207200623/tools/bin/../lib/gcc/arm-none-eabi/10.3.1/../../../../arm-none-eabi/lib/thumb/v7e-m+dp/hard\libc_nano.a(lib_a-sbrkr.o) (_sbrk)
c:/nxp/mcuxpressoide_11.6.1_8255/ide/plugins/com.nxp.mcuxpresso.tools.win32_11.6.1.202207200623/tools/bin/../lib/gcc/arm-none-eabi/10.3.1/../../../../arm-none-eabi/lib/thumb/v7e-m+dp/hard\libcr_newlib_none.a(_cr_check_heap.o)
                              c:/nxp/mcuxpressoide_11.6.1_8255/ide/plugins/com.nxp.mcuxpresso.tools.win32_11.6.1.202207200623/tools/bin/../lib/gcc/arm-none-eabi/10.3.1/../../../../arm-none-eabi/lib/thumb/v7e-m+dp/hard\libcr_newlib_none.a(_cr_sbrk.o) (__check_heap_overflow)
c:/nxp/mcuxpressoide_11.6.1_8255/ide/plugins/com.nxp.mcuxpresso.tools.win32_11.6.1.202207200623/tools/bin/../lib/gcc/arm-none-eabi/10.3.1/../../../../arm-none-eabi/lib/thumb/v7e-m+dp/hard\libnosys.a(close.o)
                              c:/nxp/mcuxpressoide_11.6.1_8255/ide/plugins/com.nxp.mcuxpresso.tools.win32_11.6.1.202207200623/tools/bin/../lib/gcc/arm-none-eabi/10.3.1/../../../../arm-none-eabi/lib/thumb/v7e-m+dp/hard\libc_nano.a(lib_a-closer.o) (_close)
c:/nxp/mcuxpressoide_11.6.1_8255/ide/plugins/com.nxp.mcuxpresso.tools.win32_11.6.1.202207200623/tools/bin/../lib/gcc/arm-none-eabi/10.3.1/../../../../arm-none-eabi/lib/thumb/v7e-m+dp/hard\libnosys.a(fstat.o)
                              c:/nxp/mcuxpressoide_11.6.1_8255/ide/plugins/com.nxp.mcuxpresso.tools.win32_11.6.1.202207200623/tools/bin/../lib/gcc/arm-none-eabi/10.3.1/../../../../arm-none-eabi/lib/thumb/v7e-m+dp/hard\libc_nano.a(lib_a-fstatr.o) (_fstat)
c:/nxp/mcuxpressoide_11.6.1_8255/ide/plugins/com.nxp.mcuxpresso.tools.win32_11.6.1.202207200623/tools/bin/../lib/gcc/arm-none-eabi/10.3.1/../../../../arm-none-eabi/lib/thumb/v7e-m+dp/hard\libnosys.a(getpid.o)
                              c:/nxp/mcuxpressoide_11.6.1_8255/ide/plugins/com.nxp.mcuxpresso.tools.win32_11.6.1.202207200623/tools/bin/../lib/gcc/arm-none-eabi/10.3.1/../../../../arm-none-eabi/lib/thumb/v7e-m+dp/hard\libc_nano.a(lib_a-signalr.o) (_getpid)
c:/nxp/mcuxpressoide_11.6.1_8255/ide/plugins/com.nxp.mcuxpresso.tools.win32_11.6.1.202207200623/tools/bin/../lib/gcc/arm-none-eabi/10.3.1/../../../../arm-none-eabi/lib/thumb/v7e-m+dp/hard\libnosys.a(isatty.o)
                              c:/nxp/mcuxpressoide_11.6.1_8255/ide/plugins/com.nxp.mcuxpresso.tools.win32_11.6.1.202207200623/tools/bin/../lib/gcc/arm-none-eabi/10.3.1/../../../../arm-none-eabi/lib/thumb/v7e-m+dp/hard\libc_nano.a(lib_a-isattyr.o) (_isatty)
c:/nxp/mcuxpressoide_11.6.1_8255/ide/plugins/com.nxp.mcuxpresso.tools.win32_11.6.1.202207200623/tools/bin/../lib/gcc/arm-none-eabi/10.3.1/../../../../arm-none-eabi/lib/thumb/v7e-m+dp/hard\libnosys.a(kill.o)
                              c:/nxp/mcuxpressoide_11.6.1_8255/ide/plugins/com.nxp.mcuxpresso.tools.win32_11.6.1.202207200623/tools/bin/../lib/gcc/arm-none-eabi/10.3.1/../../../../arm-none-eabi/lib/thumb/v7e-m+dp/hard\libc_nano.a(lib_a-signalr.o) (_kill)
c:/nxp/mcuxpressoide_11.6.1_8255/ide/plugins/com.nxp.mcuxpresso.tools.win32_11.6.1.202207200623/tools/bin/../lib/gcc/arm-none-eabi/10.3.1/../../../../arm-none-eabi/lib/thumb/v7e-m+dp/hard\libnosys.a(lseek.o)
                              c:/nxp/mcuxpressoide_11.6.1_8255/ide/plugins/com.nxp.mcuxpresso.tools.win32_11.6.1.202207200623/tools/bin/../lib/gcc/arm-none-eabi/10.3.1/../../../../arm-none-eabi/lib/thumb/v7e-m+dp/hard\libc_nano.a(lib_a-lseekr.o) (_lseek)
c:/nxp/mcuxpressoide_11.6.1_8255/ide/plugins/com.nxp.mcuxpresso.tools.win32_11.6.1.202207200623/tools/bin/../lib/gcc/arm-none-eabi/10.3.1/../../../../arm-none-eabi/lib/thumb/v7e-m+dp/hard\libnosys.a(read.o)
                              c:/nxp/mcuxpressoide_11.6.1_8255/ide/plugins/com.nxp.mcuxpresso.tools.win32_11.6.1.202207200623/tools/bin/../lib/gcc/arm-none-eabi/10.3.1/../../../../arm-none-eabi/lib/thumb/v7e-m+dp/hard\libc_nano.a(lib_a-readr.o) (_read)
c:/nxp/mcuxpressoide_11.6.1_8255/ide/plugins/com.nxp.mcuxpresso.tools.win32_11.6.1.202207200623/tools/bin/../lib/gcc/arm-none-eabi/10.3.1/../../../../arm-none-eabi/lib/thumb/v7e-m+dp/hard\libnosys.a(write.o)
                              c:/nxp/mcuxpressoide_11.6.1_8255/ide/plugins/com.nxp.mcuxpresso.tools.win32_11.6.1.202207200623/tools/bin/../lib/gcc/arm-none-eabi/10.3.1/../../../../arm-none-eabi/lib/thumb/v7e-m+dp/hard\libc_nano.a(lib_a-writer.o) (_write)
c:/nxp/mcuxpressoide_11.6.1_8255/ide/plugins/com.nxp.mcuxpresso.tools.win32_11.6.1.202207200623/tools/bin/../lib/gcc/arm-none-eabi/10.3.1/../../../../arm-none-eabi/lib/thumb/v7e-m+dp/hard\libnosys.a(_exit.o)
                              c:/nxp/mcuxpressoide_11.6.1_8255/ide/plugins/com.nxp.mcuxpresso.tools.win32_11.6.1.202207200623/tools/bin/../lib/gcc/arm-none-eabi/10.3.1/../../../../arm-none-eabi/lib/thumb/v7e-m+dp/hard\libc_nano.a(lib_a-abort.o) (_exit)
c:/nxp/mcuxpressoide_11.6.1_8255/ide/plugins/com.nxp.mcuxpresso.tools.win32_11.6.1.202207200623/tools/bin/../lib/gcc/arm-none-eabi/10.3.1/../../../../arm-none-eabi/lib/thumb/v7e-m+dp/hard\libc_nano.a(lib_a-errno.o)
                              c:/nxp/mcuxpressoide_11.6.1_8255/ide/plugins/com.nxp.mcuxpresso.tools.win32_11.6.1.202207200623/tools/bin/../lib/gcc/arm-none-eabi/10.3.1/../../../../arm-none-eabi/lib/thumb/v7e-m+dp/hard\libcr_newlib_none.a(_cr_sbrk.o) (__errno)

Discarded input sections

 .text          0x00000000        0x0 ./usb/phy/usb_phy.o
 .data          0x00000000        0x0 ./usb/phy/usb_phy.o
 .bss           0x00000000        0x0 ./usb/phy/usb_phy.o
 .text.USB_EhciPhyGetBase
                0x00000000       0x70 ./usb/phy/usb_phy.o
 .text.USB_EhciPhyInit
                0x00000000       0x88 ./usb/phy/usb_phy.o
 .text.USB_EhciLowPowerPhyInit
                0x00000000       0x64 ./usb/phy/usb_phy.o
 .text.USB_EhciPhyDeinit
                0x00000000       0x12 ./usb/phy/usb_phy.o
 .text.USB_EhcihostPhyDisconnectDetectCmd
                0x00000000       0x1c ./usb/phy/usb_phy.o
 .rodata        0x00000000        0xc ./usb/phy/usb_phy.o
 .debug_info    0x00000000      0x764 ./usb/phy/usb_phy.o
 .debug_abbrev  0x00000000      0x1ae ./usb/phy/usb_phy.o
 .debug_loc     0x00000000      0x2e4 ./usb/phy/usb_phy.o
 .debug_aranges
                0x00000000       0x40 ./usb/phy/usb_phy.o
 .debug_ranges  0x00000000       0x30 ./usb/phy/usb_phy.o
 .debug_line    0x00000000      0x440 ./usb/phy/usb_phy.o
 .debug_str     0x00000000      0x863 ./usb/phy/usb_phy.o
 .comment       0x00000000       0x4a ./usb/phy/usb_phy.o
 .debug_frame   0x00000000       0x9c ./usb/phy/usb_phy.o
 .ARM.attributes
                0x00000000       0x32 ./usb/phy/usb_phy.o
 .text          0x00000000        0x0 ./usb/device/source/ehci/usb_device_ehci.o
 .data          0x00000000        0x0 ./usb/device/source/ehci/usb_device_ehci.o
 .bss           0x00000000        0x0 ./usb/device/source/ehci/usb_device_ehci.o
 .text          0x00000000        0x0 ./usb/device/source/usb_device_ch9.o
 .data          0x00000000        0x0 ./usb/device/source/usb_device_ch9.o
 .bss           0x00000000        0x0 ./usb/device/source/usb_device_ch9.o
 .text          0x00000000        0x0 ./usb/device/source/usb_device_dci.o
 .data          0x00000000        0x0 ./usb/device/source/usb_device_dci.o
 .bss           0x00000000        0x0 ./usb/device/source/usb_device_dci.o
 .text.USB_DeviceStop
                0x00000000        0x8 ./usb/device/source/usb_device_dci.o
 .text.USB_DeviceCancel
                0x00000000       0x14 ./usb/device/source/usb_device_dci.o
 .text.USB_DeviceGetVersion
                0x00000000        0xc ./usb/device/source/usb_device_dci.o
 .text          0x00000000        0x0 ./usb/device/class/hid/usb_device_hid.o
 .data          0x00000000        0x0 ./usb/device/class/hid/usb_device_hid.o
 .bss           0x00000000        0x0 ./usb/device/class/hid/usb_device_hid.o
 .text          0x00000000        0x0 ./usb/device/class/usb_device_class.o
 .data          0x00000000        0x0 ./usb/device/class/usb_device_class.o
 .bss           0x00000000        0x0 ./usb/device/class/usb_device_class.o
 .data          0x00000000        0x0 ./startup/crt0_gcc.o
 .bss           0x00000000        0x0 ./startup/crt0_gcc.o
 .Reset_Handler
                0x00000000        0x0 ./startup/crt0_gcc.o
 .text          0x00000000        0x0 ./startup/startup.o
 .data          0x00000000        0x0 ./startup/startup.o
 .bss           0x00000000        0x0 ./startup/startup.o
 .data          0x00000000        0x0 ./startup/startup_MIMXRT1052.o
 .bss           0x00000000        0x0 ./startup/startup_MIMXRT1052.o
 .text          0x00000000        0x0 ./source/utilities/src/debug_util.o
 .data          0x00000000        0x0 ./source/utilities/src/debug_util.o
 .bss           0x00000000        0x0 ./source/utilities/src/debug_util.o
 .text          0x00000000        0x0 ./source/utilities/src/fsl_assert.o
 .data          0x00000000        0x0 ./source/utilities/src/fsl_assert.o
 .bss           0x00000000        0x0 ./source/utilities/src/fsl_assert.o
 .text.fsl_assert
                0x00000000        0x2 ./source/utilities/src/fsl_assert.o
 .debug_info    0x00000000       0x38 ./source/utilities/src/fsl_assert.o
 .debug_abbrev  0x00000000       0x2e ./source/utilities/src/fsl_assert.o
 .debug_aranges
                0x00000000       0x20 ./source/utilities/src/fsl_assert.o
 .debug_ranges  0x00000000       0x10 ./source/utilities/src/fsl_assert.o
 .debug_line    0x00000000       0x57 ./source/utilities/src/fsl_assert.o
 .debug_str     0x00000000      0x162 ./source/utilities/src/fsl_assert.o
 .comment       0x00000000       0x4a ./source/utilities/src/fsl_assert.o
 .debug_frame   0x00000000       0x20 ./source/utilities/src/fsl_assert.o
 .ARM.attributes
                0x00000000       0x32 ./source/utilities/src/fsl_assert.o
 .text          0x00000000        0x0 ./source/utilities/src/fsl_rtos_abstraction.o
 .data          0x00000000        0x0 ./source/utilities/src/fsl_rtos_abstraction.o
 .bss           0x00000000        0x0 ./source/utilities/src/fsl_rtos_abstraction.o
 .text.sync_reset
                0x00000000       0x20 ./source/utilities/src/fsl_rtos_abstraction.o
 .rodata.OSA_SemaCreate.str1.1
                0x00000000       0x1c ./source/utilities/src/fsl_rtos_abstraction.o
 .text.OSA_SemaCreate
                0x00000000       0x4c ./source/utilities/src/fsl_rtos_abstraction.o
 .text.OSA_SemaWait
                0x00000000       0x88 ./source/utilities/src/fsl_rtos_abstraction.o
 .text.OSA_SemaPost
                0x00000000       0x38 ./source/utilities/src/fsl_rtos_abstraction.o
 .text.OSA_SemaDestroy
                0x00000000       0x20 ./source/utilities/src/fsl_rtos_abstraction.o
 .bss.s_ticksPerMs
                0x00000000        0x8 ./source/utilities/src/fsl_rtos_abstraction.o
 .rodata.__func__.0
                0x00000000       0x10 ./source/utilities/src/fsl_rtos_abstraction.o
 .rodata.__func__.1
                0x00000000        0xd ./source/utilities/src/fsl_rtos_abstraction.o
 .rodata.__func__.2
                0x00000000        0xd ./source/utilities/src/fsl_rtos_abstraction.o
 .rodata.__func__.3
                0x00000000        0xf ./source/utilities/src/fsl_rtos_abstraction.o
 .text          0x00000000        0x0 ./source/usb/bm_composite/composite.o
 .data          0x00000000        0x0 ./source/usb/bm_composite/composite.o
 .bss           0x00000000        0x0 ./source/usb/bm_composite/composite.o
 .text          0x00000000        0x0 ./source/usb/bm_composite/hid_bootloader.o
 .data          0x00000000        0x0 ./source/usb/bm_composite/hid_bootloader.o
 .bss           0x00000000        0x0 ./source/usb/bm_composite/hid_bootloader.o
 .text          0x00000000        0x0 ./source/usb/bm_composite/usb_descriptor.o
 .data          0x00000000        0x0 ./source/usb/bm_composite/usb_descriptor.o
 .bss           0x00000000        0x0 ./source/usb/bm_composite/usb_descriptor.o
 .data.g_msc_class
                0x00000000        0x8 ./source/usb/bm_composite/usb_descriptor.o
 .data.g_msc_disk_interface
                0x00000000       0x10 ./source/usb/bm_composite/usb_descriptor.o
 .data.g_msc_disk_interface_list
                0x00000000        0x8 ./source/usb/bm_composite/usb_descriptor.o
 .data.g_msc_disk_interfaces
                0x00000000        0xc ./source/usb/bm_composite/usb_descriptor.o
 .text          0x00000000        0x0 ./source/sbloader/src/sbloader.o
 .data          0x00000000        0x0 ./source/sbloader/src/sbloader.o
 .bss           0x00000000        0x0 ./source/sbloader/src/sbloader.o
 .text.ldr_DoKeyTest
                0x00000000       0x40 ./source/sbloader/src/sbloader.o
 .text.ldr_DoGetDek
                0x00000000        0xa ./source/sbloader/src/sbloader.o
 .text.ldr_DoHeaderMac
                0x00000000       0x1c ./source/sbloader/src/sbloader.o
 .text.ldr_DoJumpCmd
                0x00000000        0x6 ./source/sbloader/src/sbloader.o
 .text.ldr_DoResetCmd
                0x00000000        0x6 ./source/sbloader/src/sbloader.o
 .text          0x00000000        0x0 ./source/property/src/property_imx.o
 .data          0x00000000        0x0 ./source/property/src/property_imx.o
 .bss           0x00000000        0x0 ./source/property/src/property_imx.o
 .text          0x00000000        0x0 ./source/packet/src/serial_packet.o
 .data          0x00000000        0x0 ./source/packet/src/serial_packet.o
 .bss           0x00000000        0x0 ./source/packet/src/serial_packet.o
 .text          0x00000000        0x0 ./source/memory/src/flexspi_nor_memory.o
 .data          0x00000000        0x0 ./source/memory/src/flexspi_nor_memory.o
 .bss           0x00000000        0x0 ./source/memory/src/flexspi_nor_memory.o
 .text.flexspi_nor_get_amba_addr
                0x00000000        0x6 ./source/memory/src/flexspi_nor_memory.o
 .text.is_flexspi_nor_configured
                0x00000000        0xc ./source/memory/src/flexspi_nor_memory.o
 .text          0x00000000        0x0 ./source/memory/src/memory.o
 .data          0x00000000        0x0 ./source/memory/src/memory.o
 .bss           0x00000000        0x0 ./source/memory/src/memory.o
 .text.mem_is_erased
                0x00000000       0x18 ./source/memory/src/memory.o
 .text          0x00000000        0x0 ./source/memory/src/mmc_memory.o
 .data          0x00000000        0x0 ./source/memory/src/mmc_memory.o
 .bss           0x00000000        0x0 ./source/memory/src/mmc_memory.o
 .text          0x00000000        0x0 ./source/memory/src/normal_memory.o
 .data          0x00000000        0x0 ./source/memory/src/normal_memory.o
 .bss           0x00000000        0x0 ./source/memory/src/normal_memory.o
 .text.normal_mem_init
                0x00000000        0x4 ./source/memory/src/normal_memory.o
 .rodata.g_normalDTCMInterface
                0x00000000       0x20 ./source/memory/src/normal_memory.o
 .rodata.g_normalOCRAMInterface
                0x00000000       0x20 ./source/memory/src/normal_memory.o
 .data          0x00000000        0x0 ./source/memory/src/pattern_fill_gcc.o
 .bss           0x00000000        0x0 ./source/memory/src/pattern_fill_gcc.o
 .pattern_fill  0x00000000        0x0 ./source/memory/src/pattern_fill_gcc.o
 .text          0x00000000        0x0 ./source/memory/src/sd_memory.o
 .data          0x00000000        0x0 ./source/memory/src/sd_memory.o
 .bss           0x00000000        0x0 ./source/memory/src/sd_memory.o
 .text          0x00000000        0x0 ./source/memory/src/semc_nand_memory.o
 .data          0x00000000        0x0 ./source/memory/src/semc_nand_memory.o
 .bss           0x00000000        0x0 ./source/memory/src/semc_nand_memory.o
 .text          0x00000000        0x0 ./source/memory/src/semc_nor_memory.o
 .data          0x00000000        0x0 ./source/memory/src/semc_nor_memory.o
 .bss           0x00000000        0x0 ./source/memory/src/semc_nor_memory.o
 .text.is_semc_nor_configured
                0x00000000        0xc ./source/memory/src/semc_nor_memory.o
 .text          0x00000000        0x0 ./source/memory/src/spi_nor_eeprom_memory.o
 .data          0x00000000        0x0 ./source/memory/src/spi_nor_eeprom_memory.o
 .bss           0x00000000        0x0 ./source/memory/src/spi_nor_eeprom_memory.o
 .text          0x00000000        0x0 ./source/memory/src/spinand_memory.o
 .data          0x00000000        0x0 ./source/memory/src/spinand_memory.o
 .bss           0x00000000        0x0 ./source/memory/src/spinand_memory.o
 .text          0x00000000        0x0 ./source/memory/src/sram_init_MIMXRT1052.o
 .data          0x00000000        0x0 ./source/memory/src/sram_init_MIMXRT1052.o
 .bss           0x00000000        0x0 ./source/memory/src/sram_init_MIMXRT1052.o
 .text.sram_init
                0x00000000        0x4 ./source/memory/src/sram_init_MIMXRT1052.o
 .debug_info    0x00000000       0xed ./source/memory/src/sram_init_MIMXRT1052.o
 .debug_abbrev  0x00000000       0x71 ./source/memory/src/sram_init_MIMXRT1052.o
 .debug_aranges
                0x00000000       0x20 ./source/memory/src/sram_init_MIMXRT1052.o
 .debug_ranges  0x00000000       0x10 ./source/memory/src/sram_init_MIMXRT1052.o
 .debug_line    0x00000000      0x167 ./source/memory/src/sram_init_MIMXRT1052.o
 .debug_str     0x00000000      0x2aa ./source/memory/src/sram_init_MIMXRT1052.o
 .comment       0x00000000       0x4a ./source/memory/src/sram_init_MIMXRT1052.o
 .debug_frame   0x00000000       0x20 ./source/memory/src/sram_init_MIMXRT1052.o
 .ARM.attributes
                0x00000000       0x32 ./source/memory/src/sram_init_MIMXRT1052.o
 .text          0x00000000        0x0 ./source/drivers/usdhc/bl_usdhc.o
 .data          0x00000000        0x0 ./source/drivers/usdhc/bl_usdhc.o
 .bss           0x00000000        0x0 ./source/drivers/usdhc/bl_usdhc.o
 .text.USDHC_TransferHandleIRQ
                0x00000000      0x160 ./source/drivers/usdhc/bl_usdhc.o
 .text.USDHC_Deinit
                0x00000000       0x1c ./source/drivers/usdhc/bl_usdhc.o
 .rodata.USDHC_SetMmcBootConfig.str1.1
                0x00000000       0xbb ./source/drivers/usdhc/bl_usdhc.o
 .text.USDHC_SetMmcBootConfig
                0x00000000       0xa8 ./source/drivers/usdhc/bl_usdhc.o
 .text.USDHC_TransferNonBlocking
                0x00000000       0xbc ./source/drivers/usdhc/bl_usdhc.o
 .text.USDHC_EnableManualTuning
                0x00000000       0x28 ./source/drivers/usdhc/bl_usdhc.o
 .text.USDHC_EnableAutoTuningForCmdAndData
                0x00000000       0x5a ./source/drivers/usdhc/bl_usdhc.o
 .rodata.USDHC_TransferCreateHandle.str1.1
                0x00000000        0x9 ./source/drivers/usdhc/bl_usdhc.o
 .text.USDHC_TransferCreateHandle
                0x00000000       0xb4 ./source/drivers/usdhc/bl_usdhc.o
 .rodata.__func__.0
                0x00000000       0x1d ./source/drivers/usdhc/bl_usdhc.o
 .rodata.__func__.1
                0x00000000       0x19 ./source/drivers/usdhc/bl_usdhc.o
 .rodata.__func__.12
                0x00000000       0x17 ./source/drivers/usdhc/bl_usdhc.o
 .rodata.__func__.2
                0x00000000       0x1c ./source/drivers/usdhc/bl_usdhc.o
 .rodata.__func__.3
                0x00000000       0x18 ./source/drivers/usdhc/bl_usdhc.o
 .rodata.__func__.4
                0x00000000       0x1b ./source/drivers/usdhc/bl_usdhc.o
 .rodata.__func__.5
                0x00000000       0x1a ./source/drivers/usdhc/bl_usdhc.o
 .text          0x00000000        0x0 ./source/drivers/trng/bl_trng.o
 .data          0x00000000        0x0 ./source/drivers/trng/bl_trng.o
 .bss           0x00000000        0x0 ./source/drivers/trng/bl_trng.o
 .text.TRNG_Deinit
                0x00000000       0x3c ./source/drivers/trng/bl_trng.o
 .text          0x00000000        0x0 ./source/drivers/serial_nor_eeprom/serial_nor_eeprom.o
 .data          0x00000000        0x0 ./source/drivers/serial_nor_eeprom/serial_nor_eeprom.o
 .bss           0x00000000        0x0 ./source/drivers/serial_nor_eeprom/serial_nor_eeprom.o
 .text          0x00000000        0x0 ./source/drivers/semc_nor/semc_nor_flash.o
 .data          0x00000000        0x0 ./source/drivers/semc_nor/semc_nor_flash.o
 .bss           0x00000000        0x0 ./source/drivers/semc_nor/semc_nor_flash.o
 .text          0x00000000        0x0 ./source/drivers/semc_nand/semc_nand_flash.o
 .data          0x00000000        0x0 ./source/drivers/semc_nand/semc_nand_flash.o
 .bss           0x00000000        0x0 ./source/drivers/semc_nand/semc_nand_flash.o
 .text          0x00000000        0x0 ./source/drivers/semc/bl_semc.o
 .data          0x00000000        0x0 ./source/drivers/semc/bl_semc.o
 .bss           0x00000000        0x0 ./source/drivers/semc/bl_semc.o
 .rodata.s_semcAxiQueueWeightConfig
                0x00000000        0x8 ./source/drivers/semc/bl_semc.o
 .text          0x00000000        0x0 ./source/drivers/sdmmc/fsl_mmc.o
 .data          0x00000000        0x0 ./source/drivers/sdmmc/fsl_mmc.o
 .bss           0x00000000        0x0 ./source/drivers/sdmmc/fsl_mmc.o
 .text.MMC_SendOperationCondition
                0x00000000       0x8c ./source/drivers/sdmmc/fsl_mmc.o
 .text.MMC_SetMaxDataBusWidth
                0x00000000      0x108 ./source/drivers/sdmmc/fsl_mmc.o
 .rodata.MMC_CardInit.str1.1
                0x00000000       0x70 ./source/drivers/sdmmc/fsl_mmc.o
 .text.MMC_CardInit
                0x00000000      0x368 ./source/drivers/sdmmc/fsl_mmc.o
 .text.MMC_CardDeinit
                0x00000000       0x28 ./source/drivers/sdmmc/fsl_mmc.o
 .text.MMC_HostDeinit
                0x00000000       0x2c ./source/drivers/sdmmc/fsl_mmc.o
 .text.MMC_Init
                0x00000000       0x40 ./source/drivers/sdmmc/fsl_mmc.o
 .text.MMC_Deinit
                0x00000000       0x30 ./source/drivers/sdmmc/fsl_mmc.o
 .text.MMC_BL_StartBoot
                0x00000000      0x290 ./source/drivers/sdmmc/fsl_mmc.o
 .text.MMC_ReadBootData
                0x00000000       0xa0 ./source/drivers/sdmmc/fsl_mmc.o
 .text.MMC_StopBoot
                0x00000000       0x44 ./source/drivers/sdmmc/fsl_mmc.o
 .rodata.__func__.0
                0x00000000        0xd ./source/drivers/sdmmc/fsl_mmc.o
 .rodata.__func__.1
                0x00000000       0x11 ./source/drivers/sdmmc/fsl_mmc.o
 .rodata.__func__.18
                0x00000000        0xb ./source/drivers/sdmmc/fsl_mmc.o
 .rodata.__func__.20
                0x00000000        0x9 ./source/drivers/sdmmc/fsl_mmc.o
 .rodata.__func__.21
                0x00000000        0xf ./source/drivers/sdmmc/fsl_mmc.o
 .rodata.__func__.23
                0x00000000        0xf ./source/drivers/sdmmc/fsl_mmc.o
 .rodata.__func__.3
                0x00000000       0x11 ./source/drivers/sdmmc/fsl_mmc.o
 .rodata.__func__.42
                0x00000000       0x17 ./source/drivers/sdmmc/fsl_mmc.o
 .rodata.__func__.55
                0x00000000       0x1b ./source/drivers/sdmmc/fsl_mmc.o
 .rodata.__func__.57
                0x00000000        0xd ./source/drivers/sdmmc/fsl_mmc.o
 .text          0x00000000        0x0 ./source/drivers/sdmmc/fsl_sd.o
 .data          0x00000000        0x0 ./source/drivers/sdmmc/fsl_sd.o
 .bss           0x00000000        0x0 ./source/drivers/sdmmc/fsl_sd.o
 .text.SD_CardInit
                0x00000000      0x328 ./source/drivers/sdmmc/fsl_sd.o
 .text.SD_CardDeinit
                0x00000000       0x28 ./source/drivers/sdmmc/fsl_sd.o
 .text.SD_HostDeinit
                0x00000000       0x2c ./source/drivers/sdmmc/fsl_sd.o
 .text.SD_PowerOnCard
                0x00000000        0x4 ./source/drivers/sdmmc/fsl_sd.o
 .text.SD_PowerOffCard
                0x00000000        0x4 ./source/drivers/sdmmc/fsl_sd.o
 .text.SD_WaitCardDetectStatus
                0x00000000        0x4 ./source/drivers/sdmmc/fsl_sd.o
 .text.SD_IsCardPresent
                0x00000000        0x4 ./source/drivers/sdmmc/fsl_sd.o
 .text.SD_Init  0x00000000       0x64 ./source/drivers/sdmmc/fsl_sd.o
 .text.SD_Deinit
                0x00000000       0x12 ./source/drivers/sdmmc/fsl_sd.o
 .rodata.__func__.1
                0x00000000        0x8 ./source/drivers/sdmmc/fsl_sd.o
 .rodata.__func__.2
                0x00000000        0xe ./source/drivers/sdmmc/fsl_sd.o
 .rodata.__func__.29
                0x00000000        0xc ./source/drivers/sdmmc/fsl_sd.o
 .rodata.__func__.4
                0x00000000        0xe ./source/drivers/sdmmc/fsl_sd.o
 .text          0x00000000        0x0 ./source/drivers/sdmmc/fsl_sdmmc_common.o
 .data          0x00000000        0x0 ./source/drivers/sdmmc/fsl_sdmmc_common.o
 .bss           0x00000000        0x0 ./source/drivers/sdmmc/fsl_sdmmc_common.o
 .text.SDMMC_SetBlockCount
                0x00000000       0x60 ./source/drivers/sdmmc/fsl_sdmmc_common.o
 .text.SDMMC_GoPreIdle
                0x00000000       0x4c ./source/drivers/sdmmc/fsl_sdmmc_common.o
 .text.SDMMC_SetCardInactive
                0x00000000       0x4c ./source/drivers/sdmmc/fsl_sdmmc_common.o
 .rodata.__func__.1
                0x00000000       0x16 ./source/drivers/sdmmc/fsl_sdmmc_common.o
 .rodata.__func__.3
                0x00000000       0x10 ./source/drivers/sdmmc/fsl_sdmmc_common.o
 .rodata.__func__.5
                0x00000000       0x14 ./source/drivers/sdmmc/fsl_sdmmc_common.o
 .text          0x00000000        0x0 ./source/drivers/sdmmc/fsl_sdmmc_host.o
 .data          0x00000000        0x0 ./source/drivers/sdmmc/fsl_sdmmc_host.o
 .bss           0x00000000        0x0 ./source/drivers/sdmmc/fsl_sdmmc_host.o
 .text.SDMMCHOST_BL_IsCardPresent
                0x00000000       0x1a ./source/drivers/sdmmc/fsl_sdmmc_host.o
 .text.SDMMCHOST_Delay
                0x00000000        0xa ./source/drivers/sdmmc/fsl_sdmmc_host.o
 .text.SDMMCHOST_WaitCardDetectStatus
                0x00000000       0x58 ./source/drivers/sdmmc/fsl_sdmmc_host.o
 .text.SDMMCHOST_IsCardPresent
                0x00000000        0xc ./source/drivers/sdmmc/fsl_sdmmc_host.o
 .text.SDMMCHOST_PowerOffCard
                0x00000000       0x24 ./source/drivers/sdmmc/fsl_sdmmc_host.o
 .text.SDMMCHOST_PowerOnCard
                0x00000000       0x24 ./source/drivers/sdmmc/fsl_sdmmc_host.o
 .text.SDMMCHOST_Deinit
                0x00000000       0x14 ./source/drivers/sdmmc/fsl_sdmmc_host.o
 .bss.s_sdInsertedFlag
                0x00000000        0x1 ./source/drivers/sdmmc/fsl_sdmmc_host.o
 .text          0x00000000        0x0 ./source/drivers/ocotp/bl_ocotp.o
 .data          0x00000000        0x0 ./source/drivers/ocotp/bl_ocotp.o
 .bss           0x00000000        0x0 ./source/drivers/ocotp/bl_ocotp.o
 .text          0x00000000        0x0 ./source/drivers/nand_ecc/nand_ecc.o
 .data          0x00000000        0x0 ./source/drivers/nand_ecc/nand_ecc.o
 .bss           0x00000000        0x0 ./source/drivers/nand_ecc/nand_ecc.o
 .text          0x00000000        0x0 ./source/drivers/microseconds/microseconds_pit.o
 .data          0x00000000        0x0 ./source/drivers/microseconds/microseconds_pit.o
 .bss           0x00000000        0x0 ./source/drivers/microseconds/microseconds_pit.o
 .text.microseconds_convert_to_microseconds
                0x00000000       0x10 ./source/drivers/microseconds/microseconds_pit.o
 .text.microseconds_set_delay
                0x00000000       0x2c ./source/drivers/microseconds/microseconds_pit.o
 .text.microseconds_timeout
                0x00000000       0x20 ./source/drivers/microseconds/microseconds_pit.o
 .text.microseconds_get_clock
                0x00000000        0x4 ./source/drivers/microseconds/microseconds_pit.o
 .bss.s_timeoutTicks
                0x00000000        0x8 ./source/drivers/microseconds/microseconds_pit.o
 .text          0x00000000        0x0 ./source/drivers/flexspi_nor/flexspi_nor_flash.o
 .data          0x00000000        0x0 ./source/drivers/flexspi_nor/flexspi_nor_flash.o
 .bss           0x00000000        0x0 ./source/drivers/flexspi_nor/flexspi_nor_flash.o
 .text          0x00000000        0x0 ./source/drivers/flexspi_nand/flexspi_nand_flash.o
 .data          0x00000000        0x0 ./source/drivers/flexspi_nand/flexspi_nand_flash.o
 .bss           0x00000000        0x0 ./source/drivers/flexspi_nand/flexspi_nand_flash.o
 .text.flexspi_nand_erase
                0x00000000       0x2e ./source/drivers/flexspi_nand/flexspi_nand_flash.o
 .text          0x00000000        0x0 ./source/drivers/flexspi/bl_flexspi.o
 .data          0x00000000        0x0 ./source/drivers/flexspi/bl_flexspi.o
 .bss           0x00000000        0x0 ./source/drivers/flexspi/bl_flexspi.o
 .text.flexspi_clear_sequence_pointer
                0x00000000        0x8 ./source/drivers/flexspi/bl_flexspi.o
 .text          0x00000000        0x0 ./source/drivers/dcp/bl_dcp.o
 .data          0x00000000        0x0 ./source/drivers/dcp/bl_dcp.o
 .bss           0x00000000        0x0 ./source/drivers/dcp/bl_dcp.o
 .text.dcp_aes_ccm_auth_decrypt
                0x00000000       0x48 ./source/drivers/dcp/bl_dcp.o
 .text.dcp_aes_exit
                0x00000000       0x14 ./source/drivers/dcp/bl_dcp.o
 .text.dcp_aes_restore
                0x00000000       0x18 ./source/drivers/dcp/bl_dcp.o
 .text.dcp_exit
                0x00000000       0x14 ./source/drivers/dcp/bl_dcp.o
 .text          0x00000000        0x0 ./source/crc/crc16.o
 .data          0x00000000        0x0 ./source/crc/crc16.o
 .bss           0x00000000        0x0 ./source/crc/crc16.o
 .text          0x00000000        0x0 ./source/crc/crc32.o
 .data          0x00000000        0x0 ./source/crc/crc32.o
 .bss           0x00000000        0x0 ./source/crc/crc32.o
 .text          0x00000000        0x0 ./source/bootloader/src/bl_app_crc_check.o
 .data          0x00000000        0x0 ./source/bootloader/src/bl_app_crc_check.o
 .bss           0x00000000        0x0 ./source/bootloader/src/bl_app_crc_check.o
 .text.init_crc_check_status
                0x00000000       0x2e ./source/bootloader/src/bl_app_crc_check.o
 .text.calculate_application_crc32
                0x00000000       0x4c ./source/bootloader/src/bl_app_crc_check.o
 .text.is_application_crc_check_pass
                0x00000000       0x98 ./source/bootloader/src/bl_app_crc_check.o
 .debug_info    0x00000000     0x1201 ./source/bootloader/src/bl_app_crc_check.o
 .debug_abbrev  0x00000000      0x309 ./source/bootloader/src/bl_app_crc_check.o
 .debug_loc     0x00000000      0x1c3 ./source/bootloader/src/bl_app_crc_check.o
 .debug_aranges
                0x00000000       0x30 ./source/bootloader/src/bl_app_crc_check.o
 .debug_ranges  0x00000000       0x50 ./source/bootloader/src/bl_app_crc_check.o
 .debug_line    0x00000000      0x5ad ./source/bootloader/src/bl_app_crc_check.o
 .debug_str     0x00000000      0xf6c ./source/bootloader/src/bl_app_crc_check.o
 .comment       0x00000000       0x4a ./source/bootloader/src/bl_app_crc_check.o
 .debug_frame   0x00000000       0x60 ./source/bootloader/src/bl_app_crc_check.o
 .ARM.attributes
                0x00000000       0x32 ./source/bootloader/src/bl_app_crc_check.o
 .text          0x00000000        0x0 ./source/bootloader/src/bl_command.o
 .data          0x00000000        0x0 ./source/bootloader/src/bl_command.o
 .bss           0x00000000        0x0 ./source/bootloader/src/bl_command.o
 .text.handle_flash_erase_all_unsecure
                0x00000000        0x8 ./source/bootloader/src/bl_command.o
 .text.handle_data_bidirection
                0x00000000       0x24 ./source/bootloader/src/bl_command.o
 .text          0x00000000        0x0 ./source/bootloader/src/bl_context.o
 .data          0x00000000        0x0 ./source/bootloader/src/bl_context.o
 .bss           0x00000000        0x0 ./source/bootloader/src/bl_context.o
 .text          0x00000000        0x0 ./source/bootloader/src/bl_exception_handler.o
 .data          0x00000000        0x0 ./source/bootloader/src/bl_exception_handler.o
 .bss           0x00000000        0x0 ./source/bootloader/src/bl_exception_handler.o
 .text          0x00000000        0x0 ./source/bootloader/src/bl_keyblob.o
 .data          0x00000000        0x0 ./source/bootloader/src/bl_keyblob.o
 .bss           0x00000000        0x0 ./source/bootloader/src/bl_keyblob.o
 .text          0x00000000        0x0 ./source/bootloader/src/bl_keyblob_dcp.o
 .data          0x00000000        0x0 ./source/bootloader/src/bl_keyblob_dcp.o
 .bss           0x00000000        0x0 ./source/bootloader/src/bl_keyblob_dcp.o
 .text          0x00000000        0x0 ./source/bootloader/src/bl_main.o
 .data          0x00000000        0x0 ./source/bootloader/src/bl_main.o
 .bss           0x00000000        0x0 ./source/bootloader/src/bl_main.o
 .text.jump_to_application.constprop.0
                0x00000000       0x28 ./source/bootloader/src/bl_main.o
 .text.exit     0x00000000        0x2 ./source/bootloader/src/bl_main.o
 .text          0x00000000        0x0 ./source/bootloader/src/bl_misc.o
 .data          0x00000000        0x0 ./source/bootloader/src/bl_misc.o
 .bss           0x00000000        0x0 ./source/bootloader/src/bl_misc.o
 .text.qspi_need_configure
                0x00000000        0x4 ./source/bootloader/src/bl_misc.o
 .text.is_qspi_present
                0x00000000        0x4 ./source/bootloader/src/bl_misc.o
 .text.is_otfad_present
                0x00000000        0x4 ./source/bootloader/src/bl_misc.o
 .text.is_ltc_present
                0x00000000        0x4 ./source/bootloader/src/bl_misc.o
 .text.is_flexspi_nor_present
                0x00000000        0x4 ./source/bootloader/src/bl_misc.o
 .text.is_semc_nor_present
                0x00000000        0x4 ./source/bootloader/src/bl_misc.o
 .text.is_in_execute_only_region
                0x00000000        0x4 ./source/bootloader/src/bl_misc.o
 .debug_info    0x00000000      0x168 ./source/bootloader/src/bl_misc.o
 .debug_abbrev  0x00000000       0xf3 ./source/bootloader/src/bl_misc.o
 .debug_loc     0x00000000       0x25 ./source/bootloader/src/bl_misc.o
 .debug_aranges
                0x00000000       0x38 ./source/bootloader/src/bl_misc.o
 .debug_ranges  0x00000000       0x28 ./source/bootloader/src/bl_misc.o
 .debug_line    0x00000000      0x1af ./source/bootloader/src/bl_misc.o
 .debug_str     0x00000000      0x2bb ./source/bootloader/src/bl_misc.o
 .comment       0x00000000       0x4a ./source/bootloader/src/bl_misc.o
 .debug_frame   0x00000000       0x80 ./source/bootloader/src/bl_misc.o
 .ARM.attributes
                0x00000000       0x32 ./source/bootloader/src/bl_misc.o
 .text          0x00000000        0x0 ./source/bootloader/src/bl_nor_encrypt_bee.o
 .data          0x00000000        0x0 ./source/bootloader/src/bl_nor_encrypt_bee.o
 .bss           0x00000000        0x0 ./source/bootloader/src/bl_nor_encrypt_bee.o
 .text          0x00000000        0x0 ./source/bootloader/src/bl_shutdown_cleanup.o
 .data          0x00000000        0x0 ./source/bootloader/src/bl_shutdown_cleanup.o
 .bss           0x00000000        0x0 ./source/bootloader/src/bl_shutdown_cleanup.o
 .text          0x00000000        0x0 ./source/bootloader/src/bl_tree_root.o
 .data          0x00000000        0x0 ./source/bootloader/src/bl_tree_root.o
 .bss           0x00000000        0x0 ./source/bootloader/src/bl_tree_root.o
 .rodata.bootloaderCopyright
                0x00000000       0x4b ./source/bootloader/src/bl_tree_root.o
 .rodata.g_aesInterface
                0x00000000        0xc ./source/bootloader/src/bl_tree_root.o
 .rodata.g_bootloaderTree
                0x00000000       0x14 ./source/bootloader/src/bl_tree_root.o
 .debug_info    0x00000000     0x14d6 ./source/bootloader/src/bl_tree_root.o
 .debug_abbrev  0x00000000      0x1b2 ./source/bootloader/src/bl_tree_root.o
 .debug_aranges
                0x00000000       0x18 ./source/bootloader/src/bl_tree_root.o
 .debug_line    0x00000000      0x438 ./source/bootloader/src/bl_tree_root.o
 .debug_str     0x00000000     0x1eb2 ./source/bootloader/src/bl_tree_root.o
 .comment       0x00000000       0x4a ./source/bootloader/src/bl_tree_root.o
 .ARM.attributes
                0x00000000       0x32 ./source/bootloader/src/bl_tree_root.o
 .text          0x00000000        0x0 ./source/bootloader/src/bl_user_entry.o
 .data          0x00000000        0x0 ./source/bootloader/src/bl_user_entry.o
 .bss           0x00000000        0x0 ./source/bootloader/src/bl_user_entry.o
 .text.bootloader_user_entry
                0x00000000        0x2 ./source/bootloader/src/bl_user_entry.o
 .debug_info    0x00000000       0x9d ./source/bootloader/src/bl_user_entry.o
 .debug_abbrev  0x00000000       0x5c ./source/bootloader/src/bl_user_entry.o
 .debug_aranges
                0x00000000       0x20 ./source/bootloader/src/bl_user_entry.o
 .debug_ranges  0x00000000       0x10 ./source/bootloader/src/bl_user_entry.o
 .debug_line    0x00000000       0x5d ./source/bootloader/src/bl_user_entry.o
 .debug_str     0x00000000      0x200 ./source/bootloader/src/bl_user_entry.o
 .comment       0x00000000       0x4a ./source/bootloader/src/bl_user_entry.o
 .debug_frame   0x00000000       0x20 ./source/bootloader/src/bl_user_entry.o
 .ARM.attributes
                0x00000000       0x32 ./source/bootloader/src/bl_user_entry.o
 .text          0x00000000        0x0 ./source/bootloader/src/lpuart_peripheral_interface.o
 .data          0x00000000        0x0 ./source/bootloader/src/lpuart_peripheral_interface.o
 .bss           0x00000000        0x0 ./source/bootloader/src/lpuart_peripheral_interface.o
 .text          0x00000000        0x0 ./source/bootloader/src/usb_hid_msc_peripheral_interface.o
 .data          0x00000000        0x0 ./source/bootloader/src/usb_hid_msc_peripheral_interface.o
 .bss           0x00000000        0x0 ./source/bootloader/src/usb_hid_msc_peripheral_interface.o
 .text          0x00000000        0x0 ./source/autobaud/autobaud_irq.o
 .data          0x00000000        0x0 ./source/autobaud/autobaud_irq.o
 .bss           0x00000000        0x0 ./source/autobaud/autobaud_irq.o
 .text          0x00000000        0x0 ./source/semihost_hardfault.o
 .data          0x00000000        0x0 ./source/semihost_hardfault.o
 .bss           0x00000000        0x0 ./source/semihost_hardfault.o
 .debug_line    0x00000000        0x0 ./source/semihost_hardfault.o
 .debug_str     0x00000000      0x151 ./source/semihost_hardfault.o
 .comment       0x00000000       0x4a ./source/semihost_hardfault.o
 .ARM.attributes
                0x00000000       0x32 ./source/semihost_hardfault.o
 .text          0x00000000        0x0 ./drivers/fsl_clock.o
 .data          0x00000000        0x0 ./drivers/fsl_clock.o
 .bss           0x00000000        0x0 ./drivers/fsl_clock.o
 .text.CLOCK_InitExternalClk
                0x00000000       0x4c ./drivers/fsl_clock.o
 .text.CLOCK_DeinitExternalClk
                0x00000000       0x10 ./drivers/fsl_clock.o
 .text.CLOCK_SwitchOsc
                0x00000000       0x18 ./drivers/fsl_clock.o
 .text.CLOCK_InitRcOsc24M
                0x00000000       0x14 ./drivers/fsl_clock.o
 .text.CLOCK_DeinitRcOsc24M
                0x00000000       0x14 ./drivers/fsl_clock.o
 .text.CLOCK_EnableUsbhs0Clock
                0x00000000       0x50 ./drivers/fsl_clock.o
 .text.CLOCK_EnableUsbhs1Clock
                0x00000000       0x54 ./drivers/fsl_clock.o
 .text.CLOCK_DisableUsbhs0PhyPllClock
                0x00000000       0x1c ./drivers/fsl_clock.o
 .text.CLOCK_InitArmPll
                0x00000000       0x44 ./drivers/fsl_clock.o
 .text.CLOCK_DeinitArmPll
                0x00000000       0x10 ./drivers/fsl_clock.o
 .text.CLOCK_InitSysPll
                0x00000000       0x68 ./drivers/fsl_clock.o
 .text.CLOCK_DeinitSysPll
                0x00000000       0x10 ./drivers/fsl_clock.o
 .text.CLOCK_InitUsb1Pll
                0x00000000       0x44 ./drivers/fsl_clock.o
 .text.CLOCK_EnableUsbhs0PhyPllClock
                0x00000000       0x48 ./drivers/fsl_clock.o
 .text.CLOCK_DeinitUsb1Pll
                0x00000000        0xc ./drivers/fsl_clock.o
 .text.CLOCK_InitUsb2Pll
                0x00000000       0x44 ./drivers/fsl_clock.o
 .text.CLOCK_DeinitUsb2Pll
                0x00000000        0xc ./drivers/fsl_clock.o
 .text.CLOCK_InitAudioPll
                0x00000000       0xa0 ./drivers/fsl_clock.o
 .text.CLOCK_DeinitAudioPll
                0x00000000       0x10 ./drivers/fsl_clock.o
 .text.CLOCK_InitVideoPll
                0x00000000       0xa8 ./drivers/fsl_clock.o
 .text.CLOCK_DeinitVideoPll
                0x00000000       0x10 ./drivers/fsl_clock.o
 .text.CLOCK_InitEnetPll
                0x00000000       0x60 ./drivers/fsl_clock.o
 .text.CLOCK_DeinitEnetPll
                0x00000000       0x10 ./drivers/fsl_clock.o
 .text.CLOCK_InitSysPfd
                0x00000000       0x30 ./drivers/fsl_clock.o
 .text.CLOCK_DeinitSysPfd
                0x00000000       0x1c ./drivers/fsl_clock.o
 .text.CLOCK_IsSysPfdEnabled
                0x00000000       0x1c ./drivers/fsl_clock.o
 .text.CLOCK_InitUsb1Pfd
                0x00000000       0x30 ./drivers/fsl_clock.o
 .text.CLOCK_DeinitUsb1Pfd
                0x00000000       0x1c ./drivers/fsl_clock.o
 .text.CLOCK_IsUsb1PfdEnabled
                0x00000000       0x1c ./drivers/fsl_clock.o
 .rodata.CLOCK_GetClockRootFreq.str1.1
                0x00000000       0x23 ./drivers/fsl_clock.o
 .text.CLOCK_GetClockRootFreq
                0x00000000       0xac ./drivers/fsl_clock.o
 .text.CLOCK_EnableUsbhs1PhyPllClock
                0x00000000       0x34 ./drivers/fsl_clock.o
 .text.CLOCK_DisableUsbhs1PhyPllClock
                0x00000000       0x1c ./drivers/fsl_clock.o
 .text.CLOCK_SetClockOutput1
                0x00000000       0x34 ./drivers/fsl_clock.o
 .text.CLOCK_SetClockOutput2
                0x00000000       0x30 ./drivers/fsl_clock.o
 .text.CLOCK_GetClockOutCLKO1Freq
                0x00000000       0x8c ./drivers/fsl_clock.o
 .text.CLOCK_GetClockOutClkO2Freq
                0x00000000       0x80 ./drivers/fsl_clock.o
 .bss.g_rtcXtalFreq
                0x00000000        0x4 ./drivers/fsl_clock.o
 .rodata.__func__.4
                0x00000000       0x17 ./drivers/fsl_clock.o
 .rodata.__func__.8
                0x00000000       0x16 ./drivers/fsl_clock.o
 .rodata.clockRootDivTupleArray.6
                0x00000000       0x80 ./drivers/fsl_clock.o
 .rodata.clockRootMuxTupleArray.7
                0x00000000       0x40 ./drivers/fsl_clock.o
 .rodata.clockRootSourceArray.5
                0x00000000       0x60 ./drivers/fsl_clock.o
 .rodata.g_ccmConfigUsbPll.0
                0x00000000        0x2 ./drivers/fsl_clock.o
 .rodata.g_ccmConfigUsbPll.3
                0x00000000        0x2 ./drivers/fsl_clock.o
 .text          0x00000000        0x0 ./drivers/fsl_common.o
 .data          0x00000000        0x0 ./drivers/fsl_common.o
 .bss           0x00000000        0x0 ./drivers/fsl_common.o
 .text.SDK_Malloc
                0x00000000       0x42 ./drivers/fsl_common.o
 .text.SDK_Free
                0x00000000       0x18 ./drivers/fsl_common.o
 .debug_info    0x00000000      0x249 ./drivers/fsl_common.o
 .debug_abbrev  0x00000000      0x148 ./drivers/fsl_common.o
 .debug_loc     0x00000000      0x1f2 ./drivers/fsl_common.o
 .debug_aranges
                0x00000000       0x28 ./drivers/fsl_common.o
 .debug_ranges  0x00000000       0x18 ./drivers/fsl_common.o
 .debug_line    0x00000000      0x219 ./drivers/fsl_common.o
 .debug_str     0x00000000      0x2af ./drivers/fsl_common.o
 .comment       0x00000000       0x4a ./drivers/fsl_common.o
 .debug_frame   0x00000000       0x3c ./drivers/fsl_common.o
 .ARM.attributes
                0x00000000       0x32 ./drivers/fsl_common.o
 .text          0x00000000        0x0 ./drivers/fsl_common_arm.o
 .data          0x00000000        0x0 ./drivers/fsl_common_arm.o
 .bss           0x00000000        0x0 ./drivers/fsl_common_arm.o
 .rodata.SDK_DelayAtLeastUs.str1.1
                0x00000000       0x25 ./drivers/fsl_common_arm.o
 .text.SDK_DelayAtLeastUs
                0x00000000       0x4c ./drivers/fsl_common_arm.o
 .rodata.__func__.0
                0x00000000       0x13 ./drivers/fsl_common_arm.o
 .debug_info    0x00000000      0x188 ./drivers/fsl_common_arm.o
 .debug_abbrev  0x00000000      0x121 ./drivers/fsl_common_arm.o
 .debug_loc     0x00000000       0x4a ./drivers/fsl_common_arm.o
 .debug_aranges
                0x00000000       0x20 ./drivers/fsl_common_arm.o
 .debug_ranges  0x00000000       0x28 ./drivers/fsl_common_arm.o
 .debug_line    0x00000000      0x1c0 ./drivers/fsl_common_arm.o
 .debug_str     0x00000000      0x254 ./drivers/fsl_common_arm.o
 .comment       0x00000000       0x4a ./drivers/fsl_common_arm.o
 .debug_frame   0x00000000       0x28 ./drivers/fsl_common_arm.o
 .ARM.attributes
                0x00000000       0x32 ./drivers/fsl_common_arm.o
 .text          0x00000000        0x0 ./drivers/fsl_gpio.o
 .data          0x00000000        0x0 ./drivers/fsl_gpio.o
 .bss           0x00000000        0x0 ./drivers/fsl_gpio.o
 .text          0x00000000        0x0 ./drivers/fsl_lpspi.o
 .data          0x00000000        0x0 ./drivers/fsl_lpspi.o
 .bss           0x00000000        0x0 ./drivers/fsl_lpspi.o
 .rodata.LPSPI_MasterTransferFillUpTxFifo.str1.1
                0x00000000        0xf ./drivers/fsl_lpspi.o
 .text.LPSPI_MasterTransferFillUpTxFifo
                0x00000000       0xb0 ./drivers/fsl_lpspi.o
 .text.LPSPI_SlaveTransferFillUpTxFifo
                0x00000000       0x68 ./drivers/fsl_lpspi.o
 .text.LPSPI_MasterTransferComplete
                0x00000000       0x40 ./drivers/fsl_lpspi.o
 .text.LPSPI_MasterTransferHandleIRQ
                0x00000000      0x160 ./drivers/fsl_lpspi.o
 .text.LPSPI_SlaveTransferComplete
                0x00000000       0x50 ./drivers/fsl_lpspi.o
 .text.LPSPI_SlaveTransferHandleIRQ
                0x00000000      0x13c ./drivers/fsl_lpspi.o
 .text.EnableIRQ.isra.0
                0x00000000       0x1c ./drivers/fsl_lpspi.o
 .text.LPSPI_MasterGetDefaultConfig
                0x00000000       0x48 ./drivers/fsl_lpspi.o
 .rodata.LPSPI_SlaveInit.str1.1
                0x00000000       0x14 ./drivers/fsl_lpspi.o
 .text.LPSPI_SlaveInit
                0x00000000       0xac ./drivers/fsl_lpspi.o
 .text.LPSPI_SlaveGetDefaultConfig
                0x00000000       0x38 ./drivers/fsl_lpspi.o
 .text.LPSPI_Reset
                0x00000000       0x16 ./drivers/fsl_lpspi.o
 .text.LPSPI_Deinit
                0x00000000       0x20 ./drivers/fsl_lpspi.o
 .text.LPSPI_MasterTransferCreateHandle
                0x00000000       0x54 ./drivers/fsl_lpspi.o
 .text.LPSPI_MasterTransferNonBlocking
                0x00000000      0x260 ./drivers/fsl_lpspi.o
 .text.LPSPI_MasterTransferGetCount
                0x00000000       0x48 ./drivers/fsl_lpspi.o
 .text.LPSPI_MasterTransferAbort
                0x00000000       0x3c ./drivers/fsl_lpspi.o
 .text.LPSPI_SlaveTransferCreateHandle
                0x00000000       0x54 ./drivers/fsl_lpspi.o
 .text.LPSPI_SlaveTransferNonBlocking
                0x00000000      0x1b0 ./drivers/fsl_lpspi.o
 .text.LPSPI_SlaveTransferGetCount
                0x00000000       0x48 ./drivers/fsl_lpspi.o
 .text.LPSPI_SlaveTransferAbort
                0x00000000       0x38 ./drivers/fsl_lpspi.o
 .rodata.__func__.10
                0x00000000       0x20 ./drivers/fsl_lpspi.o
 .rodata.__func__.11
                0x00000000       0x1d ./drivers/fsl_lpspi.o
 .rodata.__func__.12
                0x00000000       0x1e ./drivers/fsl_lpspi.o
 .rodata.__func__.13
                0x00000000       0x1a ./drivers/fsl_lpspi.o
 .rodata.__func__.14
                0x00000000       0x1d ./drivers/fsl_lpspi.o
 .rodata.__func__.15
                0x00000000       0x21 ./drivers/fsl_lpspi.o
 .rodata.__func__.16
                0x00000000       0x20 ./drivers/fsl_lpspi.o
 .rodata.__func__.21
                0x00000000       0x21 ./drivers/fsl_lpspi.o
 .rodata.__func__.24
                0x00000000       0x1c ./drivers/fsl_lpspi.o
 .rodata.__func__.25
                0x00000000       0x10 ./drivers/fsl_lpspi.o
 .rodata.__func__.26
                0x00000000       0x1d ./drivers/fsl_lpspi.o
 .rodata.__func__.4
                0x00000000       0x1c ./drivers/fsl_lpspi.o
 .rodata.__func__.5
                0x00000000       0x1d ./drivers/fsl_lpspi.o
 .rodata.__func__.6
                0x00000000       0x19 ./drivers/fsl_lpspi.o
 .rodata.__func__.7
                0x00000000       0x1c ./drivers/fsl_lpspi.o
 .rodata.__func__.8
                0x00000000       0x20 ./drivers/fsl_lpspi.o
 .rodata.__func__.9
                0x00000000       0x1f ./drivers/fsl_lpspi.o
 .rodata.s_lpspiIRQ
                0x00000000        0xa ./drivers/fsl_lpspi.o
 .text          0x00000000        0x0 ./drivers/fsl_lpuart.o
 .data          0x00000000        0x0 ./drivers/fsl_lpuart.o
 .bss           0x00000000        0x0 ./drivers/fsl_lpuart.o
 .text.LPUART_ReadNonBlocking
                0x00000000       0x48 ./drivers/fsl_lpuart.o
 .rodata.LPUART_TransferGetRxRingBufferLength.str1.1
                0x00000000        0xf ./drivers/fsl_lpuart.o
 .text.LPUART_TransferGetRxRingBufferLength
                0x00000000       0x30 ./drivers/fsl_lpuart.o
 .text.LPUART_TransferIsRxRingBufferFull
                0x00000000       0x30 ./drivers/fsl_lpuart.o
 .rodata.LPUART_SetBaudRate.str1.1
                0x00000000       0x12 ./drivers/fsl_lpuart.o
 .text.LPUART_SetBaudRate
                0x00000000       0xbc ./drivers/fsl_lpuart.o
 .rodata.LPUART_Enable9bitMode.str1.1
                0x00000000        0xd ./drivers/fsl_lpuart.o
 .text.LPUART_Enable9bitMode
                0x00000000       0x44 ./drivers/fsl_lpuart.o
 .text.LPUART_SendAddress
                0x00000000       0x34 ./drivers/fsl_lpuart.o
 .text.LPUART_DisableInterrupts
                0x00000000       0x38 ./drivers/fsl_lpuart.o
 .text.LPUART_GetEnabledInterrupts
                0x00000000       0x2c ./drivers/fsl_lpuart.o
 .rodata.LPUART_TransferHandleIRQ.str1.1
                0x00000000       0x12 ./drivers/fsl_lpuart.o
 .text.LPUART_TransferHandleIRQ
                0x00000000      0x2d4 ./drivers/fsl_lpuart.o
 .text.LPUART_ClearStatusFlags
                0x00000000       0x3c ./drivers/fsl_lpuart.o
 .text.LPUART_ReadBlocking
                0x00000000       0xe0 ./drivers/fsl_lpuart.o
 .text.LPUART_TransferCreateHandle
                0x00000000       0xa0 ./drivers/fsl_lpuart.o
 .rodata.LPUART_TransferStartRingBuffer.str1.1
                0x00000000       0x13 ./drivers/fsl_lpuart.o
 .text.LPUART_TransferStartRingBuffer
                0x00000000       0x4c ./drivers/fsl_lpuart.o
 .text.LPUART_TransferStopRingBuffer
                0x00000000       0x44 ./drivers/fsl_lpuart.o
 .rodata.LPUART_TransferSendNonBlocking.str1.1
                0x00000000       0x37 ./drivers/fsl_lpuart.o
 .text.LPUART_TransferSendNonBlocking
                0x00000000       0x84 ./drivers/fsl_lpuart.o
 .text.LPUART_TransferAbortSend
                0x00000000       0x3c ./drivers/fsl_lpuart.o
 .rodata.LPUART_TransferGetSendCount.str1.1
                0x00000000        0xe ./drivers/fsl_lpuart.o
 .text.LPUART_TransferGetSendCount
                0x00000000       0x4c ./drivers/fsl_lpuart.o
 .rodata.LPUART_TransferReceiveNonBlocking.str1.1
                0x00000000       0x15 ./drivers/fsl_lpuart.o
 .text.LPUART_TransferReceiveNonBlocking
                0x00000000      0x134 ./drivers/fsl_lpuart.o
 .text.LPUART_TransferAbortReceive
                0x00000000       0x40 ./drivers/fsl_lpuart.o
 .text.LPUART_TransferGetReceiveCount
                0x00000000       0x48 ./drivers/fsl_lpuart.o
 .text.LPUART_TransferHandleErrorIRQ
                0x00000000        0x2 ./drivers/fsl_lpuart.o
 .rodata.__func__.0
                0x00000000       0x18 ./drivers/fsl_lpuart.o
 .rodata.__func__.1
                0x00000000       0x22 ./drivers/fsl_lpuart.o
 .rodata.__func__.10
                0x00000000       0x1e ./drivers/fsl_lpuart.o
 .rodata.__func__.11
                0x00000000       0x1f ./drivers/fsl_lpuart.o
 .rodata.__func__.12
                0x00000000       0x1c ./drivers/fsl_lpuart.o
 .rodata.__func__.13
                0x00000000       0x14 ./drivers/fsl_lpuart.o
 .rodata.__func__.15
                0x00000000       0x13 ./drivers/fsl_lpuart.o
 .rodata.__func__.16
                0x00000000       0x16 ./drivers/fsl_lpuart.o
 .rodata.__func__.17
                0x00000000       0x13 ./drivers/fsl_lpuart.o
 .rodata.__func__.2
                0x00000000       0x17 ./drivers/fsl_lpuart.o
 .rodata.__func__.21
                0x00000000       0x25 ./drivers/fsl_lpuart.o
 .rodata.__func__.3
                0x00000000       0x19 ./drivers/fsl_lpuart.o
 .rodata.__func__.4
                0x00000000       0x1f ./drivers/fsl_lpuart.o
 .rodata.__func__.5
                0x00000000       0x1c ./drivers/fsl_lpuart.o
 .rodata.__func__.6
                0x00000000       0x22 ./drivers/fsl_lpuart.o
 .rodata.__func__.7
                0x00000000       0x1c ./drivers/fsl_lpuart.o
 .rodata.__func__.8
                0x00000000       0x19 ./drivers/fsl_lpuart.o
 .rodata.__func__.9
                0x00000000       0x1f ./drivers/fsl_lpuart.o
 .rodata.s_lpuartIRQ
                0x00000000       0x12 ./drivers/fsl_lpuart.o
 .text          0x00000000        0x0 ./device/system_MIMXRT1052.o
 .data          0x00000000        0x0 ./device/system_MIMXRT1052.o
 .bss           0x00000000        0x0 ./device/system_MIMXRT1052.o
 .text.SystemCoreClockUpdate
                0x00000000        0x2 ./device/system_MIMXRT1052.o
 .text.SystemInitHook
                0x00000000        0x2 ./device/system_MIMXRT1052.o
 .text          0x00000000        0x0 ./component/osa/fsl_os_abstraction_bm.o
 .data          0x00000000        0x0 ./component/osa/fsl_os_abstraction_bm.o
 .bss           0x00000000        0x0 ./component/osa/fsl_os_abstraction_bm.o
 .text.main_task
                0x00000000        0x2 ./component/osa/fsl_os_abstraction_bm.o
 .text.OSA_MemoryAllocate
                0x00000000       0x1a ./component/osa/fsl_os_abstraction_bm.o
 .text.OSA_MemoryFree
                0x00000000        0x4 ./component/osa/fsl_os_abstraction_bm.o
 .text.OSA_EnableIRQGlobal
                0x00000000       0x1c ./component/osa/fsl_os_abstraction_bm.o
 .text.OSA_DisableIRQGlobal
                0x00000000       0x1c ./component/osa/fsl_os_abstraction_bm.o
 .text.OSA_TimeInit
                0x00000000        0x2 ./component/osa/fsl_os_abstraction_bm.o
 .text.OSA_TimeDiff
                0x00000000        0x4 ./component/osa/fsl_os_abstraction_bm.o
 .text.OSA_TimeDelay
                0x00000000        0x2 ./component/osa/fsl_os_abstraction_bm.o
 .text.OSA_TimeGetMsec
                0x00000000        0x4 ./component/osa/fsl_os_abstraction_bm.o
 .rodata.OSA_SemaphoreCreate.str1.1
                0x00000000       0x28 ./component/osa/fsl_os_abstraction_bm.o
 .text.OSA_SemaphoreCreate
                0x00000000       0x2c ./component/osa/fsl_os_abstraction_bm.o
 .text.OSA_SemaphoreCreateBinary
                0x00000000       0x2c ./component/osa/fsl_os_abstraction_bm.o
 .text.OSA_SemaphoreDestroy
                0x00000000       0x2c ./component/osa/fsl_os_abstraction_bm.o
 .text.OSA_SemaphoreWait
                0x00000000       0x54 ./component/osa/fsl_os_abstraction_bm.o
 .text.OSA_SemaphorePost
                0x00000000       0x58 ./component/osa/fsl_os_abstraction_bm.o
 .rodata.OSA_MutexCreate.str1.1
                0x00000000        0xc ./component/osa/fsl_os_abstraction_bm.o
 .text.OSA_MutexCreate
                0x00000000       0x28 ./component/osa/fsl_os_abstraction_bm.o
 .text.OSA_MutexLock
                0x00000000       0x34 ./component/osa/fsl_os_abstraction_bm.o
 .text.OSA_MutexUnlock
                0x00000000       0x38 ./component/osa/fsl_os_abstraction_bm.o
 .text.OSA_MutexDestroy
                0x00000000       0x2c ./component/osa/fsl_os_abstraction_bm.o
 .rodata.OSA_EventCreate.str1.1
                0x00000000        0xc ./component/osa/fsl_os_abstraction_bm.o
 .text.OSA_EventCreate
                0x00000000       0x30 ./component/osa/fsl_os_abstraction_bm.o
 .text.OSA_EventSet
                0x00000000       0x1e ./component/osa/fsl_os_abstraction_bm.o
 .text.OSA_EventClear
                0x00000000       0x22 ./component/osa/fsl_os_abstraction_bm.o
 .text.OSA_EventGet
                0x00000000       0x24 ./component/osa/fsl_os_abstraction_bm.o
 .text.OSA_EventWait
                0x00000000       0x50 ./component/osa/fsl_os_abstraction_bm.o
 .text.OSA_EventDestroy
                0x00000000       0x2c ./component/osa/fsl_os_abstraction_bm.o
 .rodata.OSA_MsgQCreate.str1.1
                0x00000000        0xb ./component/osa/fsl_os_abstraction_bm.o
 .text.OSA_MsgQCreate
                0x00000000       0x34 ./component/osa/fsl_os_abstraction_bm.o
 .text.OSA_MsgQPut
                0x00000000       0x7c ./component/osa/fsl_os_abstraction_bm.o
 .text.OSA_MsgQGet
                0x00000000       0x80 ./component/osa/fsl_os_abstraction_bm.o
 .text.OSA_MsgQAvailableMsgs
                0x00000000       0x24 ./component/osa/fsl_os_abstraction_bm.o
 .text.OSA_MsgQDestroy
                0x00000000       0x2c ./component/osa/fsl_os_abstraction_bm.o
 .text.OSA_InterruptEnable
                0x00000000        0x4 ./component/osa/fsl_os_abstraction_bm.o
 .text.OSA_InterruptDisable
                0x00000000        0x4 ./component/osa/fsl_os_abstraction_bm.o
 .text.OSA_InstallIntHandler
                0x00000000        0x2 ./component/osa/fsl_os_abstraction_bm.o
 .bss.s_osaState
                0x00000000        0xc ./component/osa/fsl_os_abstraction_bm.o
 .rodata.__func__.0
                0x00000000       0x10 ./component/osa/fsl_os_abstraction_bm.o
 .rodata.__func__.1
                0x00000000       0x16 ./component/osa/fsl_os_abstraction_bm.o
 .rodata.__func__.10
                0x00000000       0x12 ./component/osa/fsl_os_abstraction_bm.o
 .rodata.__func__.11
                0x00000000       0x12 ./component/osa/fsl_os_abstraction_bm.o
 .rodata.__func__.12
                0x00000000       0x15 ./component/osa/fsl_os_abstraction_bm.o
 .rodata.__func__.13
                0x00000000       0x1a ./component/osa/fsl_os_abstraction_bm.o
 .rodata.__func__.14
                0x00000000       0x14 ./component/osa/fsl_os_abstraction_bm.o
 .rodata.__func__.2
                0x00000000        0xc ./component/osa/fsl_os_abstraction_bm.o
 .rodata.__func__.3
                0x00000000        0xc ./component/osa/fsl_os_abstraction_bm.o
 .rodata.__func__.4
                0x00000000        0xf ./component/osa/fsl_os_abstraction_bm.o
 .rodata.__func__.5
                0x00000000       0x11 ./component/osa/fsl_os_abstraction_bm.o
 .rodata.__func__.6
                0x00000000       0x10 ./component/osa/fsl_os_abstraction_bm.o
 .rodata.__func__.7
                0x00000000       0x11 ./component/osa/fsl_os_abstraction_bm.o
 .rodata.__func__.8
                0x00000000       0x10 ./component/osa/fsl_os_abstraction_bm.o
 .rodata.__func__.9
                0x00000000       0x10 ./component/osa/fsl_os_abstraction_bm.o
 .rodata.gUseRtos_c
                0x00000000        0x1 ./component/osa/fsl_os_abstraction_bm.o
 .text          0x00000000        0x0 ./component/lists/fsl_component_generic_list.o
 .data          0x00000000        0x0 ./component/lists/fsl_component_generic_list.o
 .bss           0x00000000        0x0 ./component/lists/fsl_component_generic_list.o
 .text.LIST_Init
                0x00000000        0xc ./component/lists/fsl_component_generic_list.o
 .text.LIST_GetList
                0x00000000        0x4 ./component/lists/fsl_component_generic_list.o
 .text.LIST_AddTail
                0x00000000       0x36 ./component/lists/fsl_component_generic_list.o
 .text.LIST_AddHead
                0x00000000       0x30 ./component/lists/fsl_component_generic_list.o
 .text.LIST_RemoveHead
                0x00000000       0x2a ./component/lists/fsl_component_generic_list.o
 .text.LIST_GetHead
                0x00000000        0x4 ./component/lists/fsl_component_generic_list.o
 .text.LIST_GetNext
                0x00000000        0x4 ./component/lists/fsl_component_generic_list.o
 .text.LIST_GetPrev
                0x00000000        0x4 ./component/lists/fsl_component_generic_list.o
 .text.LIST_RemoveElement
                0x00000000       0x40 ./component/lists/fsl_component_generic_list.o
 .text.LIST_AddPrevElement
                0x00000000       0x52 ./component/lists/fsl_component_generic_list.o
 .text.LIST_GetSize
                0x00000000        0x4 ./component/lists/fsl_component_generic_list.o
 .text.LIST_GetAvailableSize
                0x00000000        0x8 ./component/lists/fsl_component_generic_list.o
 .debug_info    0x00000000      0x9b5 ./component/lists/fsl_component_generic_list.o
 .debug_abbrev  0x00000000      0x2d9 ./component/lists/fsl_component_generic_list.o
 .debug_loc     0x00000000      0x6d4 ./component/lists/fsl_component_generic_list.o
 .debug_aranges
                0x00000000       0x78 ./component/lists/fsl_component_generic_list.o
 .debug_ranges  0x00000000      0x218 ./component/lists/fsl_component_generic_list.o
 .debug_line    0x00000000      0x78c ./component/lists/fsl_component_generic_list.o
 .debug_str     0x00000000      0x423 ./component/lists/fsl_component_generic_list.o
 .comment       0x00000000       0x4a ./component/lists/fsl_component_generic_list.o
 .debug_frame   0x00000000       0xf8 ./component/lists/fsl_component_generic_list.o
 .ARM.attributes
                0x00000000       0x32 ./component/lists/fsl_component_generic_list.o
 .text          0x00000000        0x0 ./board/pin_mux.o
 .data          0x00000000        0x0 ./board/pin_mux.o
 .bss           0x00000000        0x0 ./board/pin_mux.o
 .text.BOARD_InitBootPins
                0x00000000        0x2 ./board/pin_mux.o
 .text          0x00000000        0x0 ./MIMXRT1052/bl_clock_config_MIMXRT1052.o
 .data          0x00000000        0x0 ./MIMXRT1052/bl_clock_config_MIMXRT1052.o
 .bss           0x00000000        0x0 ./MIMXRT1052/bl_clock_config_MIMXRT1052.o
 .text.semc_get_clock
                0x00000000       0x58 ./MIMXRT1052/bl_clock_config_MIMXRT1052.o
 .text          0x00000000        0x0 ./MIMXRT1052/bl_lpuart_irq_config_MIMXRT1052.o
 .data          0x00000000        0x0 ./MIMXRT1052/bl_lpuart_irq_config_MIMXRT1052.o
 .bss           0x00000000        0x0 ./MIMXRT1052/bl_lpuart_irq_config_MIMXRT1052.o
 .text          0x00000000        0x0 ./MIMXRT1052/bl_peripherals_MIMXRT1052.o
 .data          0x00000000        0x0 ./MIMXRT1052/bl_peripherals_MIMXRT1052.o
 .bss           0x00000000        0x0 ./MIMXRT1052/bl_peripherals_MIMXRT1052.o
 .text          0x00000000        0x0 ./MIMXRT1052/external_memory_property_map_MIMXRT1052.o
 .data          0x00000000        0x0 ./MIMXRT1052/external_memory_property_map_MIMXRT1052.o
 .bss           0x00000000        0x0 ./MIMXRT1052/external_memory_property_map_MIMXRT1052.o
 .text          0x00000000        0x0 ./MIMXRT1052/flexspi_nand_config_MIMXRT1052.o
 .data          0x00000000        0x0 ./MIMXRT1052/flexspi_nand_config_MIMXRT1052.o
 .bss           0x00000000        0x0 ./MIMXRT1052/flexspi_nand_config_MIMXRT1052.o
 .text          0x00000000        0x0 ./MIMXRT1052/flexspi_nor_config_MIMXRT1052.o
 .data          0x00000000        0x0 ./MIMXRT1052/flexspi_nor_config_MIMXRT1052.o
 .bss           0x00000000        0x0 ./MIMXRT1052/flexspi_nor_config_MIMXRT1052.o
 .text.flexspi_nor_get_default_cfg_blk
                0x00000000       0xf4 ./MIMXRT1052/flexspi_nor_config_MIMXRT1052.o
 .rodata.s_dedicated3bRead
                0x00000000       0x10 ./MIMXRT1052/flexspi_nor_config_MIMXRT1052.o
 .rodata.s_dedicated4bRead
                0x00000000       0x10 ./MIMXRT1052/flexspi_nor_config_MIMXRT1052.o
 .rodata.s_hyperflashRead
                0x00000000       0x10 ./MIMXRT1052/flexspi_nor_config_MIMXRT1052.o
 .rodata.s_mxicOctDdrRead
                0x00000000       0x10 ./MIMXRT1052/flexspi_nor_config_MIMXRT1052.o
 .debug_info    0x00000000      0xb51 ./MIMXRT1052/flexspi_nor_config_MIMXRT1052.o
 .debug_abbrev  0x00000000      0x1e3 ./MIMXRT1052/flexspi_nor_config_MIMXRT1052.o
 .debug_loc     0x00000000       0x72 ./MIMXRT1052/flexspi_nor_config_MIMXRT1052.o
 .debug_aranges
                0x00000000       0x20 ./MIMXRT1052/flexspi_nor_config_MIMXRT1052.o
 .debug_ranges  0x00000000       0x10 ./MIMXRT1052/flexspi_nor_config_MIMXRT1052.o
 .debug_line    0x00000000      0x4c9 ./MIMXRT1052/flexspi_nor_config_MIMXRT1052.o
 .debug_str     0x00000000     0x15fc ./MIMXRT1052/flexspi_nor_config_MIMXRT1052.o
 .comment       0x00000000       0x4a ./MIMXRT1052/flexspi_nor_config_MIMXRT1052.o
 .debug_frame   0x00000000       0x2c ./MIMXRT1052/flexspi_nor_config_MIMXRT1052.o
 .ARM.attributes
                0x00000000       0x32 ./MIMXRT1052/flexspi_nor_config_MIMXRT1052.o
 .text          0x00000000        0x0 ./MIMXRT1052/hardware_init_MIMXRT1052.o
 .data          0x00000000        0x0 ./MIMXRT1052/hardware_init_MIMXRT1052.o
 .bss           0x00000000        0x0 ./MIMXRT1052/hardware_init_MIMXRT1052.o
 .text.dummy_byte_callback
                0x00000000        0x2 ./MIMXRT1052/hardware_init_MIMXRT1052.o
 .text.debug_init
                0x00000000        0x2 ./MIMXRT1052/hardware_init_MIMXRT1052.o
 .text          0x00000000        0x0 ./MIMXRT1052/memory_map_MIMXRT1052.o
 .data          0x00000000        0x0 ./MIMXRT1052/memory_map_MIMXRT1052.o
 .bss           0x00000000        0x0 ./MIMXRT1052/memory_map_MIMXRT1052.o
 .text          0x00000000        0x0 ./MIMXRT1052/pinmux_utility_imxrt_series.o
 .data          0x00000000        0x0 ./MIMXRT1052/pinmux_utility_imxrt_series.o
 .bss           0x00000000        0x0 ./MIMXRT1052/pinmux_utility_imxrt_series.o
 .text          0x00000000        0x0 ./MIMXRT1052/sdmmc_config_MIMXRT1052.o
 .data          0x00000000        0x0 ./MIMXRT1052/sdmmc_config_MIMXRT1052.o
 .bss           0x00000000        0x0 ./MIMXRT1052/sdmmc_config_MIMXRT1052.o
 .rodata.usdhc_vselect_pin_settings
                0x00000000        0x4 ./MIMXRT1052/sdmmc_config_MIMXRT1052.o
 .text          0x00000000        0x0 ./MIMXRT1052/semc_nand_config_MIMXRT1052.o
 .data          0x00000000        0x0 ./MIMXRT1052/semc_nand_config_MIMXRT1052.o
 .bss           0x00000000        0x0 ./MIMXRT1052/semc_nand_config_MIMXRT1052.o
 .text          0x00000000        0x0 ./MIMXRT1052/semc_nor_config_MIMXRT1052.o
 .data          0x00000000        0x0 ./MIMXRT1052/semc_nor_config_MIMXRT1052.o
 .bss           0x00000000        0x0 ./MIMXRT1052/semc_nor_config_MIMXRT1052.o
 .text          0x00000000       0xa0 c:/nxp/mcuxpressoide_11.6.1_8255/ide/plugins/com.nxp.mcuxpresso.tools.win32_11.6.1.202207200623/tools/bin/../lib/gcc/arm-none-eabi/10.3.1/thumb/v7e-m+dp/hard\libgcc.a(_aeabi_ldivmod.o)
 .data          0x00000000        0x0 c:/nxp/mcuxpressoide_11.6.1_8255/ide/plugins/com.nxp.mcuxpresso.tools.win32_11.6.1.202207200623/tools/bin/../lib/gcc/arm-none-eabi/10.3.1/thumb/v7e-m+dp/hard\libgcc.a(_aeabi_ldivmod.o)
 .bss           0x00000000        0x0 c:/nxp/mcuxpressoide_11.6.1_8255/ide/plugins/com.nxp.mcuxpresso.tools.win32_11.6.1.202207200623/tools/bin/../lib/gcc/arm-none-eabi/10.3.1/thumb/v7e-m+dp/hard\libgcc.a(_aeabi_ldivmod.o)
 .debug_frame   0x00000000       0x44 c:/nxp/mcuxpressoide_11.6.1_8255/ide/plugins/com.nxp.mcuxpresso.tools.win32_11.6.1.202207200623/tools/bin/../lib/gcc/arm-none-eabi/10.3.1/thumb/v7e-m+dp/hard\libgcc.a(_aeabi_ldivmod.o)
 .ARM.attributes
                0x00000000       0x1e c:/nxp/mcuxpressoide_11.6.1_8255/ide/plugins/com.nxp.mcuxpresso.tools.win32_11.6.1.202207200623/tools/bin/../lib/gcc/arm-none-eabi/10.3.1/thumb/v7e-m+dp/hard\libgcc.a(_aeabi_ldivmod.o)
 .data          0x00000000        0x0 c:/nxp/mcuxpressoide_11.6.1_8255/ide/plugins/com.nxp.mcuxpresso.tools.win32_11.6.1.202207200623/tools/bin/../lib/gcc/arm-none-eabi/10.3.1/thumb/v7e-m+dp/hard\libgcc.a(_aeabi_uldivmod.o)
 .bss           0x00000000        0x0 c:/nxp/mcuxpressoide_11.6.1_8255/ide/plugins/com.nxp.mcuxpresso.tools.win32_11.6.1.202207200623/tools/bin/../lib/gcc/arm-none-eabi/10.3.1/thumb/v7e-m+dp/hard\libgcc.a(_aeabi_uldivmod.o)
 .data          0x00000000        0x0 c:/nxp/mcuxpressoide_11.6.1_8255/ide/plugins/com.nxp.mcuxpresso.tools.win32_11.6.1.202207200623/tools/bin/../lib/gcc/arm-none-eabi/10.3.1/thumb/v7e-m+dp/hard\libgcc.a(_udivmoddi4.o)
 .bss           0x00000000        0x0 c:/nxp/mcuxpressoide_11.6.1_8255/ide/plugins/com.nxp.mcuxpresso.tools.win32_11.6.1.202207200623/tools/bin/../lib/gcc/arm-none-eabi/10.3.1/thumb/v7e-m+dp/hard\libgcc.a(_udivmoddi4.o)
 .ARM.extab     0x00000000        0x0 c:/nxp/mcuxpressoide_11.6.1_8255/ide/plugins/com.nxp.mcuxpresso.tools.win32_11.6.1.202207200623/tools/bin/../lib/gcc/arm-none-eabi/10.3.1/thumb/v7e-m+dp/hard\libgcc.a(_udivmoddi4.o)
 .data          0x00000000        0x0 c:/nxp/mcuxpressoide_11.6.1_8255/ide/plugins/com.nxp.mcuxpresso.tools.win32_11.6.1.202207200623/tools/bin/../lib/gcc/arm-none-eabi/10.3.1/thumb/v7e-m+dp/hard\libgcc.a(_dvmd_tls.o)
 .bss           0x00000000        0x0 c:/nxp/mcuxpressoide_11.6.1_8255/ide/plugins/com.nxp.mcuxpresso.tools.win32_11.6.1.202207200623/tools/bin/../lib/gcc/arm-none-eabi/10.3.1/thumb/v7e-m+dp/hard\libgcc.a(_dvmd_tls.o)
 .text          0x00000000        0x0 c:/nxp/mcuxpressoide_11.6.1_8255/ide/plugins/com.nxp.mcuxpresso.tools.win32_11.6.1.202207200623/tools/bin/../lib/gcc/arm-none-eabi/10.3.1/../../../../arm-none-eabi/lib/thumb/v7e-m+dp/hard\libc_nano.a(lib_a-assert.o)
 .data          0x00000000        0x0 c:/nxp/mcuxpressoide_11.6.1_8255/ide/plugins/com.nxp.mcuxpresso.tools.win32_11.6.1.202207200623/tools/bin/../lib/gcc/arm-none-eabi/10.3.1/../../../../arm-none-eabi/lib/thumb/v7e-m+dp/hard\libc_nano.a(lib_a-assert.o)
 .bss           0x00000000        0x0 c:/nxp/mcuxpressoide_11.6.1_8255/ide/plugins/com.nxp.mcuxpresso.tools.win32_11.6.1.202207200623/tools/bin/../lib/gcc/arm-none-eabi/10.3.1/../../../../arm-none-eabi/lib/thumb/v7e-m+dp/hard\libc_nano.a(lib_a-assert.o)
 .text.__assert
                0x00000000        0xa c:/nxp/mcuxpressoide_11.6.1_8255/ide/plugins/com.nxp.mcuxpresso.tools.win32_11.6.1.202207200623/tools/bin/../lib/gcc/arm-none-eabi/10.3.1/../../../../arm-none-eabi/lib/thumb/v7e-m+dp/hard\libc_nano.a(lib_a-assert.o)
 .text          0x00000000        0x0 c:/nxp/mcuxpressoide_11.6.1_8255/ide/plugins/com.nxp.mcuxpresso.tools.win32_11.6.1.202207200623/tools/bin/../lib/gcc/arm-none-eabi/10.3.1/../../../../arm-none-eabi/lib/thumb/v7e-m+dp/hard\libc_nano.a(lib_a-fprintf.o)
 .data          0x00000000        0x0 c:/nxp/mcuxpressoide_11.6.1_8255/ide/plugins/com.nxp.mcuxpresso.tools.win32_11.6.1.202207200623/tools/bin/../lib/gcc/arm-none-eabi/10.3.1/../../../../arm-none-eabi/lib/thumb/v7e-m+dp/hard\libc_nano.a(lib_a-fprintf.o)
 .bss           0x00000000        0x0 c:/nxp/mcuxpressoide_11.6.1_8255/ide/plugins/com.nxp.mcuxpresso.tools.win32_11.6.1.202207200623/tools/bin/../lib/gcc/arm-none-eabi/10.3.1/../../../../arm-none-eabi/lib/thumb/v7e-m+dp/hard\libc_nano.a(lib_a-fprintf.o)
 .text._fprintf_r
                0x00000000       0x1a c:/nxp/mcuxpressoide_11.6.1_8255/ide/plugins/com.nxp.mcuxpresso.tools.win32_11.6.1.202207200623/tools/bin/../lib/gcc/arm-none-eabi/10.3.1/../../../../arm-none-eabi/lib/thumb/v7e-m+dp/hard\libc_nano.a(lib_a-fprintf.o)
 .text          0x00000000        0x0 c:/nxp/mcuxpressoide_11.6.1_8255/ide/plugins/com.nxp.mcuxpresso.tools.win32_11.6.1.202207200623/tools/bin/../lib/gcc/arm-none-eabi/10.3.1/../../../../arm-none-eabi/lib/thumb/v7e-m+dp/hard\libc_nano.a(lib_a-impure.o)
 .data          0x00000000        0x0 c:/nxp/mcuxpressoide_11.6.1_8255/ide/plugins/com.nxp.mcuxpresso.tools.win32_11.6.1.202207200623/tools/bin/../lib/gcc/arm-none-eabi/10.3.1/../../../../arm-none-eabi/lib/thumb/v7e-m+dp/hard\libc_nano.a(lib_a-impure.o)
 .bss           0x00000000        0x0 c:/nxp/mcuxpressoide_11.6.1_8255/ide/plugins/com.nxp.mcuxpresso.tools.win32_11.6.1.202207200623/tools/bin/../lib/gcc/arm-none-eabi/10.3.1/../../../../arm-none-eabi/lib/thumb/v7e-m+dp/hard\libc_nano.a(lib_a-impure.o)
 .text          0x00000000        0x0 c:/nxp/mcuxpressoide_11.6.1_8255/ide/plugins/com.nxp.mcuxpresso.tools.win32_11.6.1.202207200623/tools/bin/../lib/gcc/arm-none-eabi/10.3.1/../../../../arm-none-eabi/lib/thumb/v7e-m+dp/hard\libc_nano.a(lib_a-malloc.o)
 .data          0x00000000        0x0 c:/nxp/mcuxpressoide_11.6.1_8255/ide/plugins/com.nxp.mcuxpresso.tools.win32_11.6.1.202207200623/tools/bin/../lib/gcc/arm-none-eabi/10.3.1/../../../../arm-none-eabi/lib/thumb/v7e-m+dp/hard\libc_nano.a(lib_a-malloc.o)
 .bss           0x00000000        0x0 c:/nxp/mcuxpressoide_11.6.1_8255/ide/plugins/com.nxp.mcuxpresso.tools.win32_11.6.1.202207200623/tools/bin/../lib/gcc/arm-none-eabi/10.3.1/../../../../arm-none-eabi/lib/thumb/v7e-m+dp/hard\libc_nano.a(lib_a-malloc.o)
 .text.malloc   0x00000000       0x10 c:/nxp/mcuxpressoide_11.6.1_8255/ide/plugins/com.nxp.mcuxpresso.tools.win32_11.6.1.202207200623/tools/bin/../lib/gcc/arm-none-eabi/10.3.1/../../../../arm-none-eabi/lib/thumb/v7e-m+dp/hard\libc_nano.a(lib_a-malloc.o)
 .text.free     0x00000000       0x10 c:/nxp/mcuxpressoide_11.6.1_8255/ide/plugins/com.nxp.mcuxpresso.tools.win32_11.6.1.202207200623/tools/bin/../lib/gcc/arm-none-eabi/10.3.1/../../../../arm-none-eabi/lib/thumb/v7e-m+dp/hard\libc_nano.a(lib_a-malloc.o)
 .debug_frame   0x00000000       0x30 c:/nxp/mcuxpressoide_11.6.1_8255/ide/plugins/com.nxp.mcuxpresso.tools.win32_11.6.1.202207200623/tools/bin/../lib/gcc/arm-none-eabi/10.3.1/../../../../arm-none-eabi/lib/thumb/v7e-m+dp/hard\libc_nano.a(lib_a-malloc.o)
 .ARM.attributes
                0x00000000       0x32 c:/nxp/mcuxpressoide_11.6.1_8255/ide/plugins/com.nxp.mcuxpresso.tools.win32_11.6.1.202207200623/tools/bin/../lib/gcc/arm-none-eabi/10.3.1/../../../../arm-none-eabi/lib/thumb/v7e-m+dp/hard\libc_nano.a(lib_a-malloc.o)
 .text          0x00000000        0x0 c:/nxp/mcuxpressoide_11.6.1_8255/ide/plugins/com.nxp.mcuxpresso.tools.win32_11.6.1.202207200623/tools/bin/../lib/gcc/arm-none-eabi/10.3.1/../../../../arm-none-eabi/lib/thumb/v7e-m+dp/hard\libc_nano.a(lib_a-memcmp.o)
 .data          0x00000000        0x0 c:/nxp/mcuxpressoide_11.6.1_8255/ide/plugins/com.nxp.mcuxpresso.tools.win32_11.6.1.202207200623/tools/bin/../lib/gcc/arm-none-eabi/10.3.1/../../../../arm-none-eabi/lib/thumb/v7e-m+dp/hard\libc_nano.a(lib_a-memcmp.o)
 .bss           0x00000000        0x0 c:/nxp/mcuxpressoide_11.6.1_8255/ide/plugins/com.nxp.mcuxpresso.tools.win32_11.6.1.202207200623/tools/bin/../lib/gcc/arm-none-eabi/10.3.1/../../../../arm-none-eabi/lib/thumb/v7e-m+dp/hard\libc_nano.a(lib_a-memcmp.o)
 .text          0x00000000        0x0 c:/nxp/mcuxpressoide_11.6.1_8255/ide/plugins/com.nxp.mcuxpresso.tools.win32_11.6.1.202207200623/tools/bin/../lib/gcc/arm-none-eabi/10.3.1/../../../../arm-none-eabi/lib/thumb/v7e-m+dp/hard\libc_nano.a(lib_a-memcpy-stub.o)
 .data          0x00000000        0x0 c:/nxp/mcuxpressoide_11.6.1_8255/ide/plugins/com.nxp.mcuxpresso.tools.win32_11.6.1.202207200623/tools/bin/../lib/gcc/arm-none-eabi/10.3.1/../../../../arm-none-eabi/lib/thumb/v7e-m+dp/hard\libc_nano.a(lib_a-memcpy-stub.o)
 .bss           0x00000000        0x0 c:/nxp/mcuxpressoide_11.6.1_8255/ide/plugins/com.nxp.mcuxpresso.tools.win32_11.6.1.202207200623/tools/bin/../lib/gcc/arm-none-eabi/10.3.1/../../../../arm-none-eabi/lib/thumb/v7e-m+dp/hard\libc_nano.a(lib_a-memcpy-stub.o)
 .text          0x00000000        0x0 c:/nxp/mcuxpressoide_11.6.1_8255/ide/plugins/com.nxp.mcuxpresso.tools.win32_11.6.1.202207200623/tools/bin/../lib/gcc/arm-none-eabi/10.3.1/../../../../arm-none-eabi/lib/thumb/v7e-m+dp/hard\libc_nano.a(lib_a-memset.o)
 .data          0x00000000        0x0 c:/nxp/mcuxpressoide_11.6.1_8255/ide/plugins/com.nxp.mcuxpresso.tools.win32_11.6.1.202207200623/tools/bin/../lib/gcc/arm-none-eabi/10.3.1/../../../../arm-none-eabi/lib/thumb/v7e-m+dp/hard\libc_nano.a(lib_a-memset.o)
 .bss           0x00000000        0x0 c:/nxp/mcuxpressoide_11.6.1_8255/ide/plugins/com.nxp.mcuxpresso.tools.win32_11.6.1.202207200623/tools/bin/../lib/gcc/arm-none-eabi/10.3.1/../../../../arm-none-eabi/lib/thumb/v7e-m+dp/hard\libc_nano.a(lib_a-memset.o)
 .text          0x00000000        0x0 c:/nxp/mcuxpressoide_11.6.1_8255/ide/plugins/com.nxp.mcuxpresso.tools.win32_11.6.1.202207200623/tools/bin/../lib/gcc/arm-none-eabi/10.3.1/../../../../arm-none-eabi/lib/thumb/v7e-m+dp/hard\libc_nano.a(lib_a-nano-freer.o)
 .data          0x00000000        0x0 c:/nxp/mcuxpressoide_11.6.1_8255/ide/plugins/com.nxp.mcuxpresso.tools.win32_11.6.1.202207200623/tools/bin/../lib/gcc/arm-none-eabi/10.3.1/../../../../arm-none-eabi/lib/thumb/v7e-m+dp/hard\libc_nano.a(lib_a-nano-freer.o)
 .bss           0x00000000        0x0 c:/nxp/mcuxpressoide_11.6.1_8255/ide/plugins/com.nxp.mcuxpresso.tools.win32_11.6.1.202207200623/tools/bin/../lib/gcc/arm-none-eabi/10.3.1/../../../../arm-none-eabi/lib/thumb/v7e-m+dp/hard\libc_nano.a(lib_a-nano-freer.o)
 .text          0x00000000        0x0 c:/nxp/mcuxpressoide_11.6.1_8255/ide/plugins/com.nxp.mcuxpresso.tools.win32_11.6.1.202207200623/tools/bin/../lib/gcc/arm-none-eabi/10.3.1/../../../../arm-none-eabi/lib/thumb/v7e-m+dp/hard\libc_nano.a(lib_a-nano-mallocr.o)
 .data          0x00000000        0x0 c:/nxp/mcuxpressoide_11.6.1_8255/ide/plugins/com.nxp.mcuxpresso.tools.win32_11.6.1.202207200623/tools/bin/../lib/gcc/arm-none-eabi/10.3.1/../../../../arm-none-eabi/lib/thumb/v7e-m+dp/hard\libc_nano.a(lib_a-nano-mallocr.o)
 .bss           0x00000000        0x0 c:/nxp/mcuxpressoide_11.6.1_8255/ide/plugins/com.nxp.mcuxpresso.tools.win32_11.6.1.202207200623/tools/bin/../lib/gcc/arm-none-eabi/10.3.1/../../../../arm-none-eabi/lib/thumb/v7e-m+dp/hard\libc_nano.a(lib_a-nano-mallocr.o)
 .text          0x00000000        0x0 c:/nxp/mcuxpressoide_11.6.1_8255/ide/plugins/com.nxp.mcuxpresso.tools.win32_11.6.1.202207200623/tools/bin/../lib/gcc/arm-none-eabi/10.3.1/../../../../arm-none-eabi/lib/thumb/v7e-m+dp/hard\libc_nano.a(lib_a-nano-vfprintf.o)
 .data          0x00000000        0x0 c:/nxp/mcuxpressoide_11.6.1_8255/ide/plugins/com.nxp.mcuxpresso.tools.win32_11.6.1.202207200623/tools/bin/../lib/gcc/arm-none-eabi/10.3.1/../../../../arm-none-eabi/lib/thumb/v7e-m+dp/hard\libc_nano.a(lib_a-nano-vfprintf.o)
 .bss           0x00000000        0x0 c:/nxp/mcuxpressoide_11.6.1_8255/ide/plugins/com.nxp.mcuxpresso.tools.win32_11.6.1.202207200623/tools/bin/../lib/gcc/arm-none-eabi/10.3.1/../../../../arm-none-eabi/lib/thumb/v7e-m+dp/hard\libc_nano.a(lib_a-nano-vfprintf.o)
 .text.__sprint_r
                0x00000000       0x1a c:/nxp/mcuxpressoide_11.6.1_8255/ide/plugins/com.nxp.mcuxpresso.tools.win32_11.6.1.202207200623/tools/bin/../lib/gcc/arm-none-eabi/10.3.1/../../../../arm-none-eabi/lib/thumb/v7e-m+dp/hard\libc_nano.a(lib_a-nano-vfprintf.o)
 .text.vfprintf
                0x00000000       0x14 c:/nxp/mcuxpressoide_11.6.1_8255/ide/plugins/com.nxp.mcuxpresso.tools.win32_11.6.1.202207200623/tools/bin/../lib/gcc/arm-none-eabi/10.3.1/../../../../arm-none-eabi/lib/thumb/v7e-m+dp/hard\libc_nano.a(lib_a-nano-vfprintf.o)
 .text          0x00000000        0x0 c:/nxp/mcuxpressoide_11.6.1_8255/ide/plugins/com.nxp.mcuxpresso.tools.win32_11.6.1.202207200623/tools/bin/../lib/gcc/arm-none-eabi/10.3.1/../../../../arm-none-eabi/lib/thumb/v7e-m+dp/hard\libc_nano.a(lib_a-nano-vfprintf_i.o)
 .data          0x00000000        0x0 c:/nxp/mcuxpressoide_11.6.1_8255/ide/plugins/com.nxp.mcuxpresso.tools.win32_11.6.1.202207200623/tools/bin/../lib/gcc/arm-none-eabi/10.3.1/../../../../arm-none-eabi/lib/thumb/v7e-m+dp/hard\libc_nano.a(lib_a-nano-vfprintf_i.o)
 .bss           0x00000000        0x0 c:/nxp/mcuxpressoide_11.6.1_8255/ide/plugins/com.nxp.mcuxpresso.tools.win32_11.6.1.202207200623/tools/bin/../lib/gcc/arm-none-eabi/10.3.1/../../../../arm-none-eabi/lib/thumb/v7e-m+dp/hard\libc_nano.a(lib_a-nano-vfprintf_i.o)
 .text          0x00000000        0x0 c:/nxp/mcuxpressoide_11.6.1_8255/ide/plugins/com.nxp.mcuxpresso.tools.win32_11.6.1.202207200623/tools/bin/../lib/gcc/arm-none-eabi/10.3.1/../../../../arm-none-eabi/lib/thumb/v7e-m+dp/hard\libc_nano.a(lib_a-sbrkr.o)
 .data          0x00000000        0x0 c:/nxp/mcuxpressoide_11.6.1_8255/ide/plugins/com.nxp.mcuxpresso.tools.win32_11.6.1.202207200623/tools/bin/../lib/gcc/arm-none-eabi/10.3.1/../../../../arm-none-eabi/lib/thumb/v7e-m+dp/hard\libc_nano.a(lib_a-sbrkr.o)
 .bss           0x00000000        0x0 c:/nxp/mcuxpressoide_11.6.1_8255/ide/plugins/com.nxp.mcuxpresso.tools.win32_11.6.1.202207200623/tools/bin/../lib/gcc/arm-none-eabi/10.3.1/../../../../arm-none-eabi/lib/thumb/v7e-m+dp/hard\libc_nano.a(lib_a-sbrkr.o)
 .text          0x00000000        0x0 c:/nxp/mcuxpressoide_11.6.1_8255/ide/plugins/com.nxp.mcuxpresso.tools.win32_11.6.1.202207200623/tools/bin/../lib/gcc/arm-none-eabi/10.3.1/../../../../arm-none-eabi/lib/thumb/v7e-m+dp/hard\libc_nano.a(lib_a-wbuf.o)
 .data          0x00000000        0x0 c:/nxp/mcuxpressoide_11.6.1_8255/ide/plugins/com.nxp.mcuxpresso.tools.win32_11.6.1.202207200623/tools/bin/../lib/gcc/arm-none-eabi/10.3.1/../../../../arm-none-eabi/lib/thumb/v7e-m+dp/hard\libc_nano.a(lib_a-wbuf.o)
 .bss           0x00000000        0x0 c:/nxp/mcuxpressoide_11.6.1_8255/ide/plugins/com.nxp.mcuxpresso.tools.win32_11.6.1.202207200623/tools/bin/../lib/gcc/arm-none-eabi/10.3.1/../../../../arm-none-eabi/lib/thumb/v7e-m+dp/hard\libc_nano.a(lib_a-wbuf.o)
 .text.__swbuf  0x00000000       0x10 c:/nxp/mcuxpressoide_11.6.1_8255/ide/plugins/com.nxp.mcuxpresso.tools.win32_11.6.1.202207200623/tools/bin/../lib/gcc/arm-none-eabi/10.3.1/../../../../arm-none-eabi/lib/thumb/v7e-m+dp/hard\libc_nano.a(lib_a-wbuf.o)
 .text          0x00000000        0x0 c:/nxp/mcuxpressoide_11.6.1_8255/ide/plugins/com.nxp.mcuxpresso.tools.win32_11.6.1.202207200623/tools/bin/../lib/gcc/arm-none-eabi/10.3.1/../../../../arm-none-eabi/lib/thumb/v7e-m+dp/hard\libc_nano.a(lib_a-wsetup.o)
 .data          0x00000000        0x0 c:/nxp/mcuxpressoide_11.6.1_8255/ide/plugins/com.nxp.mcuxpresso.tools.win32_11.6.1.202207200623/tools/bin/../lib/gcc/arm-none-eabi/10.3.1/../../../../arm-none-eabi/lib/thumb/v7e-m+dp/hard\libc_nano.a(lib_a-wsetup.o)
 .bss           0x00000000        0x0 c:/nxp/mcuxpressoide_11.6.1_8255/ide/plugins/com.nxp.mcuxpresso.tools.win32_11.6.1.202207200623/tools/bin/../lib/gcc/arm-none-eabi/10.3.1/../../../../arm-none-eabi/lib/thumb/v7e-m+dp/hard\libc_nano.a(lib_a-wsetup.o)
 .text          0x00000000        0x0 c:/nxp/mcuxpressoide_11.6.1_8255/ide/plugins/com.nxp.mcuxpresso.tools.win32_11.6.1.202207200623/tools/bin/../lib/gcc/arm-none-eabi/10.3.1/../../../../arm-none-eabi/lib/thumb/v7e-m+dp/hard\libc_nano.a(lib_a-abort.o)
 .data          0x00000000        0x0 c:/nxp/mcuxpressoide_11.6.1_8255/ide/plugins/com.nxp.mcuxpresso.tools.win32_11.6.1.202207200623/tools/bin/../lib/gcc/arm-none-eabi/10.3.1/../../../../arm-none-eabi/lib/thumb/v7e-m+dp/hard\libc_nano.a(lib_a-abort.o)
 .bss           0x00000000        0x0 c:/nxp/mcuxpressoide_11.6.1_8255/ide/plugins/com.nxp.mcuxpresso.tools.win32_11.6.1.202207200623/tools/bin/../lib/gcc/arm-none-eabi/10.3.1/../../../../arm-none-eabi/lib/thumb/v7e-m+dp/hard\libc_nano.a(lib_a-abort.o)
 .text          0x00000000        0x0 c:/nxp/mcuxpressoide_11.6.1_8255/ide/plugins/com.nxp.mcuxpresso.tools.win32_11.6.1.202207200623/tools/bin/../lib/gcc/arm-none-eabi/10.3.1/../../../../arm-none-eabi/lib/thumb/v7e-m+dp/hard\libc_nano.a(lib_a-fflush.o)
 .data          0x00000000        0x0 c:/nxp/mcuxpressoide_11.6.1_8255/ide/plugins/com.nxp.mcuxpresso.tools.win32_11.6.1.202207200623/tools/bin/../lib/gcc/arm-none-eabi/10.3.1/../../../../arm-none-eabi/lib/thumb/v7e-m+dp/hard\libc_nano.a(lib_a-fflush.o)
 .bss           0x00000000        0x0 c:/nxp/mcuxpressoide_11.6.1_8255/ide/plugins/com.nxp.mcuxpresso.tools.win32_11.6.1.202207200623/tools/bin/../lib/gcc/arm-none-eabi/10.3.1/../../../../arm-none-eabi/lib/thumb/v7e-m+dp/hard\libc_nano.a(lib_a-fflush.o)
 .text.fflush   0x00000000       0x24 c:/nxp/mcuxpressoide_11.6.1_8255/ide/plugins/com.nxp.mcuxpresso.tools.win32_11.6.1.202207200623/tools/bin/../lib/gcc/arm-none-eabi/10.3.1/../../../../arm-none-eabi/lib/thumb/v7e-m+dp/hard\libc_nano.a(lib_a-fflush.o)
 .text          0x00000000        0x0 c:/nxp/mcuxpressoide_11.6.1_8255/ide/plugins/com.nxp.mcuxpresso.tools.win32_11.6.1.202207200623/tools/bin/../lib/gcc/arm-none-eabi/10.3.1/../../../../arm-none-eabi/lib/thumb/v7e-m+dp/hard\libc_nano.a(lib_a-findfp.o)
 .data          0x00000000        0x0 c:/nxp/mcuxpressoide_11.6.1_8255/ide/plugins/com.nxp.mcuxpresso.tools.win32_11.6.1.202207200623/tools/bin/../lib/gcc/arm-none-eabi/10.3.1/../../../../arm-none-eabi/lib/thumb/v7e-m+dp/hard\libc_nano.a(lib_a-findfp.o)
 .bss           0x00000000        0x0 c:/nxp/mcuxpressoide_11.6.1_8255/ide/plugins/com.nxp.mcuxpresso.tools.win32_11.6.1.202207200623/tools/bin/../lib/gcc/arm-none-eabi/10.3.1/../../../../arm-none-eabi/lib/thumb/v7e-m+dp/hard\libc_nano.a(lib_a-findfp.o)
 .text.__fp_lock
                0x00000000       0x18 c:/nxp/mcuxpressoide_11.6.1_8255/ide/plugins/com.nxp.mcuxpresso.tools.win32_11.6.1.202207200623/tools/bin/../lib/gcc/arm-none-eabi/10.3.1/../../../../arm-none-eabi/lib/thumb/v7e-m+dp/hard\libc_nano.a(lib_a-findfp.o)
 .text.__fp_unlock
                0x00000000       0x18 c:/nxp/mcuxpressoide_11.6.1_8255/ide/plugins/com.nxp.mcuxpresso.tools.win32_11.6.1.202207200623/tools/bin/../lib/gcc/arm-none-eabi/10.3.1/../../../../arm-none-eabi/lib/thumb/v7e-m+dp/hard\libc_nano.a(lib_a-findfp.o)
 .text._cleanup
                0x00000000        0xc c:/nxp/mcuxpressoide_11.6.1_8255/ide/plugins/com.nxp.mcuxpresso.tools.win32_11.6.1.202207200623/tools/bin/../lib/gcc/arm-none-eabi/10.3.1/../../../../arm-none-eabi/lib/thumb/v7e-m+dp/hard\libc_nano.a(lib_a-findfp.o)
 .text.__fp_lock_all
                0x00000000       0x1c c:/nxp/mcuxpressoide_11.6.1_8255/ide/plugins/com.nxp.mcuxpresso.tools.win32_11.6.1.202207200623/tools/bin/../lib/gcc/arm-none-eabi/10.3.1/../../../../arm-none-eabi/lib/thumb/v7e-m+dp/hard\libc_nano.a(lib_a-findfp.o)
 .text.__fp_unlock_all
                0x00000000       0x1c c:/nxp/mcuxpressoide_11.6.1_8255/ide/plugins/com.nxp.mcuxpresso.tools.win32_11.6.1.202207200623/tools/bin/../lib/gcc/arm-none-eabi/10.3.1/../../../../arm-none-eabi/lib/thumb/v7e-m+dp/hard\libc_nano.a(lib_a-findfp.o)
 .text          0x00000000        0x0 c:/nxp/mcuxpressoide_11.6.1_8255/ide/plugins/com.nxp.mcuxpresso.tools.win32_11.6.1.202207200623/tools/bin/../lib/gcc/arm-none-eabi/10.3.1/../../../../arm-none-eabi/lib/thumb/v7e-m+dp/hard\libc_nano.a(lib_a-fvwrite.o)
 .data          0x00000000        0x0 c:/nxp/mcuxpressoide_11.6.1_8255/ide/plugins/com.nxp.mcuxpresso.tools.win32_11.6.1.202207200623/tools/bin/../lib/gcc/arm-none-eabi/10.3.1/../../../../arm-none-eabi/lib/thumb/v7e-m+dp/hard\libc_nano.a(lib_a-fvwrite.o)
 .bss           0x00000000        0x0 c:/nxp/mcuxpressoide_11.6.1_8255/ide/plugins/com.nxp.mcuxpresso.tools.win32_11.6.1.202207200623/tools/bin/../lib/gcc/arm-none-eabi/10.3.1/../../../../arm-none-eabi/lib/thumb/v7e-m+dp/hard\libc_nano.a(lib_a-fvwrite.o)
 .text.__sfvwrite_r
                0x00000000      0x294 c:/nxp/mcuxpressoide_11.6.1_8255/ide/plugins/com.nxp.mcuxpresso.tools.win32_11.6.1.202207200623/tools/bin/../lib/gcc/arm-none-eabi/10.3.1/../../../../arm-none-eabi/lib/thumb/v7e-m+dp/hard\libc_nano.a(lib_a-fvwrite.o)
 .debug_frame   0x00000000       0x3c c:/nxp/mcuxpressoide_11.6.1_8255/ide/plugins/com.nxp.mcuxpresso.tools.win32_11.6.1.202207200623/tools/bin/../lib/gcc/arm-none-eabi/10.3.1/../../../../arm-none-eabi/lib/thumb/v7e-m+dp/hard\libc_nano.a(lib_a-fvwrite.o)
 .ARM.attributes
                0x00000000       0x32 c:/nxp/mcuxpressoide_11.6.1_8255/ide/plugins/com.nxp.mcuxpresso.tools.win32_11.6.1.202207200623/tools/bin/../lib/gcc/arm-none-eabi/10.3.1/../../../../arm-none-eabi/lib/thumb/v7e-m+dp/hard\libc_nano.a(lib_a-fvwrite.o)
 .text          0x00000000        0x0 c:/nxp/mcuxpressoide_11.6.1_8255/ide/plugins/com.nxp.mcuxpresso.tools.win32_11.6.1.202207200623/tools/bin/../lib/gcc/arm-none-eabi/10.3.1/../../../../arm-none-eabi/lib/thumb/v7e-m+dp/hard\libc_nano.a(lib_a-fwalk.o)
 .data          0x00000000        0x0 c:/nxp/mcuxpressoide_11.6.1_8255/ide/plugins/com.nxp.mcuxpresso.tools.win32_11.6.1.202207200623/tools/bin/../lib/gcc/arm-none-eabi/10.3.1/../../../../arm-none-eabi/lib/thumb/v7e-m+dp/hard\libc_nano.a(lib_a-fwalk.o)
 .bss           0x00000000        0x0 c:/nxp/mcuxpressoide_11.6.1_8255/ide/plugins/com.nxp.mcuxpresso.tools.win32_11.6.1.202207200623/tools/bin/../lib/gcc/arm-none-eabi/10.3.1/../../../../arm-none-eabi/lib/thumb/v7e-m+dp/hard\libc_nano.a(lib_a-fwalk.o)
 .text._fwalk   0x00000000       0x3a c:/nxp/mcuxpressoide_11.6.1_8255/ide/plugins/com.nxp.mcuxpresso.tools.win32_11.6.1.202207200623/tools/bin/../lib/gcc/arm-none-eabi/10.3.1/../../../../arm-none-eabi/lib/thumb/v7e-m+dp/hard\libc_nano.a(lib_a-fwalk.o)
 .text          0x00000000        0x0 c:/nxp/mcuxpressoide_11.6.1_8255/ide/plugins/com.nxp.mcuxpresso.tools.win32_11.6.1.202207200623/tools/bin/../lib/gcc/arm-none-eabi/10.3.1/../../../../arm-none-eabi/lib/thumb/v7e-m+dp/hard\libc_nano.a(lib_a-lock.o)
 .data          0x00000000        0x0 c:/nxp/mcuxpressoide_11.6.1_8255/ide/plugins/com.nxp.mcuxpresso.tools.win32_11.6.1.202207200623/tools/bin/../lib/gcc/arm-none-eabi/10.3.1/../../../../arm-none-eabi/lib/thumb/v7e-m+dp/hard\libc_nano.a(lib_a-lock.o)
 .bss           0x00000000        0x0 c:/nxp/mcuxpressoide_11.6.1_8255/ide/plugins/com.nxp.mcuxpresso.tools.win32_11.6.1.202207200623/tools/bin/../lib/gcc/arm-none-eabi/10.3.1/../../../../arm-none-eabi/lib/thumb/v7e-m+dp/hard\libc_nano.a(lib_a-lock.o)
 .text.__retarget_lock_init
                0x00000000        0x2 c:/nxp/mcuxpressoide_11.6.1_8255/ide/plugins/com.nxp.mcuxpresso.tools.win32_11.6.1.202207200623/tools/bin/../lib/gcc/arm-none-eabi/10.3.1/../../../../arm-none-eabi/lib/thumb/v7e-m+dp/hard\libc_nano.a(lib_a-lock.o)
 .text.__retarget_lock_close
                0x00000000        0x2 c:/nxp/mcuxpressoide_11.6.1_8255/ide/plugins/com.nxp.mcuxpresso.tools.win32_11.6.1.202207200623/tools/bin/../lib/gcc/arm-none-eabi/10.3.1/../../../../arm-none-eabi/lib/thumb/v7e-m+dp/hard\libc_nano.a(lib_a-lock.o)
 .text.__retarget_lock_close_recursive
                0x00000000        0x2 c:/nxp/mcuxpressoide_11.6.1_8255/ide/plugins/com.nxp.mcuxpresso.tools.win32_11.6.1.202207200623/tools/bin/../lib/gcc/arm-none-eabi/10.3.1/../../../../arm-none-eabi/lib/thumb/v7e-m+dp/hard\libc_nano.a(lib_a-lock.o)
 .text.__retarget_lock_acquire
                0x00000000        0x2 c:/nxp/mcuxpressoide_11.6.1_8255/ide/plugins/com.nxp.mcuxpresso.tools.win32_11.6.1.202207200623/tools/bin/../lib/gcc/arm-none-eabi/10.3.1/../../../../arm-none-eabi/lib/thumb/v7e-m+dp/hard\libc_nano.a(lib_a-lock.o)
 .text.__retarget_lock_try_acquire
                0x00000000        0x4 c:/nxp/mcuxpressoide_11.6.1_8255/ide/plugins/com.nxp.mcuxpresso.tools.win32_11.6.1.202207200623/tools/bin/../lib/gcc/arm-none-eabi/10.3.1/../../../../arm-none-eabi/lib/thumb/v7e-m+dp/hard\libc_nano.a(lib_a-lock.o)
 .text.__retarget_lock_try_acquire_recursive
                0x00000000        0x4 c:/nxp/mcuxpressoide_11.6.1_8255/ide/plugins/com.nxp.mcuxpresso.tools.win32_11.6.1.202207200623/tools/bin/../lib/gcc/arm-none-eabi/10.3.1/../../../../arm-none-eabi/lib/thumb/v7e-m+dp/hard\libc_nano.a(lib_a-lock.o)
 .text.__retarget_lock_release
                0x00000000        0x2 c:/nxp/mcuxpressoide_11.6.1_8255/ide/plugins/com.nxp.mcuxpresso.tools.win32_11.6.1.202207200623/tools/bin/../lib/gcc/arm-none-eabi/10.3.1/../../../../arm-none-eabi/lib/thumb/v7e-m+dp/hard\libc_nano.a(lib_a-lock.o)
 .bss.__lock___arc4random_mutex
                0x00000000        0x1 c:/nxp/mcuxpressoide_11.6.1_8255/ide/plugins/com.nxp.mcuxpresso.tools.win32_11.6.1.202207200623/tools/bin/../lib/gcc/arm-none-eabi/10.3.1/../../../../arm-none-eabi/lib/thumb/v7e-m+dp/hard\libc_nano.a(lib_a-lock.o)
 .bss.__lock___at_quick_exit_mutex
                0x00000000        0x1 c:/nxp/mcuxpressoide_11.6.1_8255/ide/plugins/com.nxp.mcuxpresso.tools.win32_11.6.1.202207200623/tools/bin/../lib/gcc/arm-none-eabi/10.3.1/../../../../arm-none-eabi/lib/thumb/v7e-m+dp/hard\libc_nano.a(lib_a-lock.o)
 .bss.__lock___atexit_recursive_mutex
                0x00000000        0x1 c:/nxp/mcuxpressoide_11.6.1_8255/ide/plugins/com.nxp.mcuxpresso.tools.win32_11.6.1.202207200623/tools/bin/../lib/gcc/arm-none-eabi/10.3.1/../../../../arm-none-eabi/lib/thumb/v7e-m+dp/hard\libc_nano.a(lib_a-lock.o)
 .bss.__lock___dd_hash_mutex
                0x00000000        0x1 c:/nxp/mcuxpressoide_11.6.1_8255/ide/plugins/com.nxp.mcuxpresso.tools.win32_11.6.1.202207200623/tools/bin/../lib/gcc/arm-none-eabi/10.3.1/../../../../arm-none-eabi/lib/thumb/v7e-m+dp/hard\libc_nano.a(lib_a-lock.o)
 .bss.__lock___env_recursive_mutex
                0x00000000        0x1 c:/nxp/mcuxpressoide_11.6.1_8255/ide/plugins/com.nxp.mcuxpresso.tools.win32_11.6.1.202207200623/tools/bin/../lib/gcc/arm-none-eabi/10.3.1/../../../../arm-none-eabi/lib/thumb/v7e-m+dp/hard\libc_nano.a(lib_a-lock.o)
 .bss.__lock___tz_mutex
                0x00000000        0x1 c:/nxp/mcuxpressoide_11.6.1_8255/ide/plugins/com.nxp.mcuxpresso.tools.win32_11.6.1.202207200623/tools/bin/../lib/gcc/arm-none-eabi/10.3.1/../../../../arm-none-eabi/lib/thumb/v7e-m+dp/hard\libc_nano.a(lib_a-lock.o)
 .text          0x00000000        0x0 c:/nxp/mcuxpressoide_11.6.1_8255/ide/plugins/com.nxp.mcuxpresso.tools.win32_11.6.1.202207200623/tools/bin/../lib/gcc/arm-none-eabi/10.3.1/../../../../arm-none-eabi/lib/thumb/v7e-m+dp/hard\libc_nano.a(lib_a-makebuf.o)
 .data          0x00000000        0x0 c:/nxp/mcuxpressoide_11.6.1_8255/ide/plugins/com.nxp.mcuxpresso.tools.win32_11.6.1.202207200623/tools/bin/../lib/gcc/arm-none-eabi/10.3.1/../../../../arm-none-eabi/lib/thumb/v7e-m+dp/hard\libc_nano.a(lib_a-makebuf.o)
 .bss           0x00000000        0x0 c:/nxp/mcuxpressoide_11.6.1_8255/ide/plugins/com.nxp.mcuxpresso.tools.win32_11.6.1.202207200623/tools/bin/../lib/gcc/arm-none-eabi/10.3.1/../../../../arm-none-eabi/lib/thumb/v7e-m+dp/hard\libc_nano.a(lib_a-makebuf.o)
 .data          0x00000000        0x0 c:/nxp/mcuxpressoide_11.6.1_8255/ide/plugins/com.nxp.mcuxpresso.tools.win32_11.6.1.202207200623/tools/bin/../lib/gcc/arm-none-eabi/10.3.1/../../../../arm-none-eabi/lib/thumb/v7e-m+dp/hard\libc_nano.a(lib_a-memchr.o)
 .bss           0x00000000        0x0 c:/nxp/mcuxpressoide_11.6.1_8255/ide/plugins/com.nxp.mcuxpresso.tools.win32_11.6.1.202207200623/tools/bin/../lib/gcc/arm-none-eabi/10.3.1/../../../../arm-none-eabi/lib/thumb/v7e-m+dp/hard\libc_nano.a(lib_a-memchr.o)
 .text          0x00000000        0x0 c:/nxp/mcuxpressoide_11.6.1_8255/ide/plugins/com.nxp.mcuxpresso.tools.win32_11.6.1.202207200623/tools/bin/../lib/gcc/arm-none-eabi/10.3.1/../../../../arm-none-eabi/lib/thumb/v7e-m+dp/hard\libc_nano.a(lib_a-memmove.o)
 .data          0x00000000        0x0 c:/nxp/mcuxpressoide_11.6.1_8255/ide/plugins/com.nxp.mcuxpresso.tools.win32_11.6.1.202207200623/tools/bin/../lib/gcc/arm-none-eabi/10.3.1/../../../../arm-none-eabi/lib/thumb/v7e-m+dp/hard\libc_nano.a(lib_a-memmove.o)
 .bss           0x00000000        0x0 c:/nxp/mcuxpressoide_11.6.1_8255/ide/plugins/com.nxp.mcuxpresso.tools.win32_11.6.1.202207200623/tools/bin/../lib/gcc/arm-none-eabi/10.3.1/../../../../arm-none-eabi/lib/thumb/v7e-m+dp/hard\libc_nano.a(lib_a-memmove.o)
 .text.memmove  0x00000000       0x34 c:/nxp/mcuxpressoide_11.6.1_8255/ide/plugins/com.nxp.mcuxpresso.tools.win32_11.6.1.202207200623/tools/bin/../lib/gcc/arm-none-eabi/10.3.1/../../../../arm-none-eabi/lib/thumb/v7e-m+dp/hard\libc_nano.a(lib_a-memmove.o)
 .debug_frame   0x00000000       0x28 c:/nxp/mcuxpressoide_11.6.1_8255/ide/plugins/com.nxp.mcuxpresso.tools.win32_11.6.1.202207200623/tools/bin/../lib/gcc/arm-none-eabi/10.3.1/../../../../arm-none-eabi/lib/thumb/v7e-m+dp/hard\libc_nano.a(lib_a-memmove.o)
 .ARM.attributes
                0x00000000       0x32 c:/nxp/mcuxpressoide_11.6.1_8255/ide/plugins/com.nxp.mcuxpresso.tools.win32_11.6.1.202207200623/tools/bin/../lib/gcc/arm-none-eabi/10.3.1/../../../../arm-none-eabi/lib/thumb/v7e-m+dp/hard\libc_nano.a(lib_a-memmove.o)
 .text          0x00000000        0x0 c:/nxp/mcuxpressoide_11.6.1_8255/ide/plugins/com.nxp.mcuxpresso.tools.win32_11.6.1.202207200623/tools/bin/../lib/gcc/arm-none-eabi/10.3.1/../../../../arm-none-eabi/lib/thumb/v7e-m+dp/hard\libc_nano.a(lib_a-mlock.o)
 .data          0x00000000        0x0 c:/nxp/mcuxpressoide_11.6.1_8255/ide/plugins/com.nxp.mcuxpresso.tools.win32_11.6.1.202207200623/tools/bin/../lib/gcc/arm-none-eabi/10.3.1/../../../../arm-none-eabi/lib/thumb/v7e-m+dp/hard\libc_nano.a(lib_a-mlock.o)
 .bss           0x00000000        0x0 c:/nxp/mcuxpressoide_11.6.1_8255/ide/plugins/com.nxp.mcuxpresso.tools.win32_11.6.1.202207200623/tools/bin/../lib/gcc/arm-none-eabi/10.3.1/../../../../arm-none-eabi/lib/thumb/v7e-m+dp/hard\libc_nano.a(lib_a-mlock.o)
 .text          0x00000000        0x0 c:/nxp/mcuxpressoide_11.6.1_8255/ide/plugins/com.nxp.mcuxpresso.tools.win32_11.6.1.202207200623/tools/bin/../lib/gcc/arm-none-eabi/10.3.1/../../../../arm-none-eabi/lib/thumb/v7e-m+dp/hard\libc_nano.a(lib_a-nano-reallocr.o)
 .data          0x00000000        0x0 c:/nxp/mcuxpressoide_11.6.1_8255/ide/plugins/com.nxp.mcuxpresso.tools.win32_11.6.1.202207200623/tools/bin/../lib/gcc/arm-none-eabi/10.3.1/../../../../arm-none-eabi/lib/thumb/v7e-m+dp/hard\libc_nano.a(lib_a-nano-reallocr.o)
 .bss           0x00000000        0x0 c:/nxp/mcuxpressoide_11.6.1_8255/ide/plugins/com.nxp.mcuxpresso.tools.win32_11.6.1.202207200623/tools/bin/../lib/gcc/arm-none-eabi/10.3.1/../../../../arm-none-eabi/lib/thumb/v7e-m+dp/hard\libc_nano.a(lib_a-nano-reallocr.o)
 .text._realloc_r
                0x00000000       0x5e c:/nxp/mcuxpressoide_11.6.1_8255/ide/plugins/com.nxp.mcuxpresso.tools.win32_11.6.1.202207200623/tools/bin/../lib/gcc/arm-none-eabi/10.3.1/../../../../arm-none-eabi/lib/thumb/v7e-m+dp/hard\libc_nano.a(lib_a-nano-reallocr.o)
 .debug_frame   0x00000000       0x3c c:/nxp/mcuxpressoide_11.6.1_8255/ide/plugins/com.nxp.mcuxpresso.tools.win32_11.6.1.202207200623/tools/bin/../lib/gcc/arm-none-eabi/10.3.1/../../../../arm-none-eabi/lib/thumb/v7e-m+dp/hard\libc_nano.a(lib_a-nano-reallocr.o)
 .ARM.attributes
                0x00000000       0x32 c:/nxp/mcuxpressoide_11.6.1_8255/ide/plugins/com.nxp.mcuxpresso.tools.win32_11.6.1.202207200623/tools/bin/../lib/gcc/arm-none-eabi/10.3.1/../../../../arm-none-eabi/lib/thumb/v7e-m+dp/hard\libc_nano.a(lib_a-nano-reallocr.o)
 .text          0x00000000        0x0 c:/nxp/mcuxpressoide_11.6.1_8255/ide/plugins/com.nxp.mcuxpresso.tools.win32_11.6.1.202207200623/tools/bin/../lib/gcc/arm-none-eabi/10.3.1/../../../../arm-none-eabi/lib/thumb/v7e-m+dp/hard\libc_nano.a(lib_a-reent.o)
 .data          0x00000000        0x0 c:/nxp/mcuxpressoide_11.6.1_8255/ide/plugins/com.nxp.mcuxpresso.tools.win32_11.6.1.202207200623/tools/bin/../lib/gcc/arm-none-eabi/10.3.1/../../../../arm-none-eabi/lib/thumb/v7e-m+dp/hard\libc_nano.a(lib_a-reent.o)
 .bss           0x00000000        0x0 c:/nxp/mcuxpressoide_11.6.1_8255/ide/plugins/com.nxp.mcuxpresso.tools.win32_11.6.1.202207200623/tools/bin/../lib/gcc/arm-none-eabi/10.3.1/../../../../arm-none-eabi/lib/thumb/v7e-m+dp/hard\libc_nano.a(lib_a-reent.o)
 .text.cleanup_glue
                0x00000000       0x1a c:/nxp/mcuxpressoide_11.6.1_8255/ide/plugins/com.nxp.mcuxpresso.tools.win32_11.6.1.202207200623/tools/bin/../lib/gcc/arm-none-eabi/10.3.1/../../../../arm-none-eabi/lib/thumb/v7e-m+dp/hard\libc_nano.a(lib_a-reent.o)
 .text._reclaim_reent
                0x00000000       0xb8 c:/nxp/mcuxpressoide_11.6.1_8255/ide/plugins/com.nxp.mcuxpresso.tools.win32_11.6.1.202207200623/tools/bin/../lib/gcc/arm-none-eabi/10.3.1/../../../../arm-none-eabi/lib/thumb/v7e-m+dp/hard\libc_nano.a(lib_a-reent.o)
 .text          0x00000000        0x0 c:/nxp/mcuxpressoide_11.6.1_8255/ide/plugins/com.nxp.mcuxpresso.tools.win32_11.6.1.202207200623/tools/bin/../lib/gcc/arm-none-eabi/10.3.1/../../../../arm-none-eabi/lib/thumb/v7e-m+dp/hard\libc_nano.a(lib_a-signal.o)
 .data          0x00000000        0x0 c:/nxp/mcuxpressoide_11.6.1_8255/ide/plugins/com.nxp.mcuxpresso.tools.win32_11.6.1.202207200623/tools/bin/../lib/gcc/arm-none-eabi/10.3.1/../../../../arm-none-eabi/lib/thumb/v7e-m+dp/hard\libc_nano.a(lib_a-signal.o)
 .bss           0x00000000        0x0 c:/nxp/mcuxpressoide_11.6.1_8255/ide/plugins/com.nxp.mcuxpresso.tools.win32_11.6.1.202207200623/tools/bin/../lib/gcc/arm-none-eabi/10.3.1/../../../../arm-none-eabi/lib/thumb/v7e-m+dp/hard\libc_nano.a(lib_a-signal.o)
 .text._init_signal_r
                0x00000000       0x28 c:/nxp/mcuxpressoide_11.6.1_8255/ide/plugins/com.nxp.mcuxpresso.tools.win32_11.6.1.202207200623/tools/bin/../lib/gcc/arm-none-eabi/10.3.1/../../../../arm-none-eabi/lib/thumb/v7e-m+dp/hard\libc_nano.a(lib_a-signal.o)
 .text._signal_r
                0x00000000       0x30 c:/nxp/mcuxpressoide_11.6.1_8255/ide/plugins/com.nxp.mcuxpresso.tools.win32_11.6.1.202207200623/tools/bin/../lib/gcc/arm-none-eabi/10.3.1/../../../../arm-none-eabi/lib/thumb/v7e-m+dp/hard\libc_nano.a(lib_a-signal.o)
 .text.__sigtramp_r
                0x00000000       0x48 c:/nxp/mcuxpressoide_11.6.1_8255/ide/plugins/com.nxp.mcuxpresso.tools.win32_11.6.1.202207200623/tools/bin/../lib/gcc/arm-none-eabi/10.3.1/../../../../arm-none-eabi/lib/thumb/v7e-m+dp/hard\libc_nano.a(lib_a-signal.o)
 .text.signal   0x00000000       0x10 c:/nxp/mcuxpressoide_11.6.1_8255/ide/plugins/com.nxp.mcuxpresso.tools.win32_11.6.1.202207200623/tools/bin/../lib/gcc/arm-none-eabi/10.3.1/../../../../arm-none-eabi/lib/thumb/v7e-m+dp/hard\libc_nano.a(lib_a-signal.o)
 .text._init_signal
                0x00000000        0xc c:/nxp/mcuxpressoide_11.6.1_8255/ide/plugins/com.nxp.mcuxpresso.tools.win32_11.6.1.202207200623/tools/bin/../lib/gcc/arm-none-eabi/10.3.1/../../../../arm-none-eabi/lib/thumb/v7e-m+dp/hard\libc_nano.a(lib_a-signal.o)
 .text.__sigtramp
                0x00000000       0x10 c:/nxp/mcuxpressoide_11.6.1_8255/ide/plugins/com.nxp.mcuxpresso.tools.win32_11.6.1.202207200623/tools/bin/../lib/gcc/arm-none-eabi/10.3.1/../../../../arm-none-eabi/lib/thumb/v7e-m+dp/hard\libc_nano.a(lib_a-signal.o)
 .text          0x00000000        0x0 c:/nxp/mcuxpressoide_11.6.1_8255/ide/plugins/com.nxp.mcuxpresso.tools.win32_11.6.1.202207200623/tools/bin/../lib/gcc/arm-none-eabi/10.3.1/../../../../arm-none-eabi/lib/thumb/v7e-m+dp/hard\libc_nano.a(lib_a-signalr.o)
 .data          0x00000000        0x0 c:/nxp/mcuxpressoide_11.6.1_8255/ide/plugins/com.nxp.mcuxpresso.tools.win32_11.6.1.202207200623/tools/bin/../lib/gcc/arm-none-eabi/10.3.1/../../../../arm-none-eabi/lib/thumb/v7e-m+dp/hard\libc_nano.a(lib_a-signalr.o)
 .bss           0x00000000        0x0 c:/nxp/mcuxpressoide_11.6.1_8255/ide/plugins/com.nxp.mcuxpresso.tools.win32_11.6.1.202207200623/tools/bin/../lib/gcc/arm-none-eabi/10.3.1/../../../../arm-none-eabi/lib/thumb/v7e-m+dp/hard\libc_nano.a(lib_a-signalr.o)
 .text          0x00000000        0x0 c:/nxp/mcuxpressoide_11.6.1_8255/ide/plugins/com.nxp.mcuxpresso.tools.win32_11.6.1.202207200623/tools/bin/../lib/gcc/arm-none-eabi/10.3.1/../../../../arm-none-eabi/lib/thumb/v7e-m+dp/hard\libc_nano.a(lib_a-stdio.o)
 .data          0x00000000        0x0 c:/nxp/mcuxpressoide_11.6.1_8255/ide/plugins/com.nxp.mcuxpresso.tools.win32_11.6.1.202207200623/tools/bin/../lib/gcc/arm-none-eabi/10.3.1/../../../../arm-none-eabi/lib/thumb/v7e-m+dp/hard\libc_nano.a(lib_a-stdio.o)
 .bss           0x00000000        0x0 c:/nxp/mcuxpressoide_11.6.1_8255/ide/plugins/com.nxp.mcuxpresso.tools.win32_11.6.1.202207200623/tools/bin/../lib/gcc/arm-none-eabi/10.3.1/../../../../arm-none-eabi/lib/thumb/v7e-m+dp/hard\libc_nano.a(lib_a-stdio.o)
 .text.__seofread
                0x00000000        0x4 c:/nxp/mcuxpressoide_11.6.1_8255/ide/plugins/com.nxp.mcuxpresso.tools.win32_11.6.1.202207200623/tools/bin/../lib/gcc/arm-none-eabi/10.3.1/../../../../arm-none-eabi/lib/thumb/v7e-m+dp/hard\libc_nano.a(lib_a-stdio.o)
 .text          0x00000000        0x0 c:/nxp/mcuxpressoide_11.6.1_8255/ide/plugins/com.nxp.mcuxpresso.tools.win32_11.6.1.202207200623/tools/bin/../lib/gcc/arm-none-eabi/10.3.1/../../../../arm-none-eabi/lib/thumb/v7e-m+dp/hard\libc_nano.a(lib_a-writer.o)
 .data          0x00000000        0x0 c:/nxp/mcuxpressoide_11.6.1_8255/ide/plugins/com.nxp.mcuxpresso.tools.win32_11.6.1.202207200623/tools/bin/../lib/gcc/arm-none-eabi/10.3.1/../../../../arm-none-eabi/lib/thumb/v7e-m+dp/hard\libc_nano.a(lib_a-writer.o)
 .bss           0x00000000        0x0 c:/nxp/mcuxpressoide_11.6.1_8255/ide/plugins/com.nxp.mcuxpresso.tools.win32_11.6.1.202207200623/tools/bin/../lib/gcc/arm-none-eabi/10.3.1/../../../../arm-none-eabi/lib/thumb/v7e-m+dp/hard\libc_nano.a(lib_a-writer.o)
 .text          0x00000000        0x0 c:/nxp/mcuxpressoide_11.6.1_8255/ide/plugins/com.nxp.mcuxpresso.tools.win32_11.6.1.202207200623/tools/bin/../lib/gcc/arm-none-eabi/10.3.1/../../../../arm-none-eabi/lib/thumb/v7e-m+dp/hard\libc_nano.a(lib_a-closer.o)
 .data          0x00000000        0x0 c:/nxp/mcuxpressoide_11.6.1_8255/ide/plugins/com.nxp.mcuxpresso.tools.win32_11.6.1.202207200623/tools/bin/../lib/gcc/arm-none-eabi/10.3.1/../../../../arm-none-eabi/lib/thumb/v7e-m+dp/hard\libc_nano.a(lib_a-closer.o)
 .bss           0x00000000        0x0 c:/nxp/mcuxpressoide_11.6.1_8255/ide/plugins/com.nxp.mcuxpresso.tools.win32_11.6.1.202207200623/tools/bin/../lib/gcc/arm-none-eabi/10.3.1/../../../../arm-none-eabi/lib/thumb/v7e-m+dp/hard\libc_nano.a(lib_a-closer.o)
 .text          0x00000000        0x0 c:/nxp/mcuxpressoide_11.6.1_8255/ide/plugins/com.nxp.mcuxpresso.tools.win32_11.6.1.202207200623/tools/bin/../lib/gcc/arm-none-eabi/10.3.1/../../../../arm-none-eabi/lib/thumb/v7e-m+dp/hard\libc_nano.a(lib_a-fstatr.o)
 .data          0x00000000        0x0 c:/nxp/mcuxpressoide_11.6.1_8255/ide/plugins/com.nxp.mcuxpresso.tools.win32_11.6.1.202207200623/tools/bin/../lib/gcc/arm-none-eabi/10.3.1/../../../../arm-none-eabi/lib/thumb/v7e-m+dp/hard\libc_nano.a(lib_a-fstatr.o)
 .bss           0x00000000        0x0 c:/nxp/mcuxpressoide_11.6.1_8255/ide/plugins/com.nxp.mcuxpresso.tools.win32_11.6.1.202207200623/tools/bin/../lib/gcc/arm-none-eabi/10.3.1/../../../../arm-none-eabi/lib/thumb/v7e-m+dp/hard\libc_nano.a(lib_a-fstatr.o)
 .text          0x00000000        0x0 c:/nxp/mcuxpressoide_11.6.1_8255/ide/plugins/com.nxp.mcuxpresso.tools.win32_11.6.1.202207200623/tools/bin/../lib/gcc/arm-none-eabi/10.3.1/../../../../arm-none-eabi/lib/thumb/v7e-m+dp/hard\libc_nano.a(lib_a-isattyr.o)
 .data          0x00000000        0x0 c:/nxp/mcuxpressoide_11.6.1_8255/ide/plugins/com.nxp.mcuxpresso.tools.win32_11.6.1.202207200623/tools/bin/../lib/gcc/arm-none-eabi/10.3.1/../../../../arm-none-eabi/lib/thumb/v7e-m+dp/hard\libc_nano.a(lib_a-isattyr.o)
 .bss           0x00000000        0x0 c:/nxp/mcuxpressoide_11.6.1_8255/ide/plugins/com.nxp.mcuxpresso.tools.win32_11.6.1.202207200623/tools/bin/../lib/gcc/arm-none-eabi/10.3.1/../../../../arm-none-eabi/lib/thumb/v7e-m+dp/hard\libc_nano.a(lib_a-isattyr.o)
 .text          0x00000000        0x0 c:/nxp/mcuxpressoide_11.6.1_8255/ide/plugins/com.nxp.mcuxpresso.tools.win32_11.6.1.202207200623/tools/bin/../lib/gcc/arm-none-eabi/10.3.1/../../../../arm-none-eabi/lib/thumb/v7e-m+dp/hard\libc_nano.a(lib_a-lseekr.o)
 .data          0x00000000        0x0 c:/nxp/mcuxpressoide_11.6.1_8255/ide/plugins/com.nxp.mcuxpresso.tools.win32_11.6.1.202207200623/tools/bin/../lib/gcc/arm-none-eabi/10.3.1/../../../../arm-none-eabi/lib/thumb/v7e-m+dp/hard\libc_nano.a(lib_a-lseekr.o)
 .bss           0x00000000        0x0 c:/nxp/mcuxpressoide_11.6.1_8255/ide/plugins/com.nxp.mcuxpresso.tools.win32_11.6.1.202207200623/tools/bin/../lib/gcc/arm-none-eabi/10.3.1/../../../../arm-none-eabi/lib/thumb/v7e-m+dp/hard\libc_nano.a(lib_a-lseekr.o)
 .text          0x00000000        0x0 c:/nxp/mcuxpressoide_11.6.1_8255/ide/plugins/com.nxp.mcuxpresso.tools.win32_11.6.1.202207200623/tools/bin/../lib/gcc/arm-none-eabi/10.3.1/../../../../arm-none-eabi/lib/thumb/v7e-m+dp/hard\libc_nano.a(lib_a-nano-msizer.o)
 .data          0x00000000        0x0 c:/nxp/mcuxpressoide_11.6.1_8255/ide/plugins/com.nxp.mcuxpresso.tools.win32_11.6.1.202207200623/tools/bin/../lib/gcc/arm-none-eabi/10.3.1/../../../../arm-none-eabi/lib/thumb/v7e-m+dp/hard\libc_nano.a(lib_a-nano-msizer.o)
 .bss           0x00000000        0x0 c:/nxp/mcuxpressoide_11.6.1_8255/ide/plugins/com.nxp.mcuxpresso.tools.win32_11.6.1.202207200623/tools/bin/../lib/gcc/arm-none-eabi/10.3.1/../../../../arm-none-eabi/lib/thumb/v7e-m+dp/hard\libc_nano.a(lib_a-nano-msizer.o)
 .text._malloc_usable_size_r
                0x00000000       0x10 c:/nxp/mcuxpressoide_11.6.1_8255/ide/plugins/com.nxp.mcuxpresso.tools.win32_11.6.1.202207200623/tools/bin/../lib/gcc/arm-none-eabi/10.3.1/../../../../arm-none-eabi/lib/thumb/v7e-m+dp/hard\libc_nano.a(lib_a-nano-msizer.o)
 .debug_frame   0x00000000       0x20 c:/nxp/mcuxpressoide_11.6.1_8255/ide/plugins/com.nxp.mcuxpresso.tools.win32_11.6.1.202207200623/tools/bin/../lib/gcc/arm-none-eabi/10.3.1/../../../../arm-none-eabi/lib/thumb/v7e-m+dp/hard\libc_nano.a(lib_a-nano-msizer.o)
 .ARM.attributes
                0x00000000       0x32 c:/nxp/mcuxpressoide_11.6.1_8255/ide/plugins/com.nxp.mcuxpresso.tools.win32_11.6.1.202207200623/tools/bin/../lib/gcc/arm-none-eabi/10.3.1/../../../../arm-none-eabi/lib/thumb/v7e-m+dp/hard\libc_nano.a(lib_a-nano-msizer.o)
 .text          0x00000000        0x0 c:/nxp/mcuxpressoide_11.6.1_8255/ide/plugins/com.nxp.mcuxpresso.tools.win32_11.6.1.202207200623/tools/bin/../lib/gcc/arm-none-eabi/10.3.1/../../../../arm-none-eabi/lib/thumb/v7e-m+dp/hard\libc_nano.a(lib_a-readr.o)
 .data          0x00000000        0x0 c:/nxp/mcuxpressoide_11.6.1_8255/ide/plugins/com.nxp.mcuxpresso.tools.win32_11.6.1.202207200623/tools/bin/../lib/gcc/arm-none-eabi/10.3.1/../../../../arm-none-eabi/lib/thumb/v7e-m+dp/hard\libc_nano.a(lib_a-readr.o)
 .bss           0x00000000        0x0 c:/nxp/mcuxpressoide_11.6.1_8255/ide/plugins/com.nxp.mcuxpresso.tools.win32_11.6.1.202207200623/tools/bin/../lib/gcc/arm-none-eabi/10.3.1/../../../../arm-none-eabi/lib/thumb/v7e-m+dp/hard\libc_nano.a(lib_a-readr.o)
 .text          0x00000000        0x0 c:/nxp/mcuxpressoide_11.6.1_8255/ide/plugins/com.nxp.mcuxpresso.tools.win32_11.6.1.202207200623/tools/bin/../lib/gcc/arm-none-eabi/10.3.1/../../../../arm-none-eabi/lib/thumb/v7e-m+dp/hard\libcr_newlib_none.a(_cr_sbrk.o)
 .data          0x00000000        0x0 c:/nxp/mcuxpressoide_11.6.1_8255/ide/plugins/com.nxp.mcuxpresso.tools.win32_11.6.1.202207200623/tools/bin/../lib/gcc/arm-none-eabi/10.3.1/../../../../arm-none-eabi/lib/thumb/v7e-m+dp/hard\libcr_newlib_none.a(_cr_sbrk.o)
 .bss           0x00000000        0x0 c:/nxp/mcuxpressoide_11.6.1_8255/ide/plugins/com.nxp.mcuxpresso.tools.win32_11.6.1.202207200623/tools/bin/../lib/gcc/arm-none-eabi/10.3.1/../../../../arm-none-eabi/lib/thumb/v7e-m+dp/hard\libcr_newlib_none.a(_cr_sbrk.o)
 .text          0x00000000        0x0 c:/nxp/mcuxpressoide_11.6.1_8255/ide/plugins/com.nxp.mcuxpresso.tools.win32_11.6.1.202207200623/tools/bin/../lib/gcc/arm-none-eabi/10.3.1/../../../../arm-none-eabi/lib/thumb/v7e-m+dp/hard\libcr_newlib_none.a(_cr_check_heap.o)
 .data          0x00000000        0x0 c:/nxp/mcuxpressoide_11.6.1_8255/ide/plugins/com.nxp.mcuxpresso.tools.win32_11.6.1.202207200623/tools/bin/../lib/gcc/arm-none-eabi/10.3.1/../../../../arm-none-eabi/lib/thumb/v7e-m+dp/hard\libcr_newlib_none.a(_cr_check_heap.o)
 .bss           0x00000000        0x0 c:/nxp/mcuxpressoide_11.6.1_8255/ide/plugins/com.nxp.mcuxpresso.tools.win32_11.6.1.202207200623/tools/bin/../lib/gcc/arm-none-eabi/10.3.1/../../../../arm-none-eabi/lib/thumb/v7e-m+dp/hard\libcr_newlib_none.a(_cr_check_heap.o)
 .text          0x00000000        0x0 c:/nxp/mcuxpressoide_11.6.1_8255/ide/plugins/com.nxp.mcuxpresso.tools.win32_11.6.1.202207200623/tools/bin/../lib/gcc/arm-none-eabi/10.3.1/../../../../arm-none-eabi/lib/thumb/v7e-m+dp/hard\libnosys.a(close.o)
 .data          0x00000000        0x0 c:/nxp/mcuxpressoide_11.6.1_8255/ide/plugins/com.nxp.mcuxpresso.tools.win32_11.6.1.202207200623/tools/bin/../lib/gcc/arm-none-eabi/10.3.1/../../../../arm-none-eabi/lib/thumb/v7e-m+dp/hard\libnosys.a(close.o)
 .bss           0x00000000        0x0 c:/nxp/mcuxpressoide_11.6.1_8255/ide/plugins/com.nxp.mcuxpresso.tools.win32_11.6.1.202207200623/tools/bin/../lib/gcc/arm-none-eabi/10.3.1/../../../../arm-none-eabi/lib/thumb/v7e-m+dp/hard\libnosys.a(close.o)
 .text          0x00000000        0x0 c:/nxp/mcuxpressoide_11.6.1_8255/ide/plugins/com.nxp.mcuxpresso.tools.win32_11.6.1.202207200623/tools/bin/../lib/gcc/arm-none-eabi/10.3.1/../../../../arm-none-eabi/lib/thumb/v7e-m+dp/hard\libnosys.a(fstat.o)
 .data          0x00000000        0x0 c:/nxp/mcuxpressoide_11.6.1_8255/ide/plugins/com.nxp.mcuxpresso.tools.win32_11.6.1.202207200623/tools/bin/../lib/gcc/arm-none-eabi/10.3.1/../../../../arm-none-eabi/lib/thumb/v7e-m+dp/hard\libnosys.a(fstat.o)
 .bss           0x00000000        0x0 c:/nxp/mcuxpressoide_11.6.1_8255/ide/plugins/com.nxp.mcuxpresso.tools.win32_11.6.1.202207200623/tools/bin/../lib/gcc/arm-none-eabi/10.3.1/../../../../arm-none-eabi/lib/thumb/v7e-m+dp/hard\libnosys.a(fstat.o)
 .text          0x00000000        0x0 c:/nxp/mcuxpressoide_11.6.1_8255/ide/plugins/com.nxp.mcuxpresso.tools.win32_11.6.1.202207200623/tools/bin/../lib/gcc/arm-none-eabi/10.3.1/../../../../arm-none-eabi/lib/thumb/v7e-m+dp/hard\libnosys.a(getpid.o)
 .data          0x00000000        0x0 c:/nxp/mcuxpressoide_11.6.1_8255/ide/plugins/com.nxp.mcuxpresso.tools.win32_11.6.1.202207200623/tools/bin/../lib/gcc/arm-none-eabi/10.3.1/../../../../arm-none-eabi/lib/thumb/v7e-m+dp/hard\libnosys.a(getpid.o)
 .bss           0x00000000        0x0 c:/nxp/mcuxpressoide_11.6.1_8255/ide/plugins/com.nxp.mcuxpresso.tools.win32_11.6.1.202207200623/tools/bin/../lib/gcc/arm-none-eabi/10.3.1/../../../../arm-none-eabi/lib/thumb/v7e-m+dp/hard\libnosys.a(getpid.o)
 .text          0x00000000        0x0 c:/nxp/mcuxpressoide_11.6.1_8255/ide/plugins/com.nxp.mcuxpresso.tools.win32_11.6.1.202207200623/tools/bin/../lib/gcc/arm-none-eabi/10.3.1/../../../../arm-none-eabi/lib/thumb/v7e-m+dp/hard\libnosys.a(isatty.o)
 .data          0x00000000        0x0 c:/nxp/mcuxpressoide_11.6.1_8255/ide/plugins/com.nxp.mcuxpresso.tools.win32_11.6.1.202207200623/tools/bin/../lib/gcc/arm-none-eabi/10.3.1/../../../../arm-none-eabi/lib/thumb/v7e-m+dp/hard\libnosys.a(isatty.o)
 .bss           0x00000000        0x0 c:/nxp/mcuxpressoide_11.6.1_8255/ide/plugins/com.nxp.mcuxpresso.tools.win32_11.6.1.202207200623/tools/bin/../lib/gcc/arm-none-eabi/10.3.1/../../../../arm-none-eabi/lib/thumb/v7e-m+dp/hard\libnosys.a(isatty.o)
 .text          0x00000000        0x0 c:/nxp/mcuxpressoide_11.6.1_8255/ide/plugins/com.nxp.mcuxpresso.tools.win32_11.6.1.202207200623/tools/bin/../lib/gcc/arm-none-eabi/10.3.1/../../../../arm-none-eabi/lib/thumb/v7e-m+dp/hard\libnosys.a(kill.o)
 .data          0x00000000        0x0 c:/nxp/mcuxpressoide_11.6.1_8255/ide/plugins/com.nxp.mcuxpresso.tools.win32_11.6.1.202207200623/tools/bin/../lib/gcc/arm-none-eabi/10.3.1/../../../../arm-none-eabi/lib/thumb/v7e-m+dp/hard\libnosys.a(kill.o)
 .bss           0x00000000        0x0 c:/nxp/mcuxpressoide_11.6.1_8255/ide/plugins/com.nxp.mcuxpresso.tools.win32_11.6.1.202207200623/tools/bin/../lib/gcc/arm-none-eabi/10.3.1/../../../../arm-none-eabi/lib/thumb/v7e-m+dp/hard\libnosys.a(kill.o)
 .text          0x00000000        0x0 c:/nxp/mcuxpressoide_11.6.1_8255/ide/plugins/com.nxp.mcuxpresso.tools.win32_11.6.1.202207200623/tools/bin/../lib/gcc/arm-none-eabi/10.3.1/../../../../arm-none-eabi/lib/thumb/v7e-m+dp/hard\libnosys.a(lseek.o)
 .data          0x00000000        0x0 c:/nxp/mcuxpressoide_11.6.1_8255/ide/plugins/com.nxp.mcuxpresso.tools.win32_11.6.1.202207200623/tools/bin/../lib/gcc/arm-none-eabi/10.3.1/../../../../arm-none-eabi/lib/thumb/v7e-m+dp/hard\libnosys.a(lseek.o)
 .bss           0x00000000        0x0 c:/nxp/mcuxpressoide_11.6.1_8255/ide/plugins/com.nxp.mcuxpresso.tools.win32_11.6.1.202207200623/tools/bin/../lib/gcc/arm-none-eabi/10.3.1/../../../../arm-none-eabi/lib/thumb/v7e-m+dp/hard\libnosys.a(lseek.o)
 .text          0x00000000        0x0 c:/nxp/mcuxpressoide_11.6.1_8255/ide/plugins/com.nxp.mcuxpresso.tools.win32_11.6.1.202207200623/tools/bin/../lib/gcc/arm-none-eabi/10.3.1/../../../../arm-none-eabi/lib/thumb/v7e-m+dp/hard\libnosys.a(read.o)
 .data          0x00000000        0x0 c:/nxp/mcuxpressoide_11.6.1_8255/ide/plugins/com.nxp.mcuxpresso.tools.win32_11.6.1.202207200623/tools/bin/../lib/gcc/arm-none-eabi/10.3.1/../../../../arm-none-eabi/lib/thumb/v7e-m+dp/hard\libnosys.a(read.o)
 .bss           0x00000000        0x0 c:/nxp/mcuxpressoide_11.6.1_8255/ide/plugins/com.nxp.mcuxpresso.tools.win32_11.6.1.202207200623/tools/bin/../lib/gcc/arm-none-eabi/10.3.1/../../../../arm-none-eabi/lib/thumb/v7e-m+dp/hard\libnosys.a(read.o)
 .text          0x00000000        0x0 c:/nxp/mcuxpressoide_11.6.1_8255/ide/plugins/com.nxp.mcuxpresso.tools.win32_11.6.1.202207200623/tools/bin/../lib/gcc/arm-none-eabi/10.3.1/../../../../arm-none-eabi/lib/thumb/v7e-m+dp/hard\libnosys.a(write.o)
 .data          0x00000000        0x0 c:/nxp/mcuxpressoide_11.6.1_8255/ide/plugins/com.nxp.mcuxpresso.tools.win32_11.6.1.202207200623/tools/bin/../lib/gcc/arm-none-eabi/10.3.1/../../../../arm-none-eabi/lib/thumb/v7e-m+dp/hard\libnosys.a(write.o)
 .bss           0x00000000        0x0 c:/nxp/mcuxpressoide_11.6.1_8255/ide/plugins/com.nxp.mcuxpresso.tools.win32_11.6.1.202207200623/tools/bin/../lib/gcc/arm-none-eabi/10.3.1/../../../../arm-none-eabi/lib/thumb/v7e-m+dp/hard\libnosys.a(write.o)
 .text          0x00000000        0x0 c:/nxp/mcuxpressoide_11.6.1_8255/ide/plugins/com.nxp.mcuxpresso.tools.win32_11.6.1.202207200623/tools/bin/../lib/gcc/arm-none-eabi/10.3.1/../../../../arm-none-eabi/lib/thumb/v7e-m+dp/hard\libnosys.a(_exit.o)
 .data          0x00000000        0x0 c:/nxp/mcuxpressoide_11.6.1_8255/ide/plugins/com.nxp.mcuxpresso.tools.win32_11.6.1.202207200623/tools/bin/../lib/gcc/arm-none-eabi/10.3.1/../../../../arm-none-eabi/lib/thumb/v7e-m+dp/hard\libnosys.a(_exit.o)
 .bss           0x00000000        0x0 c:/nxp/mcuxpressoide_11.6.1_8255/ide/plugins/com.nxp.mcuxpresso.tools.win32_11.6.1.202207200623/tools/bin/../lib/gcc/arm-none-eabi/10.3.1/../../../../arm-none-eabi/lib/thumb/v7e-m+dp/hard\libnosys.a(_exit.o)
 .text          0x00000000        0x0 c:/nxp/mcuxpressoide_11.6.1_8255/ide/plugins/com.nxp.mcuxpresso.tools.win32_11.6.1.202207200623/tools/bin/../lib/gcc/arm-none-eabi/10.3.1/../../../../arm-none-eabi/lib/thumb/v7e-m+dp/hard\libc_nano.a(lib_a-errno.o)
 .data          0x00000000        0x0 c:/nxp/mcuxpressoide_11.6.1_8255/ide/plugins/com.nxp.mcuxpresso.tools.win32_11.6.1.202207200623/tools/bin/../lib/gcc/arm-none-eabi/10.3.1/../../../../arm-none-eabi/lib/thumb/v7e-m+dp/hard\libc_nano.a(lib_a-errno.o)
 .bss           0x00000000        0x0 c:/nxp/mcuxpressoide_11.6.1_8255/ide/plugins/com.nxp.mcuxpresso.tools.win32_11.6.1.202207200623/tools/bin/../lib/gcc/arm-none-eabi/10.3.1/../../../../arm-none-eabi/lib/thumb/v7e-m+dp/hard\libc_nano.a(lib_a-errno.o)

Memory Configuration

Name             Origin             Length             Attributes
m_interrupts     0x20002000         0x00000400         xr
m_text           0x20002400         0x0001afff         rw
m_data           0x20208000         0x00018000         rw
*default*        0x00000000         0xffffffff

Linker script and memory map

LOAD ./usb/phy/usb_phy.o
LOAD ./usb/device/source/ehci/usb_device_ehci.o
LOAD ./usb/device/source/usb_device_ch9.o
LOAD ./usb/device/source/usb_device_dci.o
LOAD ./usb/device/class/hid/usb_device_hid.o
LOAD ./usb/device/class/usb_device_class.o
LOAD ./startup/crt0_gcc.o
LOAD ./startup/startup.o
LOAD ./startup/startup_MIMXRT1052.o
LOAD ./source/utilities/src/debug_util.o
LOAD ./source/utilities/src/fsl_assert.o
LOAD ./source/utilities/src/fsl_rtos_abstraction.o
LOAD ./source/usb/bm_composite/composite.o
LOAD ./source/usb/bm_composite/hid_bootloader.o
LOAD ./source/usb/bm_composite/usb_descriptor.o
LOAD ./source/sbloader/src/sbloader.o
LOAD ./source/property/src/property_imx.o
LOAD ./source/packet/src/serial_packet.o
LOAD ./source/memory/src/flexspi_nor_memory.o
LOAD ./source/memory/src/memory.o
LOAD ./source/memory/src/mmc_memory.o
LOAD ./source/memory/src/normal_memory.o
LOAD ./source/memory/src/pattern_fill_gcc.o
LOAD ./source/memory/src/sd_memory.o
LOAD ./source/memory/src/semc_nand_memory.o
LOAD ./source/memory/src/semc_nor_memory.o
LOAD ./source/memory/src/spi_nor_eeprom_memory.o
LOAD ./source/memory/src/spinand_memory.o
LOAD ./source/memory/src/sram_init_MIMXRT1052.o
LOAD ./source/drivers/usdhc/bl_usdhc.o
LOAD ./source/drivers/trng/bl_trng.o
LOAD ./source/drivers/serial_nor_eeprom/serial_nor_eeprom.o
LOAD ./source/drivers/semc_nor/semc_nor_flash.o
LOAD ./source/drivers/semc_nand/semc_nand_flash.o
LOAD ./source/drivers/semc/bl_semc.o
LOAD ./source/drivers/sdmmc/fsl_mmc.o
LOAD ./source/drivers/sdmmc/fsl_sd.o
LOAD ./source/drivers/sdmmc/fsl_sdmmc_common.o
LOAD ./source/drivers/sdmmc/fsl_sdmmc_host.o
LOAD ./source/drivers/ocotp/bl_ocotp.o
LOAD ./source/drivers/nand_ecc/nand_ecc.o
LOAD ./source/drivers/microseconds/microseconds_pit.o
LOAD ./source/drivers/flexspi_nor/flexspi_nor_flash.o
LOAD ./source/drivers/flexspi_nand/flexspi_nand_flash.o
LOAD ./source/drivers/flexspi/bl_flexspi.o
LOAD ./source/drivers/dcp/bl_dcp.o
LOAD ./source/crc/crc16.o
LOAD ./source/crc/crc32.o
LOAD ./source/bootloader/src/bl_app_crc_check.o
LOAD ./source/bootloader/src/bl_command.o
LOAD ./source/bootloader/src/bl_context.o
LOAD ./source/bootloader/src/bl_exception_handler.o
LOAD ./source/bootloader/src/bl_keyblob.o
LOAD ./source/bootloader/src/bl_keyblob_dcp.o
LOAD ./source/bootloader/src/bl_main.o
LOAD ./source/bootloader/src/bl_misc.o
LOAD ./source/bootloader/src/bl_nor_encrypt_bee.o
LOAD ./source/bootloader/src/bl_shutdown_cleanup.o
LOAD ./source/bootloader/src/bl_tree_root.o
LOAD ./source/bootloader/src/bl_user_entry.o
LOAD ./source/bootloader/src/lpuart_peripheral_interface.o
LOAD ./source/bootloader/src/usb_hid_msc_peripheral_interface.o
LOAD ./source/autobaud/autobaud_irq.o
LOAD ./source/semihost_hardfault.o
LOAD ./drivers/fsl_clock.o
LOAD ./drivers/fsl_common.o
LOAD ./drivers/fsl_common_arm.o
LOAD ./drivers/fsl_gpio.o
LOAD ./drivers/fsl_lpspi.o
LOAD ./drivers/fsl_lpuart.o
LOAD ./device/system_MIMXRT1052.o
LOAD ./component/osa/fsl_os_abstraction_bm.o
LOAD ./component/lists/fsl_component_generic_list.o
LOAD ./board/pin_mux.o
LOAD ./MIMXRT1052/bl_clock_config_MIMXRT1052.o
LOAD ./MIMXRT1052/bl_lpuart_irq_config_MIMXRT1052.o
LOAD ./MIMXRT1052/bl_peripherals_MIMXRT1052.o
LOAD ./MIMXRT1052/external_memory_property_map_MIMXRT1052.o
LOAD ./MIMXRT1052/flexspi_nand_config_MIMXRT1052.o
LOAD ./MIMXRT1052/flexspi_nor_config_MIMXRT1052.o
LOAD ./MIMXRT1052/hardware_init_MIMXRT1052.o
LOAD ./MIMXRT1052/memory_map_MIMXRT1052.o
LOAD ./MIMXRT1052/pinmux_utility_imxrt_series.o
LOAD ./MIMXRT1052/sdmmc_config_MIMXRT1052.o
LOAD ./MIMXRT1052/semc_nand_config_MIMXRT1052.o
LOAD ./MIMXRT1052/semc_nor_config_MIMXRT1052.o
                0x00000000                HEAP_SIZE = DEFINED (__heap_size__)?__heap_size__:0x0
                0x00002000                STACK_SIZE = DEFINED (__stack_size__)?__stack_size__:0x2000
START GROUP
LOAD c:/nxp/mcuxpressoide_11.6.1_8255/ide/plugins/com.nxp.mcuxpresso.tools.win32_11.6.1.202207200623/tools/bin/../lib/gcc/arm-none-eabi/10.3.1/../../../../arm-none-eabi/lib/thumb/v7e-m+dp/hard\libnosys.a
LOAD c:/nxp/mcuxpressoide_11.6.1_8255/ide/plugins/com.nxp.mcuxpresso.tools.win32_11.6.1.202207200623/tools/bin/../lib/gcc/arm-none-eabi/10.3.1/thumb/v7e-m+dp/hard\libgcc.a
LOAD c:/nxp/mcuxpressoide_11.6.1_8255/ide/plugins/com.nxp.mcuxpresso.tools.win32_11.6.1.202207200623/tools/bin/../lib/gcc/arm-none-eabi/10.3.1/../../../../arm-none-eabi/lib/thumb/v7e-m+dp/hard\libc_nano.a
LOAD c:/nxp/mcuxpressoide_11.6.1_8255/ide/plugins/com.nxp.mcuxpresso.tools.win32_11.6.1.202207200623/tools/bin/../lib/gcc/arm-none-eabi/10.3.1/../../../../arm-none-eabi/lib/thumb/v7e-m+dp/hard\libm.a
LOAD c:/nxp/mcuxpressoide_11.6.1_8255/ide/plugins/com.nxp.mcuxpresso.tools.win32_11.6.1.202207200623/tools/bin/../lib/gcc/arm-none-eabi/10.3.1/../../../../arm-none-eabi/lib/thumb/v7e-m+dp/hard\libcr_newlib_none.a
END GROUP

.interrupts     0x20002000      0x400
                0x20002000                __VECTOR_TABLE = .
                0x20002000                __Vectors = .
                0x20002000                . = ALIGN (0x4)
 *(SORT_BY_ALIGNMENT(.isr_vector))
 .isr_vector    0x20002000      0x400 ./startup/startup_MIMXRT1052.o
                0x20002000                __isr_vector
                0x20002400                . = ALIGN (0x4)
                0x20002000                __VECTOR_RAM = __VECTOR_TABLE
                0x00000000                __RAM_VECTOR_TABLE_SIZE_BYTES = 0x0

.text           0x20002400    0x18704
                0x20002400                . = ALIGN (0x4)
 *(SORT_BY_ALIGNMENT(.text))
 .text          0x20002400       0xa0 c:/nxp/mcuxpressoide_11.6.1_8255/ide/plugins/com.nxp.mcuxpresso.tools.win32_11.6.1.202207200623/tools/bin/../lib/gcc/arm-none-eabi/10.3.1/../../../../arm-none-eabi/lib/thumb/v7e-m+dp/hard\libc_nano.a(lib_a-memchr.o)
                0x20002400                memchr
 .text          0x200024a0       0x68 ./startup/crt0_gcc.o
                0x200024a0                Reset_Handler
 .text          0x20002508      0x144 ./startup/startup_MIMXRT1052.o
                0x20002550                Reserved18_IRQHandler
                0x20002550                USB_PHY1_IRQHandler
                0x20002550                Reserved16_IRQHandler
                0x20002550                ADC_ETC_IRQ0_IRQHandler
                0x20002550                DebugMon_Handler
                0x20002550                Reserved65_IRQHandler
                0x20002550                Reserved86_IRQHandler
                0x20002550                SRC_IRQHandler
                0x20002550                Reserved60_IRQHandler
                0x20002550                GPIO2_Combined_0_15_IRQHandler
                0x20002550                SPDIF_DriverIRQHandler
                0x20002550                GPIO1_INT2_IRQHandler
                0x20002550                CTI1_ERROR_IRQHandler
                0x20002550                SNVS_LP_WRAPPER_IRQHandler
                0x20002550                ENC2_IRQHandler
                0x20002550                PWM2_2_IRQHandler
                0x20002550                PWM3_FAULT_IRQHandler
                0x20002550                TRNG_IRQHandler
                0x20002550                PWM4_FAULT_IRQHandler
                0x20002550                Reserved19_IRQHandler
                0x20002550                Reserved74_IRQHandler
                0x20002550                GPIO1_INT7_IRQHandler
                0x20002550                CCM_1_IRQHandler
                0x20002550                TMR1_IRQHandler
                0x20002550                Reserved59_IRQHandler
                0x20002550                Reserved79_IRQHandler
                0x20002550                ADC_ETC_IRQ1_IRQHandler
                0x20002550                CAN1_DriverIRQHandler
                0x20002550                Reserved29_IRQHandler
                0x20002550                PWM4_0_IRQHandler
                0x20002550                LPI2C2_DriverIRQHandler
                0x20002550                CTI0_ERROR_IRQHandler
                0x20002550                GPIO5_Combined_0_15_IRQHandler
                0x20002550                PWM1_0_IRQHandler
                0x20002550                Reserved77_IRQHandler
                0x20002550                LPI2C3_DriverIRQHandler
                0x20002550                ACMP_IRQ2_IRQHandler
                0x20002550                USB_PHY2_IRQHandler
                0x20002550                TSC_DIG_IRQHandler
                0x20002550                GPIO4_Combined_0_15_IRQHandler
                0x20002550                ENC4_IRQHandler
                0x20002550                GPIO4_Combined_16_31_IRQHandler
                0x20002550                PWM2_0_IRQHandler
                0x20002550                DCP_VMI_IRQHandler
                0x20002550                Reserved22_IRQHandler
                0x20002550                Reserved75_IRQHandler
                0x20002550                ENET_1588_Timer_DriverIRQHandler
                0x20002550                Reserved87_IRQHandler
                0x20002550                PWM2_1_IRQHandler
                0x20002550                PWM2_FAULT_IRQHandler
                0x20002550                FLEXIO2_DriverIRQHandler
                0x20002550                UsageFault_Handler
                0x20002550                WDOG1_IRQHandler
                0x20002550                BusFault_Handler
                0x20002550                GPT1_IRQHandler
                0x20002550                FLEXRAM_IRQHandler
                0x20002550                PWM4_1_IRQHandler
                0x20002550                USB_OTG2_IRQHandler
                0x20002550                SEMC_IRQHandler
                0x20002550                DefaultISR
                0x20002550                Reserved58_IRQHandler
                0x20002550                PWM1_1_IRQHandler
                0x20002550                GPT2_IRQHandler
                0x20002550                Reserved25_IRQHandler
                0x20002550                Reserved24_IRQHandler
                0x20002550                PWM3_0_IRQHandler
                0x20002550                Reserved132_IRQHandler
                0x20002550                PWM3_3_IRQHandler
                0x20002550                GPIO1_INT0_IRQHandler
                0x20002550                Reserved80_IRQHandler
                0x20002550                Reserved70_IRQHandler
                0x20002550                ADC1_IRQHandler
                0x20002550                FLEXIO1_DriverIRQHandler
                0x20002550                ENET_DriverIRQHandler
                0x20002550                Reserved21_IRQHandler
                0x20002550                GPIO1_Combined_16_31_IRQHandler
                0x20002550                Reserved28_IRQHandler
                0x20002550                RTWDOG_IRQHandler
                0x20002550                Reserved78_IRQHandler
                0x20002550                ENC3_IRQHandler
                0x20002550                ACMP_IRQ3_IRQHandler
                0x20002550                GPIO3_Combined_16_31_IRQHandler
                0x20002550                EWM_IRQHandler
                0x20002550                Reserved27_IRQHandler
                0x20002550                WDOG2_IRQHandler
                0x20002550                GPIO1_INT5_IRQHandler
                0x20002550                FLEXSPI_DriverIRQHandler
                0x20002550                ACMP_IRQ1_IRQHandler
                0x20002550                PWM3_1_IRQHandler
                0x20002550                PWM2_3_IRQHandler
                0x20002550                CORE_IRQHandler
                0x20002550                SNVS_HP_WRAPPER_TZ_IRQHandler
                0x20002550                GPIO1_INT6_IRQHandler
                0x20002550                PWM1_2_IRQHandler
                0x20002550                Reserved72_IRQHandler
                0x20002550                Reserved144_IRQHandler
                0x20002550                GPR_IRQ_IRQHandler
                0x20002550                GPC_IRQHandler
                0x20002550                DCDC_IRQHandler
                0x20002550                GPIO3_Combined_0_15_IRQHandler
                0x20002550                PWM4_3_IRQHandler
                0x20002550                Reserved20_IRQHandler
                0x20002550                ADC_5HC_IRQHandler
                0x20002550                Reserved17_IRQHandler
                0x20002550                CAN2_DriverIRQHandler
                0x20002550                GPIO5_Combined_16_31_IRQHandler
                0x20002550                TMR2_IRQHandler
                0x20002550                Reserved32_IRQHandler
                0x20002550                ADC_ETC_ERROR_IRQ_IRQHandler
                0x20002550                PWM4_2_IRQHandler
                0x20002550                BEE_IRQHandler
                0x20002550                GPIO1_INT1_IRQHandler
                0x20002550                DCP_SECURE_IRQHandler
                0x20002550                ADC_ETC_IRQ2_IRQHandler
                0x20002550                Reserved31_IRQHandler
                0x20002550                GPIO1_INT4_IRQHandler
                0x20002550                CCM_2_IRQHandler
                0x20002550                KPP_IRQHandler
                0x20002550                Reserved73_IRQHandler
                0x20002550                MemManage_Handler
                0x20002550                Reserved133_IRQHandler
                0x20002550                PIT_IRQHandler
                0x20002550                Reserved115_IRQHandler
                0x20002550                SNVS_HP_WRAPPER_IRQHandler
                0x20002550                Reserved30_IRQHandler
                0x20002550                ACMP_IRQ4_IRQHandler
                0x20002550                TMR3_IRQHandler
                0x20002550                PWM3_2_IRQHandler
                0x20002550                LPI2C1_DriverIRQHandler
                0x20002550                DCP_IRQHandler
                0x20002550                Reserved123_IRQHandler
                0x20002550                LPI2C4_DriverIRQHandler
                0x20002550                GPIO1_INT3_IRQHandler
                0x20002550                Reserved26_IRQHandler
                0x20002550                TMR4_IRQHandler
                0x20002550                ENC1_IRQHandler
                0x20002550                PWM1_FAULT_IRQHandler
                0x20002550                Reserved143_IRQHandler
                0x20002550                Reserved23_IRQHandler
                0x20002550                GPIO2_Combined_16_31_IRQHandler
                0x20002550                PWM1_3_IRQHandler
                0x20002554                NMI_Handler
                0x2000255c                SVC_Handler
                0x20002560                PendSV_Handler
                0x20002564                SysTick_Handler
                0x2000256c                LPUART2_IRQHandler
                0x20002570                LPUART3_IRQHandler
                0x20002574                LPUART4_IRQHandler
                0x20002578                LPUART5_IRQHandler
                0x2000257c                LPUART6_IRQHandler
                0x20002580                LPUART7_IRQHandler
                0x20002584                LPUART8_IRQHandler
                0x20002588                LPI2C1_IRQHandler
                0x2000258c                LPI2C2_IRQHandler
                0x20002590                LPI2C3_IRQHandler
                0x20002594                LPI2C4_IRQHandler
                0x20002598                LPSPI1_IRQHandler
                0x2000259c                LPSPI2_IRQHandler
                0x200025a0                LPSPI3_IRQHandler
                0x200025a4                LPSPI4_IRQHandler
                0x200025a8                CAN1_IRQHandler
                0x200025ac                CAN2_IRQHandler
                0x200025b0                SPDIF_IRQHandler
                0x200025b4                FLEXIO1_IRQHandler
                0x200025b8                FLEXIO2_IRQHandler
                0x200025bc                FLEXSPI_IRQHandler
                0x200025c0                USDHC1_IRQHandler
                0x200025c4                USDHC2_IRQHandler
                0x200025c8                ENET_IRQHandler
                0x200025cc                ENET_1588_Timer_IRQHandler
 .text          0x2000264c       0x7c ./source/memory/src/pattern_fill_gcc.o
                0x2000264c                pattern_fill
 .text          0x200026c8       0x30 c:/nxp/mcuxpressoide_11.6.1_8255/ide/plugins/com.nxp.mcuxpresso.tools.win32_11.6.1.202207200623/tools/bin/../lib/gcc/arm-none-eabi/10.3.1/thumb/v7e-m+dp/hard\libgcc.a(_aeabi_uldivmod.o)
                0x200026c8                __aeabi_uldivmod
 .text          0x200026f8      0x2d0 c:/nxp/mcuxpressoide_11.6.1_8255/ide/plugins/com.nxp.mcuxpresso.tools.win32_11.6.1.202207200623/tools/bin/../lib/gcc/arm-none-eabi/10.3.1/thumb/v7e-m+dp/hard\libgcc.a(_udivmoddi4.o)
                0x200026f8                __udivmoddi4
 .text          0x200029c8        0x4 c:/nxp/mcuxpressoide_11.6.1_8255/ide/plugins/com.nxp.mcuxpresso.tools.win32_11.6.1.202207200623/tools/bin/../lib/gcc/arm-none-eabi/10.3.1/thumb/v7e-m+dp/hard\libgcc.a(_dvmd_tls.o)
                0x200029c8                __aeabi_idiv0
                0x200029c8                __aeabi_ldiv0
 *(SORT_BY_ALIGNMENT(.text*))
 *fill*         0x200029cc        0x4 
 .text.ocotp_init
                0x200029d0       0x84 ./source/drivers/ocotp/bl_ocotp.o
                0x200029d0                ocotp_init
 *fill*         0x20002a54        0x4 
 .text.LPSPI_MasterSetDelayTimes
                0x20002a58      0x104 ./drivers/fsl_lpspi.o
                0x20002a58                LPSPI_MasterSetDelayTimes
 .text.USB_DeviceEhciTransfer
                0x20002b5c      0x228 ./usb/device/source/ehci/usb_device_ehci.o
 .text.USB_DeviceEhciCancelControlPipe
                0x20002d84       0xd0 ./usb/device/source/ehci/usb_device_ehci.o
 .text.USB_DeviceEhciInit
                0x20002e54       0xd0 ./usb/device/source/ehci/usb_device_ehci.o
                0x20002e54                USB_DeviceEhciInit
 .text.USB_DeviceEhciDeinit
                0x20002f24       0x4c ./usb/device/source/ehci/usb_device_ehci.o
                0x20002f24                USB_DeviceEhciDeinit
 .text.USB_DeviceEhciCancel
                0x20002f70      0x14c ./usb/device/source/ehci/usb_device_ehci.o
                0x20002f70                USB_DeviceEhciCancel
 .text.USB_DeviceControlCallback
                0x200030bc      0x1d8 ./usb/device/source/usb_device_ch9.o
 .text.USB_DeviceControlPipeInit
                0x20003294       0x50 ./usb/device/source/usb_device_ch9.o
                0x20003294                USB_DeviceControlPipeInit
 .text.USB_DeviceInit
                0x200032e4      0x100 ./usb/device/source/usb_device_dci.o
                0x200032e4                USB_DeviceInit
 .text.USB_DeviceHidEndpointsInit
                0x200033e4       0xe8 ./usb/device/class/hid/usb_device_hid.o
 .text.USB_DeviceHidInit
                0x200034cc       0x30 ./usb/device/class/hid/usb_device_hid.o
                0x200034cc                USB_DeviceHidInit
 .text.USB_DeviceClassGetHandleByDeviceHandle
                0x200034fc       0x40 ./usb/device/class/usb_device_class.o
 .text.USB_DeviceClassGetHandleByControllerId
                0x2000353c       0x48 ./usb/device/class/usb_device_class.o
 .text.USB_DeviceClassFreeHandle.isra.0
                0x20003584       0x48 ./usb/device/class/usb_device_class.o
 .text.USB_DeviceClassGetDeviceHandle
                0x200035cc       0x44 ./usb/device/class/usb_device_class.o
                0x200035cc                USB_DeviceClassGetDeviceHandle
 .text.USB_DeviceClassInit
                0x20003610       0xec ./usb/device/class/usb_device_class.o
                0x20003610                USB_DeviceClassInit
 .text.init_data_bss
                0x200036fc       0x6c ./startup/startup.o
                0x200036fc                init_data_bss
 .text.init_interrupts
                0x20003768       0x4c ./startup/startup.o
                0x20003768                init_interrupts
 .text.debug_printf
                0x200037b4      0x13c ./source/utilities/src/debug_util.o
                0x200037b4                debug_printf
 .text.sync_wait
                0x200038f0       0x28 ./source/utilities/src/fsl_rtos_abstraction.o
                0x200038f0                sync_wait
 .text.sync_signal
                0x20003918       0x20 ./source/utilities/src/fsl_rtos_abstraction.o
                0x20003918                sync_signal
 .text.lock_acquire
                0x20003938        0xc ./source/utilities/src/fsl_rtos_abstraction.o
                0x20003938                lock_acquire
 .text.lock_release
                0x20003944        0xc ./source/utilities/src/fsl_rtos_abstraction.o
                0x20003944                lock_release
 .text.usb_device_hid_generic_callback
                0x20003950       0x70 ./source/usb/bm_composite/hid_bootloader.o
                0x20003950                usb_device_hid_generic_callback
 .text.usb_device_hid_generic_set_configure
                0x200039c0       0x30 ./source/usb/bm_composite/hid_bootloader.o
                0x200039c0                usb_device_hid_generic_set_configure
 .text.usb_device_hid_generic_set_interface
                0x200039f0       0x24 ./source/usb/bm_composite/hid_bootloader.o
                0x200039f0                usb_device_hid_generic_set_interface
 .text.usb_device_hid_generic_init
                0x20003a14        0xc ./source/usb/bm_composite/hid_bootloader.o
                0x20003a14                usb_device_hid_generic_init
 .text.usb_device_hid_generic_deinit
                0x20003a20       0x10 ./source/usb/bm_composite/hid_bootloader.o
                0x20003a20                usb_device_hid_generic_deinit
 .text.usb_device_get_hid_report_descriptor
                0x20003a30       0x18 ./source/usb/bm_composite/usb_descriptor.o
                0x20003a30                usb_device_get_hid_report_descriptor
 .text.usb_device_get_device_descriptor
                0x20003a48       0x10 ./source/usb/bm_composite/usb_descriptor.o
                0x20003a48                usb_device_get_device_descriptor
 .text.usb_device_get_configuration_descriptor
                0x20003a58       0x18 ./source/usb/bm_composite/usb_descriptor.o
                0x20003a58                usb_device_get_configuration_descriptor
 .text.usb_device_get_string_descriptor
                0x20003a70       0x40 ./source/usb/bm_composite/usb_descriptor.o
                0x20003a70                usb_device_get_string_descriptor
 .text.usb_device_set_speed
                0x20003ab0       0x6c ./source/usb/bm_composite/usb_descriptor.o
                0x20003ab0                usb_device_set_speed
 .text.ldr_DoHeader
                0x20003b1c        0xc ./source/sbloader/src/sbloader.o
                0x20003b1c                ldr_DoHeader
 .text.ldr_DoHeader1
                0x20003b28       0x30 ./source/sbloader/src/sbloader.o
                0x20003b28                ldr_DoHeader1
 .text.ldr_DoLoadBytes
                0x20003b58       0x80 ./source/sbloader/src/sbloader.o
                0x20003b58                ldr_DoLoadBytes
 .text.ldr_DoLoadChunks
                0x20003bd8       0xa4 ./source/sbloader/src/sbloader.o
                0x20003bd8                ldr_DoLoadChunks
 .text.ldr_GoToNextSection
                0x20003c7c       0x24 ./source/sbloader/src/sbloader.o
                0x20003c7c                ldr_GoToNextSection
 .text.ldr_DoHeader2
                0x20003ca0       0x38 ./source/sbloader/src/sbloader.o
                0x20003ca0                ldr_DoHeader2
 .text.ldr_DoLoadCmd
                0x20003cd8       0x24 ./source/sbloader/src/sbloader.o
                0x20003cd8                ldr_DoLoadCmd
 .text.ldr_DoFillCmd
                0x20003cfc       0x14 ./source/sbloader/src/sbloader.o
                0x20003cfc                ldr_DoFillCmd
 .text.ldr_DoProgramCmd
                0x20003d10       0x30 ./source/sbloader/src/sbloader.o
                0x20003d10                ldr_DoProgramCmd
 .text.ldr_DoEraseCmd
                0x20003d40       0x54 ./source/sbloader/src/sbloader.o
                0x20003d40                ldr_DoEraseCmd
 .text.ldr_DoMemEnableCmd
                0x20003d94       0x60 ./source/sbloader/src/sbloader.o
                0x20003d94                ldr_DoMemEnableCmd
 .text.sbloader_init
                0x20003df4       0x20 ./source/sbloader/src/sbloader.o
                0x20003df4                sbloader_init
 .text.ldr_DoCommand
                0x20003e14       0xa8 ./source/sbloader/src/sbloader.o
                0x20003e14                ldr_DoCommand
 .text.sbloader_handle_chunk
                0x20003ebc       0x30 ./source/sbloader/src/sbloader.o
                0x20003ebc                sbloader_handle_chunk
 .text.sbloader_pump
                0x20003eec       0x50 ./source/sbloader/src/sbloader.o
                0x20003eec                sbloader_pump
 .text.sbloader_finalize
                0x20003f3c       0xbc ./source/sbloader/src/sbloader.o
                0x20003f3c                sbloader_finalize
 .text.bootloader_property_load_user_config
                0x20003ff8       0x38 ./source/property/src/property_imx.o
                0x20003ff8                bootloader_property_load_user_config
 .text.bootloader_property_init
                0x20004030       0xb0 ./source/property/src/property_imx.o
                0x20004030                bootloader_property_init
 .text.bootloader_get_external_memory_properties
                0x200040e0       0x7c ./source/property/src/property_imx.o
                0x200040e0                bootloader_get_external_memory_properties
 .text.bootloader_property_get
                0x2000415c       0xc0 ./source/property/src/property_imx.o
                0x2000415c                bootloader_property_get
 .text.serial_packet_queue_byte
                0x2000421c       0x24 ./source/packet/src/serial_packet.o
                0x2000421c                serial_packet_queue_byte
 .text.write_data
                0x20004240       0x1c ./source/packet/src/serial_packet.o
 .text.read_data
                0x2000425c       0xc0 ./source/packet/src/serial_packet.o
 .text.serial_packet_abort
                0x2000431c       0x34 ./source/packet/src/serial_packet.o
                0x2000431c                serial_packet_abort
 .text.serial_packet_send_sync
                0x20004350       0x3c ./source/packet/src/serial_packet.o
                0x20004350                serial_packet_send_sync
 .text.send_deferred_ack
                0x2000438c       0x28 ./source/packet/src/serial_packet.o
 .text.serial_packet_write
                0x200043b4       0xd8 ./source/packet/src/serial_packet.o
                0x200043b4                serial_packet_write
 .text.serial_send_ping_response
                0x2000448c       0x64 ./source/packet/src/serial_packet.o
                0x2000448c                serial_send_ping_response
 .text.serial_packet_read
                0x200044f0      0x12c ./source/packet/src/serial_packet.o
                0x200044f0                serial_packet_read
 .text.is_flexspi_nor_mem_erased
                0x2000461c       0x58 ./source/memory/src/flexspi_nor_memory.o
 .text.flexspi_nor_mem_erase
                0x20004674       0xbc ./source/memory/src/flexspi_nor_memory.o
                0x20004674                flexspi_nor_mem_erase
 .text.flexspi_nor_memory_check.constprop.0
                0x20004730       0x5c ./source/memory/src/flexspi_nor_memory.o
 .text.flexspi_nor_mem_flush
                0x2000478c       0xe0 ./source/memory/src/flexspi_nor_memory.o
                0x2000478c                flexspi_nor_mem_flush
 .text.flexspi_nor_mem_write
                0x2000486c       0xd8 ./source/memory/src/flexspi_nor_memory.o
                0x2000486c                flexspi_nor_mem_write
 .text.flexspi_nor_mem_fill
                0x20004944       0x50 ./source/memory/src/flexspi_nor_memory.o
                0x20004944                flexspi_nor_mem_fill
 .text.flexspi_nor_mem_read
                0x20004994       0x2c ./source/memory/src/flexspi_nor_memory.o
                0x20004994                flexspi_nor_mem_read
 .text.flexspi_nor_get_property
                0x200049c0       0x88 ./source/memory/src/flexspi_nor_memory.o
                0x200049c0                flexspi_nor_get_property
 .text.flexspi_nor_mem_config.part.0
                0x20004a48      0x2e0 ./source/memory/src/flexspi_nor_memory.o
 .text.flexspi_nor_mem_erase_all
                0x20004d28       0x60 ./source/memory/src/flexspi_nor_memory.o
                0x20004d28                flexspi_nor_mem_erase_all
 .text.mem_flush
                0x20004d88       0x14 ./source/memory/src/memory.o
                0x20004d88                mem_flush
 .text.mem_finalize
                0x20004d9c       0x14 ./source/memory/src/memory.o
                0x20004d9c                mem_finalize
 .text.mem_init
                0x20004db0       0x2c ./source/memory/src/memory.o
                0x20004db0                mem_init
 .text.find_map_entry
                0x20004ddc       0x60 ./source/memory/src/memory.o
                0x20004ddc                find_map_entry
 .text.find_external_map_entry
                0x20004e3c       0x70 ./source/memory/src/memory.o
                0x20004e3c                find_external_map_entry
 .text.mem_read
                0x20004eac       0x5c ./source/memory/src/memory.o
                0x20004eac                mem_read
 .text.find_external_map_index
                0x20004f08       0x2c ./source/memory/src/memory.o
                0x20004f08                find_external_map_index
 .text.mem_is_block_reserved
                0x20004f34       0x4c ./source/memory/src/memory.o
                0x20004f34                mem_is_block_reserved
 .text.mem_write
                0x20004f80       0x94 ./source/memory/src/memory.o
                0x20004f80                mem_write
 .text.mem_config
                0x20005014       0x5c ./source/memory/src/memory.o
                0x20005014                mem_config
 .text.mmc_mem_finalize
                0x20005070       0x14 ./source/memory/src/mmc_memory.o
                0x20005070                mmc_mem_finalize
 .text.is_erased_memory
                0x20005084       0x4c ./source/memory/src/mmc_memory.o
 .text.mmc_mem_read
                0x200050d0       0xc0 ./source/memory/src/mmc_memory.o
                0x200050d0                mmc_mem_read
 .text.mmc_mem_flush_buffer
                0x20005190       0xa4 ./source/memory/src/mmc_memory.o
 .text.mmc_mem_write
                0x20005234       0xe0 ./source/memory/src/mmc_memory.o
                0x20005234                mmc_mem_write
 .text.mmc_mem_flush
                0x20005314       0x14 ./source/memory/src/mmc_memory.o
                0x20005314                mmc_mem_flush
 .text.mmc_mem_erase
                0x20005328       0x54 ./source/memory/src/mmc_memory.o
                0x20005328                mmc_mem_erase
 .text.get_current_block_count.constprop.0
                0x2000537c       0x48 ./source/memory/src/mmc_memory.o
 .text.mmc_get_property.part.0
                0x200053c4       0x28 ./source/memory/src/mmc_memory.o
 .text.mmc_mem_config
                0x200053ec      0x26c ./source/memory/src/mmc_memory.o
                0x200053ec                mmc_mem_config
 .text.mmc_mem_erase_all
                0x20005658       0x40 ./source/memory/src/mmc_memory.o
                0x20005658                mmc_mem_erase_all
 .text.mmc_mem_init
                0x20005698       0x60 ./source/memory/src/mmc_memory.o
                0x20005698                mmc_mem_init
 .text.mmc_get_property
                0x200056f8       0x44 ./source/memory/src/mmc_memory.o
                0x200056f8                mmc_get_property
 .text.sd_mem_finalize
                0x2000573c       0x14 ./source/memory/src/sd_memory.o
                0x2000573c                sd_mem_finalize
 .text.is_erased_memory
                0x20005750       0x4c ./source/memory/src/sd_memory.o
 .text.sd_mem_read
                0x2000579c       0xc0 ./source/memory/src/sd_memory.o
                0x2000579c                sd_mem_read
 .text.sd_mem_flush_buffer
                0x2000585c       0x94 ./source/memory/src/sd_memory.o
 .text.sd_mem_write
                0x200058f0       0xec ./source/memory/src/sd_memory.o
                0x200058f0                sd_mem_write
 .text.sd_mem_flush
                0x200059dc       0x14 ./source/memory/src/sd_memory.o
                0x200059dc                sd_mem_flush
 .text.sd_mem_init
                0x200059f0       0x4c ./source/memory/src/sd_memory.o
                0x200059f0                sd_mem_init
 .text.sd_mem_erase
                0x20005a3c       0x44 ./source/memory/src/sd_memory.o
                0x20005a3c                sd_mem_erase
 .text.sd_mem_erase_all
                0x20005a80       0x3c ./source/memory/src/sd_memory.o
                0x20005a80                sd_mem_erase_all
 .text.sd_mem_config
                0x20005abc      0x1ec ./source/memory/src/sd_memory.o
                0x20005abc                sd_mem_config
 .text.sd_get_property
                0x20005ca8       0x50 ./source/memory/src/sd_memory.o
                0x20005ca8                sd_get_property
 .text.is_semc_nand_page_in_bad_block
                0x20005cf8       0x34 ./source/memory/src/semc_nand_memory.o
 .text.semc_nand_validate_bcb
                0x20005d2c       0x40 ./source/memory/src/semc_nand_memory.o
 .text.semc_nand_update_memory_map
                0x20005d6c       0x3c ./source/memory/src/semc_nand_memory.o
 .text.semc_nand_record_bad_block.isra.0
                0x20005da8       0x24 ./source/memory/src/semc_nand_memory.o
 .text.semc_nand_creat_empty_fcb.isra.0
                0x20005dcc       0x30 ./source/memory/src/semc_nand_memory.o
 .text.semc_nand_erase_verify_block
                0x20005dfc       0x2c ./source/memory/src/semc_nand_memory.o
 .text.semc_nand_write_verify_memory
                0x20005e28       0x6c ./source/memory/src/semc_nand_memory.o
 .text.semc_nand_flush_one_page_from_buffer
                0x20005e94      0x138 ./source/memory/src/semc_nand_memory.o
 .text.semc_nand_mem_write
                0x20005fcc      0x118 ./source/memory/src/semc_nand_memory.o
                0x20005fcc                semc_nand_mem_write
 .text.semc_nand_mem_flush
                0x200060e4       0x10 ./source/memory/src/semc_nand_memory.o
                0x200060e4                semc_nand_mem_flush
 .text.semc_nand_mem_read
                0x200060f4       0xf8 ./source/memory/src/semc_nand_memory.o
                0x200060f4                semc_nand_mem_read
 .text.semc_nand_search_bcb
                0x200061ec       0x70 ./source/memory/src/semc_nand_memory.o
 .text.semc_nand_mem_init
                0x2000625c       0x98 ./source/memory/src/semc_nand_memory.o
                0x2000625c                semc_nand_mem_init
 .text.semc_nand_update_bcb
                0x200062f4      0x110 ./source/memory/src/semc_nand_memory.o
 .text.semc_nand_mem_erase
                0x20006404       0xa4 ./source/memory/src/semc_nand_memory.o
                0x20006404                semc_nand_mem_erase
 .text.semc_nand_mem_finalize
                0x200064a8       0x28 ./source/memory/src/semc_nand_memory.o
                0x200064a8                semc_nand_mem_finalize
 .text.semc_nand_mem_config
                0x200064d0      0x2b4 ./source/memory/src/semc_nand_memory.o
                0x200064d0                semc_nand_mem_config
 .text.semc_nand_mem_erase_all
                0x20006784       0x64 ./source/memory/src/semc_nand_memory.o
                0x20006784                semc_nand_mem_erase_all
 .text.semc_nand_get_property
                0x200067e8       0x84 ./source/memory/src/semc_nand_memory.o
                0x200067e8                semc_nand_get_property
 .text.semc_nor_mem_read
                0x2000686c       0x14 ./source/memory/src/semc_nor_memory.o
                0x2000686c                semc_nor_mem_read
 .text.semc_nor_mem_flush
                0x20006880       0x24 ./source/memory/src/semc_nor_memory.o
                0x20006880                semc_nor_mem_flush
 .text.semc_nor_mem_write
                0x200068a4       0x9c ./source/memory/src/semc_nor_memory.o
                0x200068a4                semc_nor_mem_write
 .text.semc_nor_get_property
                0x20006940       0x68 ./source/memory/src/semc_nor_memory.o
                0x20006940                semc_nor_get_property
 .text.semc_nor_adjust_memory_info_from_cfi
                0x200069a8       0x30 ./source/memory/src/semc_nor_memory.o
 .text.semc_nor_mem_init
                0x200069d8       0x34 ./source/memory/src/semc_nor_memory.o
                0x200069d8                semc_nor_mem_init
 .text.semc_nor_mem_config
                0x20006a0c      0x240 ./source/memory/src/semc_nor_memory.o
                0x20006a0c                semc_nor_mem_config
 .text.semc_nor_mem_fill
                0x20006c4c       0x9c ./source/memory/src/semc_nor_memory.o
                0x20006c4c                semc_nor_mem_fill
 .text.semc_nor_mem_erase
                0x20006ce8       0x68 ./source/memory/src/semc_nor_memory.o
                0x20006ce8                semc_nor_mem_erase
 .text.semc_nor_mem_erase_all
                0x20006d50       0x20 ./source/memory/src/semc_nor_memory.o
                0x20006d50                semc_nor_mem_erase_all
 .text.spi_nor_eeprom_mem_init
                0x20006d70        0xc ./source/memory/src/spi_nor_eeprom_memory.o
                0x20006d70                spi_nor_eeprom_mem_init
 .text.lpspi_data_transfer
                0x20006d7c       0x98 ./source/memory/src/spi_nor_eeprom_memory.o
 .text.spi_nor_eeprom_mem_read
                0x20006e14       0x1c ./source/memory/src/spi_nor_eeprom_memory.o
                0x20006e14                spi_nor_eeprom_mem_read
 .text.spi_nor_eeprom_mem_flush
                0x20006e30       0x54 ./source/memory/src/spi_nor_eeprom_memory.o
                0x20006e30                spi_nor_eeprom_mem_flush
 .text.spi_nor_eeprom_mem_write
                0x20006e84       0x80 ./source/memory/src/spi_nor_eeprom_memory.o
                0x20006e84                spi_nor_eeprom_mem_write
 .text.spi_nor_eeprom_mem_erase
                0x20006f04       0x34 ./source/memory/src/spi_nor_eeprom_memory.o
                0x20006f04                spi_nor_eeprom_mem_erase
 .text.spi_nor_eeprom_mem_config
                0x20006f38      0x31c ./source/memory/src/spi_nor_eeprom_memory.o
                0x20006f38                spi_nor_eeprom_mem_config
 .text.spi_nor_eeprom_mem_erase_all
                0x20007254       0x30 ./source/memory/src/spi_nor_eeprom_memory.o
                0x20007254                spi_nor_eeprom_mem_erase_all
 .text.spi_nor_eeprom_get_property
                0x20007284       0x64 ./source/memory/src/spi_nor_eeprom_memory.o
                0x20007284                spi_nor_eeprom_get_property
 .text.is_bad_block_in_dbbt
                0x200072e8       0x28 ./source/memory/src/spinand_memory.o
 .text.spinand_memory_write_and_verify
                0x20007310       0x94 ./source/memory/src/spinand_memory.o
 .text.spinand_memory_erase_block
                0x200073a4       0x10 ./source/memory/src/spinand_memory.o
 .text.spinand_mem_update_dbbt.constprop.0
                0x200073b4       0x94 ./source/memory/src/spinand_memory.o
 .text.spinand_mem_finalize
                0x20007448       0x28 ./source/memory/src/spinand_memory.o
                0x20007448                spinand_mem_finalize
 .text.bad_block_discovered.isra.0
                0x20007470       0x24 ./source/memory/src/spinand_memory.o
 .text.spinand_mem_erase
                0x20007494       0x98 ./source/memory/src/spinand_memory.o
                0x20007494                spinand_mem_erase
 .text.spinand_memory_read
                0x2000752c       0x48 ./source/memory/src/spinand_memory.o
 .text.is_erased_memory
                0x20007574       0x44 ./source/memory/src/spinand_memory.o
 .text.spinand_mem_flush_buffer
                0x200075b8      0x10c ./source/memory/src/spinand_memory.o
 .text.spinand_mem_write
                0x200076c4      0x1c0 ./source/memory/src/spinand_memory.o
                0x200076c4                spinand_mem_write
 .text.spinand_mem_flush
                0x20007884       0x10 ./source/memory/src/spinand_memory.o
                0x20007884                spinand_mem_flush
 .text.spinand_mem_read
                0x20007894      0x160 ./source/memory/src/spinand_memory.o
                0x20007894                spinand_mem_read
 .text.spinand_mem_load_dbbt.constprop.0
                0x200079f4       0x70 ./source/memory/src/spinand_memory.o
 .text.spinand_mem_init
                0x20007a64       0xfc ./source/memory/src/spinand_memory.o
                0x20007a64                spinand_mem_init
 .text.spinand_mem_config
                0x20007b60      0x340 ./source/memory/src/spinand_memory.o
                0x20007b60                spinand_mem_config
 .text.spinand_mem_erase_all
                0x20007ea0       0x48 ./source/memory/src/spinand_memory.o
                0x20007ea0                spinand_mem_erase_all
 .text.spinand_get_property
                0x20007ee8       0x8c ./source/memory/src/spinand_memory.o
                0x20007ee8                spinand_get_property
 .text.USDHC_GetInstance
                0x20007f74       0x38 ./source/drivers/usdhc/bl_usdhc.o
 .text.CLOCK_ControlGate
                0x20007fac       0x50 ./source/drivers/usdhc/bl_usdhc.o
 .text.USDHC_SetTransferInterrupt
                0x20007ffc       0x60 ./source/drivers/usdhc/bl_usdhc.o
 .text.USDHC_SendCommand
                0x2000805c       0x94 ./source/drivers/usdhc/bl_usdhc.o
                0x2000805c                USDHC_SendCommand
 .text.USDHC_Init
                0x200080f0       0xe4 ./source/drivers/usdhc/bl_usdhc.o
                0x200080f0                USDHC_Init
 .text.USDHC_GetCapability
                0x200081d4       0x4c ./source/drivers/usdhc/bl_usdhc.o
                0x200081d4                USDHC_GetCapability
 .text.USDHC_SetSdClock
                0x20008220       0xd4 ./source/drivers/usdhc/bl_usdhc.o
                0x20008220                USDHC_SetSdClock
 .text.USDHC_SetADMA1Descriptor
                0x200082f4      0x100 ./source/drivers/usdhc/bl_usdhc.o
                0x200082f4                USDHC_SetADMA1Descriptor
 .text.USDHC_SetADMA2Descriptor
                0x200083f4      0x118 ./source/drivers/usdhc/bl_usdhc.o
                0x200083f4                USDHC_SetADMA2Descriptor
 .text.USDHC_SetInternalDmaConfig
                0x2000850c       0x80 ./source/drivers/usdhc/bl_usdhc.o
                0x2000850c                USDHC_SetInternalDmaConfig
 .text.USDHC_SetAdmaTableConfig
                0x2000858c       0xb0 ./source/drivers/usdhc/bl_usdhc.o
                0x2000858c                USDHC_SetAdmaTableConfig
 .text.USDHC_TransferBlocking
                0x2000863c      0x26c ./source/drivers/usdhc/bl_usdhc.o
                0x2000863c                USDHC_TransferBlocking
 .text.USDHC1_DriverIRQHandler
                0x200088a8       0x18 ./source/drivers/usdhc/bl_usdhc.o
                0x200088a8                USDHC1_DriverIRQHandler
 .text.USDHC2_DriverIRQHandler
                0x200088c0       0x18 ./source/drivers/usdhc/bl_usdhc.o
                0x200088c0                USDHC2_DriverIRQHandler
 .text.trng_SetStatisticalCheckLimit
                0x200088d8      0x1b0 ./source/drivers/trng/bl_trng.o
 .text.trng_GetInstance.isra.0
                0x20008a88       0x28 ./source/drivers/trng/bl_trng.o
 .text.TRNG_GetDefaultConfig
                0x20008ab0       0x74 ./source/drivers/trng/bl_trng.o
                0x20008ab0                TRNG_GetDefaultConfig
 .text.TRNG_Init
                0x20008b24      0x184 ./source/drivers/trng/bl_trng.o
                0x20008b24                TRNG_Init
 .text.serial_nor_eeprom_common_sequence
                0x20008ca8      0x118 ./source/drivers/serial_nor_eeprom/serial_nor_eeprom.o
 .text.serial_nor_eeprom_enable_write
                0x20008dc0       0x4c ./source/drivers/serial_nor_eeprom/serial_nor_eeprom.o
 .text.serial_nor_eeprom_is_busy
                0x20008e0c       0x28 ./source/drivers/serial_nor_eeprom/serial_nor_eeprom.o
 .text.serial_nor_eeprom_init
                0x20008e34       0x78 ./source/drivers/serial_nor_eeprom/serial_nor_eeprom.o
                0x20008e34                serial_nor_eeprom_init
 .text.serial_nor_eeprom_read
                0x20008eac       0x38 ./source/drivers/serial_nor_eeprom/serial_nor_eeprom.o
                0x20008eac                serial_nor_eeprom_read
 .text.serial_nor_eeprom_write
                0x20008ee4       0x7c ./source/drivers/serial_nor_eeprom/serial_nor_eeprom.o
                0x20008ee4                serial_nor_eeprom_write
 .text.serial_nor_eeprom_erase
                0x20008f60       0x8c ./source/drivers/serial_nor_eeprom/serial_nor_eeprom.o
                0x20008f60                serial_nor_eeprom_erase
 .text.serial_nor_eeprom_erase_all
                0x20008fec       0x50 ./source/drivers/serial_nor_eeprom/serial_nor_eeprom.o
                0x20008fec                serial_nor_eeprom_erase_all
 .text.semc_nor_issue_reset_to_read
                0x2000903c       0x44 ./source/drivers/semc_nor/semc_nor_flash.o
 .text.semc_nor_issue_unlock_bypass.constprop.0
                0x20009080       0x38 ./source/drivers/semc_nor/semc_nor_flash.o
 .text.semc_nor_get_specific_ac_cycles
                0x200090b8       0x54 ./source/drivers/semc_nor/semc_nor_flash.o
                0x200090b8                semc_nor_get_specific_ac_cycles
 .text.semc_nor_flash_init
                0x2000910c      0x274 ./source/drivers/semc_nor/semc_nor_flash.o
                0x2000910c                semc_nor_flash_init
 .text.semc_nor_flash_page_program
                0x20009380      0x194 ./source/drivers/semc_nor/semc_nor_flash.o
                0x20009380                semc_nor_flash_page_program
 .text.semc_nor_flash_erase_block
                0x20009514       0xf0 ./source/drivers/semc_nor/semc_nor_flash.o
                0x20009514                semc_nor_flash_erase_block
 .text.semc_nand_issue_read_status
                0x20009604       0x54 ./source/drivers/semc_nand/semc_nand_flash.o
 .text.semc_nand_issue_change_read_column
                0x20009658       0x6c ./source/drivers/semc_nand/semc_nand_flash.o
 .text.semc_nand_write_ecc_data_in_spare_area
                0x200096c4      0x14c ./source/drivers/semc_nand/semc_nand_flash.o
 .text.semc_nand_set_device_ecc
                0x20009810       0x98 ./source/drivers/semc_nand/semc_nand_flash.o
 .text.semc_nand_issue_read_id
                0x200098a8       0x5c ./source/drivers/semc_nand/semc_nand_flash.o
                0x200098a8                semc_nand_issue_read_id
 .text.semc_nand_wait_for_device_ready
                0x20009904       0xb4 ./source/drivers/semc_nand/semc_nand_flash.o
                0x20009904                semc_nand_wait_for_device_ready
 .text.semc_nand_issue_read_page
                0x200099b8       0x64 ./source/drivers/semc_nand/semc_nand_flash.o
 .text.semc_nand_flash_init
                0x20009a1c      0x528 ./source/drivers/semc_nand/semc_nand_flash.o
                0x20009a1c                semc_nand_flash_init
 .text.semc_nand_flash_read_page
                0x20009f44      0x2c0 ./source/drivers/semc_nand/semc_nand_flash.o
                0x20009f44                semc_nand_flash_read_page
 .text.semc_nand_flash_erase_block
                0x2000a204       0xbc ./source/drivers/semc_nand/semc_nand_flash.o
                0x2000a204                semc_nand_flash_erase_block
 .text.semc_nand_flash_page_program
                0x2000a2c0      0x1c4 ./source/drivers/semc_nand/semc_nand_flash.o
                0x2000a2c0                semc_nand_flash_page_program
 .text.semc_ipg_command_wait_for_done
                0x2000a484       0x2c ./source/drivers/semc/bl_semc.o
 .text.semc_wait_for_idle
                0x2000a4b0       0x28 ./source/drivers/semc/bl_semc.o
                0x2000a4b0                semc_wait_for_idle
 .text.semc_ipg_command_set_data_size
                0x2000a4d8       0x58 ./source/drivers/semc/bl_semc.o
                0x2000a4d8                semc_ipg_command_set_data_size
 .text.semc_ipg_command_get_data_size
                0x2000a530       0x18 ./source/drivers/semc/bl_semc.o
                0x2000a530                semc_ipg_command_get_data_size
 .text.semc_ipg_command_device_write
                0x2000a548       0x2c ./source/drivers/semc/bl_semc.o
                0x2000a548                semc_ipg_command_device_write
 .text.semc_ipg_command_device_read
                0x2000a574       0x5c ./source/drivers/semc/bl_semc.o
                0x2000a574                semc_ipg_command_device_read
 .text.semc_is_nand_ready
                0x2000a5d0       0x10 ./source/drivers/semc/bl_semc.o
                0x2000a5d0                semc_is_nand_ready
 .text.semc_ipg_command_nand_access
                0x2000a5e0       0x74 ./source/drivers/semc/bl_semc.o
                0x2000a5e0                semc_ipg_command_nand_access
 .text.semc_init
                0x2000a654      0x550 ./source/drivers/semc/bl_semc.o
                0x2000a654                semc_init
 .text.MMC_SetRelativeAddress
                0x2000aba4       0x7c ./source/drivers/sdmmc/fsl_mmc.o
 .text.MMC_CheckBlockRange
                0x2000ac20       0x74 ./source/drivers/sdmmc/fsl_mmc.o
 .text.MMC_AllSendCid
                0x2000ac94       0xb4 ./source/drivers/sdmmc/fsl_mmc.o
 .text.MMC_SendCsd
                0x2000ad48      0x1f8 ./source/drivers/sdmmc/fsl_mmc.o
 .text.MMC_BL_SendOperationCondition
                0x2000af40       0xd0 ./source/drivers/sdmmc/fsl_mmc.o
 .text.MMC_SetMaxFrequency
                0x2000b010       0x54 ./source/drivers/sdmmc/fsl_mmc.o
 .text.MMC_GoIdle
                0x2000b064       0x2c ./source/drivers/sdmmc/fsl_mmc.o
 .text.MMC_SelectCard
                0x2000b090       0x30 ./source/drivers/sdmmc/fsl_mmc.o
 .text.MMC_ExecuteTuning
                0x2000b0c0       0x4c ./source/drivers/sdmmc/fsl_mmc.o
 .text.MMC_Transfer
                0x2000b10c       0x88 ./source/drivers/sdmmc/fsl_mmc.o
 .text.MMC_WaitWriteComplete
                0x2000b194       0x78 ./source/drivers/sdmmc/fsl_mmc.o
 .text.MMC_SetExtendedCsdConfig
                0x2000b20c       0x80 ./source/drivers/sdmmc/fsl_mmc.o
 .text.MMC_SetMaxEraseUnitSize
                0x2000b28c       0x7c ./source/drivers/sdmmc/fsl_mmc.o
 .text.MMC_SetDataBusWidth
                0x2000b308       0x50 ./source/drivers/sdmmc/fsl_mmc.o
 .text.MMC_StopTransmission
                0x2000b358       0x60 ./source/drivers/sdmmc/fsl_mmc.o
 .text.MMC_SwitchHSTiming.constprop.0
                0x2000b3b8       0x68 ./source/drivers/sdmmc/fsl_mmc.o
 .text.MMC_TestDataBusWidth
                0x2000b420      0x178 ./source/drivers/sdmmc/fsl_mmc.o
 .text.MMC_BL_SelectBusWidth
                0x2000b598       0x78 ./source/drivers/sdmmc/fsl_mmc.o
 .text.MMC_SendExtendedCsd.constprop.0
                0x2000b610      0x2fc ./source/drivers/sdmmc/fsl_mmc.o
 .text.MMC_SetBlockSize.constprop.0
                0x2000b90c       0x30 ./source/drivers/sdmmc/fsl_mmc.o
 .text.MMC_BL_CardInit
                0x2000b93c      0x35c ./source/drivers/sdmmc/fsl_mmc.o
                0x2000b93c                MMC_BL_CardInit
 .text.MMC_HostInit
                0x2000bc98       0x3c ./source/drivers/sdmmc/fsl_mmc.o
                0x2000bc98                MMC_HostInit
 .text.MMC_BL_Init
                0x2000bcd4       0x3c ./source/drivers/sdmmc/fsl_mmc.o
                0x2000bcd4                MMC_BL_Init
 .text.MMC_CheckReadOnly
                0x2000bd10       0x30 ./source/drivers/sdmmc/fsl_mmc.o
                0x2000bd10                MMC_CheckReadOnly
 .text.MMC_SelectPartition
                0x2000bd40       0x5c ./source/drivers/sdmmc/fsl_mmc.o
                0x2000bd40                MMC_SelectPartition
 .text.MMC_ReadBlocks
                0x2000bd9c      0x154 ./source/drivers/sdmmc/fsl_mmc.o
                0x2000bd9c                MMC_ReadBlocks
 .text.MMC_WriteBlocks
                0x2000bef0      0x15c ./source/drivers/sdmmc/fsl_mmc.o
                0x2000bef0                MMC_WriteBlocks
 .text.MMC_EraseGroups
                0x2000c04c      0x120 ./source/drivers/sdmmc/fsl_mmc.o
                0x2000c04c                MMC_EraseGroups
 .text.MMC_SetBootConfigWP
                0x2000c16c       0x50 ./source/drivers/sdmmc/fsl_mmc.o
                0x2000c16c                MMC_SetBootConfigWP
 .text.MMC_SetBootPartitionWP
                0x2000c1bc       0x50 ./source/drivers/sdmmc/fsl_mmc.o
                0x2000c1bc                MMC_SetBootPartitionWP
 .text.MMC_SetBootConfig
                0x2000c20c      0x104 ./source/drivers/sdmmc/fsl_mmc.o
                0x2000c20c                MMC_SetBootConfig
 .text.SD_SendRca
                0x2000c310       0x58 ./source/drivers/sdmmc/fsl_sd.o
 .text.SD_AllSendCid
                0x2000c368       0xa8 ./source/drivers/sdmmc/fsl_sd.o
 .text.SD_SendCsd
                0x2000c410      0x1fc ./source/drivers/sdmmc/fsl_sd.o
 .text.SD_ExecuteTuning
                0x2000c60c       0x38 ./source/drivers/sdmmc/fsl_sd.o
 .text.SD_Transfer
                0x2000c644       0xa0 ./source/drivers/sdmmc/fsl_sd.o
 .text.SD_WaitWriteComplete
                0x2000c6e4       0x70 ./source/drivers/sdmmc/fsl_sd.o
 .text.SD_StopTransmission
                0x2000c754       0x64 ./source/drivers/sdmmc/fsl_sd.o
 .text.SD_GoIdle
                0x2000c7b8       0x2c ./source/drivers/sdmmc/fsl_sd.o
 .text.SD_SendApplicationCmd
                0x2000c7e4       0x2c ./source/drivers/sdmmc/fsl_sd.o
 .text.SD_SwitchVoltage
                0x2000c810       0x2c ./source/drivers/sdmmc/fsl_sd.o
 .text.SD_SelectCard
                0x2000c83c       0x30 ./source/drivers/sdmmc/fsl_sd.o
 .text.SD_SetDataBusWidth.constprop.0
                0x2000c86c       0x78 ./source/drivers/sdmmc/fsl_sd.o
 .text.SD_SendScr
                0x2000c8e4      0x188 ./source/drivers/sdmmc/fsl_sd.o
 .text.SD_SwitchFunction.constprop.0
                0x2000ca6c       0x98 ./source/drivers/sdmmc/fsl_sd.o
 .text.SD_SelectFunction
                0x2000cb04      0x11c ./source/drivers/sdmmc/fsl_sd.o
 .text.SD_SetBlockSize.constprop.0
                0x2000cc20       0x30 ./source/drivers/sdmmc/fsl_sd.o
 .text.SD_CheckReadOnly
                0x2000cc50       0x30 ./source/drivers/sdmmc/fsl_sd.o
                0x2000cc50                SD_CheckReadOnly
 .text.SD_ReadBlocks
                0x2000cc80      0x13c ./source/drivers/sdmmc/fsl_sd.o
                0x2000cc80                SD_ReadBlocks
 .text.SD_WriteBlocks
                0x2000cdbc      0x144 ./source/drivers/sdmmc/fsl_sd.o
                0x2000cdbc                SD_WriteBlocks
 .text.SD_EraseBlocks
                0x2000cf00      0x10c ./source/drivers/sdmmc/fsl_sd.o
                0x2000cf00                SD_EraseBlocks
 .text.SD_BL_CardInit
                0x2000d00c      0x410 ./source/drivers/sdmmc/fsl_sd.o
                0x2000d00c                SD_BL_CardInit
 .text.SD_HostInit
                0x2000d41c       0x40 ./source/drivers/sdmmc/fsl_sd.o
                0x2000d41c                SD_HostInit
 .text.SD_BL_Init
                0x2000d45c       0x3c ./source/drivers/sdmmc/fsl_sd.o
                0x2000d45c                SD_BL_Init
 .text.SDMMC_SelectCard
                0x2000d498       0x64 ./source/drivers/sdmmc/fsl_sdmmc_common.o
                0x2000d498                SDMMC_SelectCard
 .text.SDMMC_SendApplicationCommand
                0x2000d4fc       0x6c ./source/drivers/sdmmc/fsl_sdmmc_common.o
                0x2000d4fc                SDMMC_SendApplicationCommand
 .text.SDMMC_GoIdle
                0x2000d568       0x48 ./source/drivers/sdmmc/fsl_sdmmc_common.o
                0x2000d568                SDMMC_GoIdle
 .text.SDMMC_SetBlockSize
                0x2000d5b0       0x60 ./source/drivers/sdmmc/fsl_sdmmc_common.o
                0x2000d5b0                SDMMC_SetBlockSize
 .text.SDMMC_SwitchVoltage
                0x2000d610       0x9c ./source/drivers/sdmmc/fsl_sdmmc_common.o
                0x2000d610                SDMMC_SwitchVoltage
 .text.SDMMCHOST_TransferFunction
                0x2000d6ac       0x64 ./source/drivers/sdmmc/fsl_sdmmc_host.o
 .text.SDMMCHOST_Init
                0x2000d710       0x28 ./source/drivers/sdmmc/fsl_sdmmc_host.o
                0x2000d710                SDMMCHOST_Init
 .text.ocotp_set_read_timing
                0x2000d738       0x2c ./source/drivers/ocotp/bl_ocotp.o
 .text.ocotp_program_once
                0x2000d764       0xe0 ./source/drivers/ocotp/bl_ocotp.o
                0x2000d764                ocotp_program_once
 .text.ocotp_read_once
                0x2000d844       0x98 ./source/drivers/ocotp/bl_ocotp.o
                0x2000d844                ocotp_read_once
 .text.nand_ecc_sec_calculate_encode
                0x2000d8dc      0x158 ./source/drivers/nand_ecc/nand_ecc.o
                0x2000d8dc                nand_ecc_sec_calculate_encode
 .text.nand_ecc_sec_verify_correct
                0x2000da34      0x118 ./source/drivers/nand_ecc/nand_ecc.o
                0x2000da34                nand_ecc_sec_verify_correct
 .text.microseconds_shutdown
                0x2000db4c       0x24 ./source/drivers/microseconds/microseconds_pit.o
                0x2000db4c                microseconds_shutdown
 .text.microseconds_get_ticks
                0x2000db70       0x1c ./source/drivers/microseconds/microseconds_pit.o
                0x2000db70                microseconds_get_ticks
 .text.microseconds_convert_to_ticks
                0x2000db8c       0x18 ./source/drivers/microseconds/microseconds_pit.o
                0x2000db8c                microseconds_convert_to_ticks
 .text.microseconds_delay
                0x2000dba4       0x30 ./source/drivers/microseconds/microseconds_pit.o
                0x2000dba4                microseconds_delay
 .text.microseconds_init
                0x2000dbd4       0x84 ./source/drivers/microseconds/microseconds_pit.o
                0x2000dbd4                microseconds_init
 .text.flexspi_nor_read_sfdp_info
                0x2000dc58       0xf4 ./source/drivers/flexspi_nor/flexspi_nor_flash.o
 .text.flexspi_nor_generate_config_block_hyperflash
                0x2000dd4c      0x298 ./source/drivers/flexspi_nor/flexspi_nor_flash.o
 .text.flexspi_nor_restore_spi_protocol
                0x2000dfe4      0x140 ./source/drivers/flexspi_nor/flexspi_nor_flash.o
                0x2000dfe4                flexspi_nor_restore_spi_protocol
 .text.flexspi_nor_get_config
                0x2000e124     0x1110 ./source/drivers/flexspi_nor/flexspi_nor_flash.o
                0x2000e124                flexspi_nor_get_config
 .text.flexspi_nand_get_config
                0x2000f234      0x248 ./source/drivers/flexspi_nand/flexspi_nand_flash.o
                0x2000f234                flexspi_nand_get_config
 .text.flexspi_wait_until_ip_idle.constprop.0
                0x2000f47c       0x18 ./source/drivers/flexspi/bl_flexspi.o
 .text.flexspi_swreset.constprop.0
                0x2000f494       0x18 ./source/drivers/flexspi/bl_flexspi.o
 .text.flexspi_configure_dll
                0x2000f4ac      0x124 ./source/drivers/flexspi/bl_flexspi.o
                0x2000f4ac                flexspi_configure_dll
 .text.flexspi_get_ticks
                0x2000f5d0       0x30 ./source/drivers/flexspi/bl_flexspi.o
                0x2000f5d0                flexspi_get_ticks
 .text.flexspi_config_mcr1
                0x2000f600       0x78 ./source/drivers/flexspi/bl_flexspi.o
                0x2000f600                flexspi_config_mcr1
 .text.flexspi_config_ahb_buffers
                0x2000f678       0x54 ./source/drivers/flexspi/bl_flexspi.o
                0x2000f678                flexspi_config_ahb_buffers
 .text.flexspi_update_lut
                0x2000f6cc       0x5c ./source/drivers/flexspi/bl_flexspi.o
                0x2000f6cc                flexspi_update_lut
 .text.flexspi_command_xfer
                0x2000f728      0x238 ./source/drivers/flexspi/bl_flexspi.o
                0x2000f728                flexspi_command_xfer
 .text.flexspi_wait_idle
                0x2000f960       0x14 ./source/drivers/flexspi/bl_flexspi.o
                0x2000f960                flexspi_wait_idle
 .text.flexspi_init
                0x2000f974      0x2ec ./source/drivers/flexspi/bl_flexspi.o
                0x2000f974                flexspi_init
 .text.flexspi_half_clock_control
                0x2000fc60       0x24 ./source/drivers/flexspi/bl_flexspi.o
                0x2000fc60                flexspi_half_clock_control
 .text.dcp_enable
                0x2000fc84       0x1c ./source/drivers/dcp/bl_dcp.o
 .text.dcp_wait_task_done
                0x2000fca0       0xe4 ./source/drivers/dcp/bl_dcp.o
 .text.dcp_aes_config_key_iv.constprop.0.isra.0
                0x2000fd84       0xc0 ./source/drivers/dcp/bl_dcp.o
 .text.dcp_aes_init
                0x2000fe44       0x30 ./source/drivers/dcp/bl_dcp.o
                0x2000fe44                dcp_aes_init
 .text.dcp_entry
                0x2000fe74       0x10 ./source/drivers/dcp/bl_dcp.o
                0x2000fe74                dcp_entry
 .text.dcp_aes_set_key
                0x2000fe84       0xe4 ./source/drivers/dcp/bl_dcp.o
                0x2000fe84                dcp_aes_set_key
 .text.crc16_init
                0x2000ff68       0x24 ./source/crc/crc16.o
                0x2000ff68                crc16_init
 .text.crc16_update
                0x2000ff8c       0x58 ./source/crc/crc16.o
                0x2000ff8c                crc16_update
 .text.crc16_finalize
                0x2000ffe4       0x30 ./source/crc/crc16.o
                0x2000ffe4                crc16_finalize
 .text.crc16_onfi_init
                0x20010014       0x24 ./source/crc/crc16.o
                0x20010014                crc16_onfi_init
 .text.crc16_onfi_update
                0x20010038       0x58 ./source/crc/crc16.o
                0x20010038                crc16_onfi_update
 .text.crc32_update
                0x20010090       0x48 ./source/crc/crc32.o
                0x20010090                crc32_update
 .text.crc32_finalize
                0x200100d8       0x28 ./source/crc/crc32.o
                0x200100d8                crc32_finalize
 .text.handle_execute
                0x20010100       0xd0 ./source/bootloader/src/bl_command.o
                0x20010100                handle_execute
 .text.bootloader_command_init
                0x200101d0       0x10 ./source/bootloader/src/bl_command.o
                0x200101d0                bootloader_command_init
 .text.reset_data_phase
                0x200101e0       0x14 ./source/bootloader/src/bl_command.o
 .text.send_generic_response
                0x200101f4       0x34 ./source/bootloader/src/bl_command.o
                0x200101f4                send_generic_response
 .text.bootloader_command_pump
                0x20010228       0xf4 ./source/bootloader/src/bl_command.o
                0x20010228                bootloader_command_pump
 .text.handle_reset
                0x2001031c       0x40 ./source/bootloader/src/bl_command.o
                0x2001031c                handle_reset
 .text.handle_flash_erase_region
                0x2001035c       0x20 ./source/bootloader/src/bl_command.o
                0x2001035c                handle_flash_erase_region
 .text.handle_receive_sb_file
                0x2001037c       0x2c ./source/bootloader/src/bl_command.o
                0x2001037c                handle_receive_sb_file
 .text.handle_set_property
                0x200103a8       0x20 ./source/bootloader/src/bl_command.o
                0x200103a8                handle_set_property
 .text.handle_write_memory
                0x200103c8       0x30 ./source/bootloader/src/bl_command.o
                0x200103c8                handle_write_memory
 .text.finalize_data_phase
                0x200103f8       0x94 ./source/bootloader/src/bl_command.o
                0x200103f8                finalize_data_phase
 .text.handle_data_consumer
                0x2001048c      0x160 ./source/bootloader/src/bl_command.o
                0x2001048c                handle_data_consumer
 .text.handle_data_producer
                0x200105ec      0x114 ./source/bootloader/src/bl_command.o
                0x200105ec                handle_data_producer
 .text.handle_key_blob_data
                0x20010700       0x18 ./source/bootloader/src/bl_command.o
                0x20010700                handle_key_blob_data
 .text.handle_fill_memory
                0x20010718       0x20 ./source/bootloader/src/bl_command.o
                0x20010718                handle_fill_memory
 .text.handle_flash_program_once
                0x20010738       0x54 ./source/bootloader/src/bl_command.o
                0x20010738                handle_flash_program_once
 .text.send_get_property_response
                0x2001078c       0x58 ./source/bootloader/src/bl_command.o
                0x2001078c                send_get_property_response
 .text.handle_get_property
                0x200107e4       0x50 ./source/bootloader/src/bl_command.o
                0x200107e4                handle_get_property
 .text.send_generate_key_blob_response
                0x20010834       0x34 ./source/bootloader/src/bl_command.o
                0x20010834                send_generate_key_blob_response
 .text.handle_generate_key_blob
                0x20010868       0x58 ./source/bootloader/src/bl_command.o
                0x20010868                handle_generate_key_blob
 .text.send_read_memory_response
                0x200108c0       0x34 ./source/bootloader/src/bl_command.o
                0x200108c0                send_read_memory_response
 .text.handle_read_memory
                0x200108f4       0x30 ./source/bootloader/src/bl_command.o
                0x200108f4                handle_read_memory
 .text.send_flash_read_once_response
                0x20010924       0x54 ./source/bootloader/src/bl_command.o
                0x20010924                send_flash_read_once_response
 .text.handle_flash_read_once
                0x20010978       0x34 ./source/bootloader/src/bl_command.o
                0x20010978                handle_flash_read_once
 .text.send_flash_read_resource_response
                0x200109ac       0x34 ./source/bootloader/src/bl_command.o
                0x200109ac                send_flash_read_resource_response
 .text.handle_flash_read_resource
                0x200109e0       0x30 ./source/bootloader/src/bl_command.o
                0x200109e0                handle_flash_read_resource
 .text.HardFault_Handler
                0x20010a10       0x30 ./source/bootloader/src/bl_exception_handler.o
                0x20010a10                HardFault_Handler
 .text.keyblob_update
                0x20010a40       0x64 ./source/bootloader/src/bl_keyblob.o
                0x20010a40                keyblob_update
 .text.keyblob_get
                0x20010aa4       0x38 ./source/bootloader/src/bl_keyblob.o
                0x20010aa4                keyblob_get
 .text.generate_key_blob
                0x20010adc       0xc8 ./source/bootloader/src/bl_keyblob_dcp.o
                0x20010adc                generate_key_blob
 .text.get_peripheral_name
                0x20010ba4       0x44 ./source/bootloader/src/bl_main.o
 .text.is_valid_application_location
                0x20010be8       0x30 ./source/bootloader/src/bl_main.o
                0x20010be8                is_valid_application_location
 .text.is_valid_stackpointer_location
                0x20010c18       0x30 ./source/bootloader/src/bl_main.o
                0x20010c18                is_valid_stackpointer_location
 .text.startup.main
                0x20010c48      0x194 ./source/bootloader/src/bl_main.o
                0x20010c48                main
 .text.bl_nor_encrypt_has_encrypted_region
                0x20010ddc       0x30 ./source/bootloader/src/bl_nor_encrypt_bee.o
                0x20010ddc                bl_nor_encrypt_has_encrypted_region
 .text.bl_nor_encrypt_init
                0x20010e0c      0x220 ./source/bootloader/src/bl_nor_encrypt_bee.o
                0x20010e0c                bl_nor_encrypt_init
 .text.bl_nor_in_encrypted_region
                0x2001102c       0x60 ./source/bootloader/src/bl_nor_encrypt_bee.o
                0x2001102c                bl_nor_in_encrypted_region
 .text.bl_nor_encrypt_get_config_block
                0x2001108c       0xa0 ./source/bootloader/src/bl_nor_encrypt_bee.o
                0x2001108c                bl_nor_encrypt_get_config_block
 .text.bl_nor_encrypt_data
                0x2001112c       0xc0 ./source/bootloader/src/bl_nor_encrypt_bee.o
                0x2001112c                bl_nor_encrypt_data
 .text.bl_nor_encrypt_region_refresh
                0x200111ec       0x70 ./source/bootloader/src/bl_nor_encrypt_bee.o
                0x200111ec                bl_nor_encrypt_region_refresh
 .text.shutdown_cleanup
                0x2001125c       0x4c ./source/bootloader/src/bl_shutdown_cleanup.o
                0x2001125c                shutdown_cleanup
 .text.lpuart_full_shutdown
                0x200112a8       0x3c ./source/bootloader/src/lpuart_peripheral_interface.o
 .text.lpuart_full_init
                0x200112e4       0x20 ./source/bootloader/src/lpuart_peripheral_interface.o
 .text.lpuart_poll_for_activity
                0x20011304       0x90 ./source/bootloader/src/lpuart_peripheral_interface.o
 .text.lpuart_write
                0x20011394       0x18 ./source/bootloader/src/lpuart_peripheral_interface.o
 .text.LPUART1_IRQHandler
                0x200113ac       0x28 ./source/bootloader/src/lpuart_peripheral_interface.o
                0x200113ac                LPUART1_IRQHandler
 .text.usb_hid_poll_for_activity
                0x200113d4       0x24 ./source/bootloader/src/usb_hid_msc_peripheral_interface.o
 .text.usb_msc_pump
                0x200113f8       0x10 ./source/bootloader/src/usb_hid_msc_peripheral_interface.o
 .text.usb_hid_packet_abort_data_phase
                0x20011408       0x24 ./source/bootloader/src/usb_hid_msc_peripheral_interface.o
 .text.usb_hid_packet_read
                0x2001142c       0x98 ./source/bootloader/src/usb_hid_msc_peripheral_interface.o
 .text.usb_hid_packet_init
                0x200114c4       0x28 ./source/bootloader/src/usb_hid_msc_peripheral_interface.o
 .text.usb_hid_packet_write
                0x200114ec       0xb0 ./source/bootloader/src/usb_hid_msc_peripheral_interface.o
 .text.usb_device_full_shutdown
                0x2001159c       0x84 ./source/bootloader/src/usb_hid_msc_peripheral_interface.o
 .text.usb_device_full_init
                0x20011620       0xc0 ./source/bootloader/src/usb_hid_msc_peripheral_interface.o
 .text.usb_device_callback
                0x200116e0       0xf4 ./source/bootloader/src/usb_hid_msc_peripheral_interface.o
                0x200116e0                usb_device_callback
 .text.USB_OTG1_IRQHandler
                0x200117d4        0xc ./source/bootloader/src/usb_hid_msc_peripheral_interface.o
                0x200117d4                USB_OTG1_IRQHandler
 .text.instance_transition_callback
                0x200117e0       0xdc ./source/autobaud/autobaud_irq.o
                0x200117e0                instance_transition_callback
 .text.autobaud_init
                0x200118bc       0x5c ./source/autobaud/autobaud_irq.o
                0x200118bc                autobaud_init
 .text.autobaud_get_rate
                0x20011918       0xc8 ./source/autobaud/autobaud_irq.o
                0x20011918                autobaud_get_rate
 .text.CLOCK_GetOscFreq
                0x200119e0       0x20 ./drivers/fsl_clock.o
 .text.CLOCK_GetPllFreq
                0x20011a00      0x238 ./drivers/fsl_clock.o
                0x20011a00                CLOCK_GetPllFreq
 .text.CLOCK_GetPllUsb1SWFreq
                0x20011c38       0x20 ./drivers/fsl_clock.o
 .text.CLOCK_GetSysPfdFreq
                0x20011c58       0x5c ./drivers/fsl_clock.o
                0x20011c58                CLOCK_GetSysPfdFreq
 .text.CLOCK_GetPeriphClkFreq
                0x20011cb4       0x90 ./drivers/fsl_clock.o
 .text.CLOCK_GetAhbFreq
                0x20011d44       0x1c ./drivers/fsl_clock.o
                0x20011d44                CLOCK_GetAhbFreq
 .text.CLOCK_GetIpgFreq
                0x20011d60       0x1c ./drivers/fsl_clock.o
                0x20011d60                CLOCK_GetIpgFreq
 .text.CLOCK_GetPerClkFreq
                0x20011d7c       0x28 ./drivers/fsl_clock.o
                0x20011d7c                CLOCK_GetPerClkFreq
 .text.CLOCK_GetUsb1PfdFreq
                0x20011da4       0x5c ./drivers/fsl_clock.o
                0x20011da4                CLOCK_GetUsb1PfdFreq
 .text.CLOCK_GetSemcFreq
                0x20011e00       0x38 ./drivers/fsl_clock.o
                0x20011e00                CLOCK_GetSemcFreq
 .text.CLOCK_GetFreq
                0x20011e38       0xec ./drivers/fsl_clock.o
                0x20011e38                CLOCK_GetFreq
 .text.GPIO_PinWrite
                0x20011f24       0x34 ./drivers/fsl_gpio.o
                0x20011f24                GPIO_PinWrite
 .text.GPIO_PinInit
                0x20011f58       0xec ./drivers/fsl_gpio.o
                0x20011f58                GPIO_PinInit
 .text.LPSPI_CommonIRQHandler
                0x20012044       0x20 ./drivers/fsl_lpspi.o
 .text.LPSPI_CombineWriteData
                0x20012064       0x70 ./drivers/fsl_lpspi.o
 .text.LPSPI_SeparateReadData
                0x200120d4       0x90 ./drivers/fsl_lpspi.o
 .text.CLOCK_ControlGate
                0x20012164       0x50 ./drivers/fsl_lpspi.o
 .text.LPSPI_GetInstance
                0x200121b4       0x50 ./drivers/fsl_lpspi.o
                0x200121b4                LPSPI_GetInstance
 .text.LPSPI_SetDummyData
                0x20012204       0x14 ./drivers/fsl_lpspi.o
                0x20012204                LPSPI_SetDummyData
 .text.LPSPI_MasterSetBaudRate
                0x20012218       0xa4 ./drivers/fsl_lpspi.o
                0x20012218                LPSPI_MasterSetBaudRate
 .text.LPSPI_MasterSetDelayScaler
                0x200122bc       0x54 ./drivers/fsl_lpspi.o
                0x200122bc                LPSPI_MasterSetDelayScaler
 .text.LPSPI_MasterInit
                0x20012310      0x100 ./drivers/fsl_lpspi.o
                0x20012310                LPSPI_MasterInit
 .text.LPSPI_CheckTransferArgument
                0x20012410       0xa0 ./drivers/fsl_lpspi.o
                0x20012410                LPSPI_CheckTransferArgument
 .text.LPSPI_MasterTransferBlocking
                0x200124b0      0x23c ./drivers/fsl_lpspi.o
                0x200124b0                LPSPI_MasterTransferBlocking
 .text.LPSPI1_DriverIRQHandler
                0x200126ec       0x34 ./drivers/fsl_lpspi.o
                0x200126ec                LPSPI1_DriverIRQHandler
 .text.LPSPI2_DriverIRQHandler
                0x20012720       0x34 ./drivers/fsl_lpspi.o
                0x20012720                LPSPI2_DriverIRQHandler
 .text.LPSPI3_DriverIRQHandler
                0x20012754       0x34 ./drivers/fsl_lpspi.o
                0x20012754                LPSPI3_DriverIRQHandler
 .text.LPSPI4_DriverIRQHandler
                0x20012788       0x34 ./drivers/fsl_lpspi.o
                0x20012788                LPSPI4_DriverIRQHandler
 .text.CLOCK_ControlGate
                0x200127bc       0x50 ./drivers/fsl_lpuart.o
 .text.LPUART_GetInstance
                0x2001280c       0x34 ./drivers/fsl_lpuart.o
                0x2001280c                LPUART_GetInstance
 .text.LPUART_Init
                0x20012840      0x1e8 ./drivers/fsl_lpuart.o
                0x20012840                LPUART_Init
 .text.LPUART_Deinit
                0x20012a28       0x38 ./drivers/fsl_lpuart.o
                0x20012a28                LPUART_Deinit
 .text.LPUART_GetDefaultConfig
                0x20012a60       0x3c ./drivers/fsl_lpuart.o
                0x20012a60                LPUART_GetDefaultConfig
 .text.LPUART_GetStatusFlags
                0x20012a9c       0x18 ./drivers/fsl_lpuart.o
                0x20012a9c                LPUART_GetStatusFlags
 .text.LPUART_WriteBlocking
                0x20012ab4       0x3c ./drivers/fsl_lpuart.o
                0x20012ab4                LPUART_WriteBlocking
 .text.LPUART1_DriverIRQHandler
                0x20012af0       0x20 ./drivers/fsl_lpuart.o
                0x20012af0                LPUART1_DriverIRQHandler
 .text.LPUART2_DriverIRQHandler
                0x20012b10       0x20 ./drivers/fsl_lpuart.o
                0x20012b10                LPUART2_DriverIRQHandler
 .text.LPUART3_DriverIRQHandler
                0x20012b30       0x20 ./drivers/fsl_lpuart.o
                0x20012b30                LPUART3_DriverIRQHandler
 .text.LPUART4_DriverIRQHandler
                0x20012b50       0x20 ./drivers/fsl_lpuart.o
                0x20012b50                LPUART4_DriverIRQHandler
 .text.LPUART5_DriverIRQHandler
                0x20012b70       0x20 ./drivers/fsl_lpuart.o
                0x20012b70                LPUART5_DriverIRQHandler
 .text.LPUART6_DriverIRQHandler
                0x20012b90       0x20 ./drivers/fsl_lpuart.o
                0x20012b90                LPUART6_DriverIRQHandler
 .text.LPUART7_DriverIRQHandler
                0x20012bb0       0x20 ./drivers/fsl_lpuart.o
                0x20012bb0                LPUART7_DriverIRQHandler
 .text.LPUART8_DriverIRQHandler
                0x20012bd0       0x20 ./drivers/fsl_lpuart.o
                0x20012bd0                LPUART8_DriverIRQHandler
 .text.RTWDOG_disable
                0x20012bf0       0x2c ./device/system_MIMXRT1052.o
                0x20012bf0                RTWDOG_disable
 .text.SystemInit
                0x20012c1c       0x38 ./device/system_MIMXRT1052.o
                0x20012c1c                SystemInit
 .text.UART1_PollForActivity
                0x20012c54       0x38 ./board/pin_mux.o
                0x20012c54                UART1_PollForActivity
 .text.UART1_InitPins
                0x20012c8c       0x20 ./board/pin_mux.o
                0x20012c8c                UART1_InitPins
 .text.UART1_RestoreDefault
                0x20012cac       0x20 ./board/pin_mux.o
                0x20012cac                UART1_RestoreDefault
 .text.usb_clock_init
                0x20012ccc       0x54 ./MIMXRT1052/bl_clock_config_MIMXRT1052.o
                0x20012ccc                usb_clock_init
 .text.clock_setup
                0x20012d20      0x174 ./MIMXRT1052/bl_clock_config_MIMXRT1052.o
                0x20012d20                clock_setup
 .text.flexspi_clock_gate_enable
                0x20012e94       0x14 ./MIMXRT1052/bl_clock_config_MIMXRT1052.o
                0x20012e94                flexspi_clock_gate_enable
 .text.flexspi_clock_gate_disable
                0x20012ea8       0x14 ./MIMXRT1052/bl_clock_config_MIMXRT1052.o
                0x20012ea8                flexspi_clock_gate_disable
 .text.flexspi_clock_config
                0x20012ebc       0xe4 ./MIMXRT1052/bl_clock_config_MIMXRT1052.o
                0x20012ebc                flexspi_clock_config
 .text.flexspi_get_clock
                0x20012fa0       0x5c ./MIMXRT1052/bl_clock_config_MIMXRT1052.o
                0x20012fa0                flexspi_get_clock
 .text.flexspi_get_max_supported_freq
                0x20012ffc       0x14 ./MIMXRT1052/bl_clock_config_MIMXRT1052.o
                0x20012ffc                flexspi_get_max_supported_freq
 .text.semc_axi_clock_config
                0x20013010       0x78 ./MIMXRT1052/bl_clock_config_MIMXRT1052.o
                0x20013010                semc_axi_clock_config
 .text.semc_clock_gate_enable
                0x20013088       0x10 ./MIMXRT1052/bl_clock_config_MIMXRT1052.o
                0x20013088                semc_clock_gate_enable
 .text.semc_clock_gate_disable
                0x20013098       0x10 ./MIMXRT1052/bl_clock_config_MIMXRT1052.o
                0x20013098                semc_clock_gate_disable
 .text.microseconds_get_clock
                0x200130a8       0x28 ./MIMXRT1052/bl_clock_config_MIMXRT1052.o
                0x200130a8                microseconds_get_clock
 .text.get_bus_clock
                0x200130d0       0x1c ./MIMXRT1052/bl_clock_config_MIMXRT1052.o
                0x200130d0                get_bus_clock
 .text.LPUART_SetSystemIRQ
                0x200130ec       0x20 ./MIMXRT1052/bl_lpuart_irq_config_MIMXRT1052.o
                0x200130ec                LPUART_SetSystemIRQ
 .text.flexspi_nand_get_fcb_search_cfg
                0x2001310c       0x2c ./MIMXRT1052/flexspi_nand_config_MIMXRT1052.o
                0x2001310c                flexspi_nand_get_fcb_search_cfg
 .text.flexspi_nand_get_default_cfg_blk
                0x20013138      0x190 ./MIMXRT1052/flexspi_nand_config_MIMXRT1052.o
                0x20013138                flexspi_nand_get_default_cfg_blk
 .text.flexspi_iomux_config
                0x200132c8      0x1d8 ./MIMXRT1052/hardware_init_MIMXRT1052.o
                0x200132c8                flexspi_iomux_config
 .text.semc_iomux_config
                0x200134a0      0x154 ./MIMXRT1052/hardware_init_MIMXRT1052.o
                0x200134a0                semc_iomux_config
 .text.spi_clock_gate_enable
                0x200135f4       0x3c ./MIMXRT1052/hardware_init_MIMXRT1052.o
                0x200135f4                spi_clock_gate_enable
 .text.spi_pcs_pin_control
                0x20013630       0x34 ./MIMXRT1052/hardware_init_MIMXRT1052.o
                0x20013630                spi_pcs_pin_control
 .text.spi_clock_config
                0x20013664       0x24 ./MIMXRT1052/hardware_init_MIMXRT1052.o
                0x20013664                spi_clock_config
 .text.spi_iomux_config
                0x20013688      0x128 ./MIMXRT1052/hardware_init_MIMXRT1052.o
                0x20013688                spi_iomux_config
 .text.get_uart_clock
                0x200137b0        0x8 ./MIMXRT1052/hardware_init_MIMXRT1052.o
                0x200137b0                get_uart_clock
 .text.get_primary_boot_device
                0x200137b8       0x34 ./MIMXRT1052/hardware_init_MIMXRT1052.o
                0x200137b8                get_primary_boot_device
 .text.init_hardware
                0x200137ec       0x20 ./MIMXRT1052/hardware_init_MIMXRT1052.o
                0x200137ec                init_hardware
 .text.deinit_hardware
                0x2001380c       0x20 ./MIMXRT1052/hardware_init_MIMXRT1052.o
                0x2001380c                deinit_hardware
 .text.flexspi_nor_write_persistent
                0x2001382c        0xc ./MIMXRT1052/hardware_init_MIMXRT1052.o
                0x2001382c                flexspi_nor_write_persistent
 .text.flexspi_nor_read_persistent
                0x20013838       0x10 ./MIMXRT1052/hardware_init_MIMXRT1052.o
                0x20013838                flexspi_nor_read_persistent
 .text.get_hab_status
                0x20013848       0x14 ./MIMXRT1052/hardware_init_MIMXRT1052.o
                0x20013848                get_hab_status
 .text.normal_mem_init
                0x2001385c       0x7c ./MIMXRT1052/hardware_init_MIMXRT1052.o
                0x2001385c                normal_mem_init
 .text.GPIO1_Combined_0_15_IRQHandler
                0x200138d8       0x24 ./MIMXRT1052/pinmux_utility_imxrt_series.o
                0x200138d8                GPIO1_Combined_0_15_IRQHandler
 .text.enable_autobaud_pin_irq
                0x200138fc       0x38 ./MIMXRT1052/pinmux_utility_imxrt_series.o
                0x200138fc                enable_autobaud_pin_irq
 .text.disable_autobaud_pin_irq
                0x20013934       0x38 ./MIMXRT1052/pinmux_utility_imxrt_series.o
                0x20013934                disable_autobaud_pin_irq
 .text.usdhc_power_control_init
                0x2001396c       0x6c ./MIMXRT1052/sdmmc_config_MIMXRT1052.o
                0x2001396c                usdhc_power_control_init
 .text.usdhc_power_control
                0x200139d8       0x30 ./MIMXRT1052/sdmmc_config_MIMXRT1052.o
                0x200139d8                usdhc_power_control
 .text.usdhc_vselect_init
                0x20013a08       0x3c ./MIMXRT1052/sdmmc_config_MIMXRT1052.o
                0x20013a08                usdhc_vselect_init
 .text.get_mmc_default_configuration
                0x20013a44       0xb8 ./MIMXRT1052/sdmmc_config_MIMXRT1052.o
                0x20013a44                get_mmc_default_configuration
 .text.get_sd_default_configuration
                0x20013afc       0x90 ./MIMXRT1052/sdmmc_config_MIMXRT1052.o
                0x20013afc                get_sd_default_configuration
 .text.semc_nand_get_fcb_search_cfg
                0x20013b8c       0x30 ./MIMXRT1052/semc_nand_config_MIMXRT1052.o
                0x20013b8c                semc_nand_get_fcb_search_cfg
 .text.semc_nand_get_config_data_from_fuse
                0x20013bbc      0x178 ./MIMXRT1052/semc_nand_config_MIMXRT1052.o
                0x20013bbc                semc_nand_get_config_data_from_fuse
 .text.semc_nand_get_default_config_block
                0x20013d34       0xcc ./MIMXRT1052/semc_nand_config_MIMXRT1052.o
                0x20013d34                semc_nand_get_default_config_block
 .text.semc_nor_get_config_data_from_fuse
                0x20013e00      0x150 ./MIMXRT1052/semc_nor_config_MIMXRT1052.o
                0x20013e00                semc_nor_get_config_data_from_fuse
 .text.semc_nor_get_default_config_block
                0x20013f50       0x6c ./MIMXRT1052/semc_nor_config_MIMXRT1052.o
                0x20013f50                semc_nor_get_default_config_block
 .text.__assert_func
                0x20013fbc       0x3c c:/nxp/mcuxpressoide_11.6.1_8255/ide/plugins/com.nxp.mcuxpresso.tools.win32_11.6.1.202207200623/tools/bin/../lib/gcc/arm-none-eabi/10.3.1/../../../../arm-none-eabi/lib/thumb/v7e-m+dp/hard\libc_nano.a(lib_a-assert.o)
                0x20013fbc                __assert_func
 .text.fprintf  0x20013ff8       0x24 c:/nxp/mcuxpressoide_11.6.1_8255/ide/plugins/com.nxp.mcuxpresso.tools.win32_11.6.1.202207200623/tools/bin/../lib/gcc/arm-none-eabi/10.3.1/../../../../arm-none-eabi/lib/thumb/v7e-m+dp/hard\libc_nano.a(lib_a-fprintf.o)
                0x20013ff8                fiprintf
                0x20013ff8                fprintf
 .text._free_r  0x2001401c       0x98 c:/nxp/mcuxpressoide_11.6.1_8255/ide/plugins/com.nxp.mcuxpresso.tools.win32_11.6.1.202207200623/tools/bin/../lib/gcc/arm-none-eabi/10.3.1/../../../../arm-none-eabi/lib/thumb/v7e-m+dp/hard\libc_nano.a(lib_a-nano-freer.o)
                0x2001401c                _free_r
 .text.sbrk_aligned
                0x200140b4       0x40 c:/nxp/mcuxpressoide_11.6.1_8255/ide/plugins/com.nxp.mcuxpresso.tools.win32_11.6.1.202207200623/tools/bin/../lib/gcc/arm-none-eabi/10.3.1/../../../../arm-none-eabi/lib/thumb/v7e-m+dp/hard\libc_nano.a(lib_a-nano-mallocr.o)
 .text._malloc_r
                0x200140f4       0xe8 c:/nxp/mcuxpressoide_11.6.1_8255/ide/plugins/com.nxp.mcuxpresso.tools.win32_11.6.1.202207200623/tools/bin/../lib/gcc/arm-none-eabi/10.3.1/../../../../arm-none-eabi/lib/thumb/v7e-m+dp/hard\libc_nano.a(lib_a-nano-mallocr.o)
                0x200140f4                _malloc_r
 .text._vfprintf_r
                0x200141dc      0x260 c:/nxp/mcuxpressoide_11.6.1_8255/ide/plugins/com.nxp.mcuxpresso.tools.win32_11.6.1.202207200623/tools/bin/../lib/gcc/arm-none-eabi/10.3.1/../../../../arm-none-eabi/lib/thumb/v7e-m+dp/hard\libc_nano.a(lib_a-nano-vfprintf.o)
                0x200141dc                _vfprintf_r
                0x200141dc                _vfiprintf_r
 .text._printf_i
                0x2001443c      0x24c c:/nxp/mcuxpressoide_11.6.1_8255/ide/plugins/com.nxp.mcuxpresso.tools.win32_11.6.1.202207200623/tools/bin/../lib/gcc/arm-none-eabi/10.3.1/../../../../arm-none-eabi/lib/thumb/v7e-m+dp/hard\libc_nano.a(lib_a-nano-vfprintf_i.o)
                0x2001443c                _printf_i
 .text._sbrk_r  0x20014688       0x20 c:/nxp/mcuxpressoide_11.6.1_8255/ide/plugins/com.nxp.mcuxpresso.tools.win32_11.6.1.202207200623/tools/bin/../lib/gcc/arm-none-eabi/10.3.1/../../../../arm-none-eabi/lib/thumb/v7e-m+dp/hard\libc_nano.a(lib_a-sbrkr.o)
                0x20014688                _sbrk_r
 .text.__swbuf_r
                0x200146a8       0xa4 c:/nxp/mcuxpressoide_11.6.1_8255/ide/plugins/com.nxp.mcuxpresso.tools.win32_11.6.1.202207200623/tools/bin/../lib/gcc/arm-none-eabi/10.3.1/../../../../arm-none-eabi/lib/thumb/v7e-m+dp/hard\libc_nano.a(lib_a-wbuf.o)
                0x200146a8                __swbuf_r
 .text.__swsetup_r
                0x2001474c       0xdc c:/nxp/mcuxpressoide_11.6.1_8255/ide/plugins/com.nxp.mcuxpresso.tools.win32_11.6.1.202207200623/tools/bin/../lib/gcc/arm-none-eabi/10.3.1/../../../../arm-none-eabi/lib/thumb/v7e-m+dp/hard\libc_nano.a(lib_a-wsetup.o)
                0x2001474c                __swsetup_r
 .text.__sflush_r
                0x20014828      0x10c c:/nxp/mcuxpressoide_11.6.1_8255/ide/plugins/com.nxp.mcuxpresso.tools.win32_11.6.1.202207200623/tools/bin/../lib/gcc/arm-none-eabi/10.3.1/../../../../arm-none-eabi/lib/thumb/v7e-m+dp/hard\libc_nano.a(lib_a-fflush.o)
                0x20014828                __sflush_r
 .text._fflush_r
                0x20014934       0x78 c:/nxp/mcuxpressoide_11.6.1_8255/ide/plugins/com.nxp.mcuxpresso.tools.win32_11.6.1.202207200623/tools/bin/../lib/gcc/arm-none-eabi/10.3.1/../../../../arm-none-eabi/lib/thumb/v7e-m+dp/hard\libc_nano.a(lib_a-fflush.o)
                0x20014934                _fflush_r
 .text.std      0x200149ac       0x48 c:/nxp/mcuxpressoide_11.6.1_8255/ide/plugins/com.nxp.mcuxpresso.tools.win32_11.6.1.202207200623/tools/bin/../lib/gcc/arm-none-eabi/10.3.1/../../../../arm-none-eabi/lib/thumb/v7e-m+dp/hard\libc_nano.a(lib_a-findfp.o)
 .text._cleanup_r
                0x200149f4        0xc c:/nxp/mcuxpressoide_11.6.1_8255/ide/plugins/com.nxp.mcuxpresso.tools.win32_11.6.1.202207200623/tools/bin/../lib/gcc/arm-none-eabi/10.3.1/../../../../arm-none-eabi/lib/thumb/v7e-m+dp/hard\libc_nano.a(lib_a-findfp.o)
                0x200149f4                _cleanup_r
 .text.__sfp_lock_acquire
                0x20014a00        0xc c:/nxp/mcuxpressoide_11.6.1_8255/ide/plugins/com.nxp.mcuxpresso.tools.win32_11.6.1.202207200623/tools/bin/../lib/gcc/arm-none-eabi/10.3.1/../../../../arm-none-eabi/lib/thumb/v7e-m+dp/hard\libc_nano.a(lib_a-findfp.o)
                0x20014a00                __sfp_lock_acquire
 .text.__sfp_lock_release
                0x20014a0c        0xc c:/nxp/mcuxpressoide_11.6.1_8255/ide/plugins/com.nxp.mcuxpresso.tools.win32_11.6.1.202207200623/tools/bin/../lib/gcc/arm-none-eabi/10.3.1/../../../../arm-none-eabi/lib/thumb/v7e-m+dp/hard\libc_nano.a(lib_a-findfp.o)
                0x20014a0c                __sfp_lock_release
 .text.__sinit_lock_acquire
                0x20014a18        0xc c:/nxp/mcuxpressoide_11.6.1_8255/ide/plugins/com.nxp.mcuxpresso.tools.win32_11.6.1.202207200623/tools/bin/../lib/gcc/arm-none-eabi/10.3.1/../../../../arm-none-eabi/lib/thumb/v7e-m+dp/hard\libc_nano.a(lib_a-findfp.o)
                0x20014a18                __sinit_lock_acquire
 .text.__sinit_lock_release
                0x20014a24        0xc c:/nxp/mcuxpressoide_11.6.1_8255/ide/plugins/com.nxp.mcuxpresso.tools.win32_11.6.1.202207200623/tools/bin/../lib/gcc/arm-none-eabi/10.3.1/../../../../arm-none-eabi/lib/thumb/v7e-m+dp/hard\libc_nano.a(lib_a-findfp.o)
                0x20014a24                __sinit_lock_release
 .text.__sinit  0x20014a30       0x70 c:/nxp/mcuxpressoide_11.6.1_8255/ide/plugins/com.nxp.mcuxpresso.tools.win32_11.6.1.202207200623/tools/bin/../lib/gcc/arm-none-eabi/10.3.1/../../../../arm-none-eabi/lib/thumb/v7e-m+dp/hard\libc_nano.a(lib_a-findfp.o)
                0x20014a30                __sinit
 .text.__sfp    0x20014aa0       0x8c c:/nxp/mcuxpressoide_11.6.1_8255/ide/plugins/com.nxp.mcuxpresso.tools.win32_11.6.1.202207200623/tools/bin/../lib/gcc/arm-none-eabi/10.3.1/../../../../arm-none-eabi/lib/thumb/v7e-m+dp/hard\libc_nano.a(lib_a-findfp.o)
                0x20014aa0                __sfp
 .text.__smakebuf_r
                0x20014b2c       0x80 c:/nxp/mcuxpressoide_11.6.1_8255/ide/plugins/com.nxp.mcuxpresso.tools.win32_11.6.1.202207200623/tools/bin/../lib/gcc/arm-none-eabi/10.3.1/../../../../arm-none-eabi/lib/thumb/v7e-m+dp/hard\libc_nano.a(lib_a-makebuf.o)
                0x20014b2c                __smakebuf_r
 .text.__malloc_lock
                0x20014bac        0xc c:/nxp/mcuxpressoide_11.6.1_8255/ide/plugins/com.nxp.mcuxpresso.tools.win32_11.6.1.202207200623/tools/bin/../lib/gcc/arm-none-eabi/10.3.1/../../../../arm-none-eabi/lib/thumb/v7e-m+dp/hard\libc_nano.a(lib_a-mlock.o)
                0x20014bac                __malloc_lock
 .text.__malloc_unlock
                0x20014bb8        0xc c:/nxp/mcuxpressoide_11.6.1_8255/ide/plugins/com.nxp.mcuxpresso.tools.win32_11.6.1.202207200623/tools/bin/../lib/gcc/arm-none-eabi/10.3.1/../../../../arm-none-eabi/lib/thumb/v7e-m+dp/hard\libc_nano.a(lib_a-mlock.o)
                0x20014bb8                __malloc_unlock
 .text.raise    0x20014bc4       0x10 c:/nxp/mcuxpressoide_11.6.1_8255/ide/plugins/com.nxp.mcuxpresso.tools.win32_11.6.1.202207200623/tools/bin/../lib/gcc/arm-none-eabi/10.3.1/../../../../arm-none-eabi/lib/thumb/v7e-m+dp/hard\libc_nano.a(lib_a-signal.o)
                0x20014bc4                raise
 .text._kill_r  0x20014bd4       0x24 c:/nxp/mcuxpressoide_11.6.1_8255/ide/plugins/com.nxp.mcuxpresso.tools.win32_11.6.1.202207200623/tools/bin/../lib/gcc/arm-none-eabi/10.3.1/../../../../arm-none-eabi/lib/thumb/v7e-m+dp/hard\libc_nano.a(lib_a-signalr.o)
                0x20014bd4                _kill_r
 .text._write_r
                0x20014bf8       0x24 c:/nxp/mcuxpressoide_11.6.1_8255/ide/plugins/com.nxp.mcuxpresso.tools.win32_11.6.1.202207200623/tools/bin/../lib/gcc/arm-none-eabi/10.3.1/../../../../arm-none-eabi/lib/thumb/v7e-m+dp/hard\libc_nano.a(lib_a-writer.o)
                0x20014bf8                _write_r
 .text._close_r
                0x20014c1c       0x20 c:/nxp/mcuxpressoide_11.6.1_8255/ide/plugins/com.nxp.mcuxpresso.tools.win32_11.6.1.202207200623/tools/bin/../lib/gcc/arm-none-eabi/10.3.1/../../../../arm-none-eabi/lib/thumb/v7e-m+dp/hard\libc_nano.a(lib_a-closer.o)
                0x20014c1c                _close_r
 .text._fstat_r
                0x20014c3c       0x24 c:/nxp/mcuxpressoide_11.6.1_8255/ide/plugins/com.nxp.mcuxpresso.tools.win32_11.6.1.202207200623/tools/bin/../lib/gcc/arm-none-eabi/10.3.1/../../../../arm-none-eabi/lib/thumb/v7e-m+dp/hard\libc_nano.a(lib_a-fstatr.o)
                0x20014c3c                _fstat_r
 .text._isatty_r
                0x20014c60       0x20 c:/nxp/mcuxpressoide_11.6.1_8255/ide/plugins/com.nxp.mcuxpresso.tools.win32_11.6.1.202207200623/tools/bin/../lib/gcc/arm-none-eabi/10.3.1/../../../../arm-none-eabi/lib/thumb/v7e-m+dp/hard\libc_nano.a(lib_a-isattyr.o)
                0x20014c60                _isatty_r
 .text._lseek_r
                0x20014c80       0x24 c:/nxp/mcuxpressoide_11.6.1_8255/ide/plugins/com.nxp.mcuxpresso.tools.win32_11.6.1.202207200623/tools/bin/../lib/gcc/arm-none-eabi/10.3.1/../../../../arm-none-eabi/lib/thumb/v7e-m+dp/hard\libc_nano.a(lib_a-lseekr.o)
                0x20014c80                _lseek_r
 .text._read_r  0x20014ca4       0x24 c:/nxp/mcuxpressoide_11.6.1_8255/ide/plugins/com.nxp.mcuxpresso.tools.win32_11.6.1.202207200623/tools/bin/../lib/gcc/arm-none-eabi/10.3.1/../../../../arm-none-eabi/lib/thumb/v7e-m+dp/hard\libc_nano.a(lib_a-readr.o)
                0x20014ca4                _read_r
 .text._sbrk    0x20014cc8       0x3c c:/nxp/mcuxpressoide_11.6.1_8255/ide/plugins/com.nxp.mcuxpresso.tools.win32_11.6.1.202207200623/tools/bin/../lib/gcc/arm-none-eabi/10.3.1/../../../../arm-none-eabi/lib/thumb/v7e-m+dp/hard\libcr_newlib_none.a(_cr_sbrk.o)
                0x20014cc8                _sbrk
 .text.__check_heap_overflow
                0x20014d04       0x18 c:/nxp/mcuxpressoide_11.6.1_8255/ide/plugins/com.nxp.mcuxpresso.tools.win32_11.6.1.202207200623/tools/bin/../lib/gcc/arm-none-eabi/10.3.1/../../../../arm-none-eabi/lib/thumb/v7e-m+dp/hard\libcr_newlib_none.a(_cr_check_heap.o)
                0x20014d04                __check_heap_overflow
 .text._close   0x20014d1c       0x10 c:/nxp/mcuxpressoide_11.6.1_8255/ide/plugins/com.nxp.mcuxpresso.tools.win32_11.6.1.202207200623/tools/bin/../lib/gcc/arm-none-eabi/10.3.1/../../../../arm-none-eabi/lib/thumb/v7e-m+dp/hard\libnosys.a(close.o)
                0x20014d1c                _close
 .text._fstat   0x20014d2c       0x10 c:/nxp/mcuxpressoide_11.6.1_8255/ide/plugins/com.nxp.mcuxpresso.tools.win32_11.6.1.202207200623/tools/bin/../lib/gcc/arm-none-eabi/10.3.1/../../../../arm-none-eabi/lib/thumb/v7e-m+dp/hard\libnosys.a(fstat.o)
                0x20014d2c                _fstat
 .text._getpid  0x20014d3c       0x10 c:/nxp/mcuxpressoide_11.6.1_8255/ide/plugins/com.nxp.mcuxpresso.tools.win32_11.6.1.202207200623/tools/bin/../lib/gcc/arm-none-eabi/10.3.1/../../../../arm-none-eabi/lib/thumb/v7e-m+dp/hard\libnosys.a(getpid.o)
                0x20014d3c                _getpid
 .text._isatty  0x20014d4c       0x10 c:/nxp/mcuxpressoide_11.6.1_8255/ide/plugins/com.nxp.mcuxpresso.tools.win32_11.6.1.202207200623/tools/bin/../lib/gcc/arm-none-eabi/10.3.1/../../../../arm-none-eabi/lib/thumb/v7e-m+dp/hard\libnosys.a(isatty.o)
                0x20014d4c                _isatty
 .text._kill    0x20014d5c       0x10 c:/nxp/mcuxpressoide_11.6.1_8255/ide/plugins/com.nxp.mcuxpresso.tools.win32_11.6.1.202207200623/tools/bin/../lib/gcc/arm-none-eabi/10.3.1/../../../../arm-none-eabi/lib/thumb/v7e-m+dp/hard\libnosys.a(kill.o)
                0x20014d5c                _kill
 .text._lseek   0x20014d6c       0x10 c:/nxp/mcuxpressoide_11.6.1_8255/ide/plugins/com.nxp.mcuxpresso.tools.win32_11.6.1.202207200623/tools/bin/../lib/gcc/arm-none-eabi/10.3.1/../../../../arm-none-eabi/lib/thumb/v7e-m+dp/hard\libnosys.a(lseek.o)
                0x20014d6c                _lseek
 .text._read    0x20014d7c       0x10 c:/nxp/mcuxpressoide_11.6.1_8255/ide/plugins/com.nxp.mcuxpresso.tools.win32_11.6.1.202207200623/tools/bin/../lib/gcc/arm-none-eabi/10.3.1/../../../../arm-none-eabi/lib/thumb/v7e-m+dp/hard\libnosys.a(read.o)
                0x20014d7c                _read
 .text._write   0x20014d8c       0x10 c:/nxp/mcuxpressoide_11.6.1_8255/ide/plugins/com.nxp.mcuxpresso.tools.win32_11.6.1.202207200623/tools/bin/../lib/gcc/arm-none-eabi/10.3.1/../../../../arm-none-eabi/lib/thumb/v7e-m+dp/hard\libnosys.a(write.o)
                0x20014d8c                _write
 .text._exit    0x20014d9c        0x4 c:/nxp/mcuxpressoide_11.6.1_8255/ide/plugins/com.nxp.mcuxpresso.tools.win32_11.6.1.202207200623/tools/bin/../lib/gcc/arm-none-eabi/10.3.1/../../../../arm-none-eabi/lib/thumb/v7e-m+dp/hard\libnosys.a(_exit.o)
                0x20014d9c                _exit
 .text.__errno  0x20014da0        0xc c:/nxp/mcuxpressoide_11.6.1_8255/ide/plugins/com.nxp.mcuxpresso.tools.win32_11.6.1.202207200623/tools/bin/../lib/gcc/arm-none-eabi/10.3.1/../../../../arm-none-eabi/lib/thumb/v7e-m+dp/hard\libc_nano.a(lib_a-errno.o)
                0x20014da0                __errno
 .text.USB_DeviceEhciSetDefaultState
                0x20014dac       0xa0 ./usb/device/source/ehci/usb_device_ehci.o
 .text.USB_DeviceEhciSend
                0x20014e4c        0xc ./usb/device/source/ehci/usb_device_ehci.o
                0x20014e4c                USB_DeviceEhciSend
 .text.USB_DeviceEhciRecv
                0x20014e58        0x8 ./usb/device/source/ehci/usb_device_ehci.o
                0x20014e58                USB_DeviceEhciRecv
 .text.USB_DeviceEhciEndpointDeinit
                0x20014e60       0x90 ./usb/device/source/ehci/usb_device_ehci.o
 .text.USB_DeviceEhciControl
                0x20014ef0      0x2c8 ./usb/device/source/ehci/usb_device_ehci.o
                0x20014ef0                USB_DeviceEhciControl
 .text.USB_DeviceEhciIsrFunction
                0x200151b8      0x2f4 ./usb/device/source/ehci/usb_device_ehci.o
                0x200151b8                USB_DeviceEhciIsrFunction
 .text.USB_DeviceCh9SynchFrame
                0x200154ac       0x6a ./usb/device/source/usb_device_ch9.o
 .text.USB_DeviceCh9GetStatus
                0x20015516       0xb0 ./usb/device/source/usb_device_ch9.o
 .text.USB_DeviceCh9GetInterface
                0x200155c6       0x6a ./usb/device/source/usb_device_ch9.o
 .text.USB_DeviceCh9GetConfiguration
                0x20015630       0x5a ./usb/device/source/usb_device_ch9.o
 .text.USB_DeviceCh9GetDescriptor
                0x2001568a       0xfe ./usb/device/source/usb_device_ch9.o
 .text.USB_DeviceCh9SetConfiguration
                0x20015788       0x7e ./usb/device/source/usb_device_ch9.o
 .text.USB_DeviceCh9SetAddress
                0x20015806       0x74 ./usb/device/source/usb_device_ch9.o
 .text.USB_DeviceCh9SetClearFeature
                0x2001587a       0x9a ./usb/device/source/usb_device_ch9.o
 .text.USB_DeviceControlCallbackFeedback.constprop.0
                0x20015914       0x54 ./usb/device/source/usb_device_ch9.o
 .text.USB_DeviceCh9SetInterface
                0x20015968       0x62 ./usb/device/source/usb_device_ch9.o
 .text.USB_DeviceControl
                0x200159ca       0x14 ./usb/device/source/usb_device_dci.o
 .text.USB_DeviceTransfer
                0x200159de       0x7a ./usb/device/source/usb_device_dci.o
 .text.USB_DeviceNotificationTrigger
                0x20015a58       0xa4 ./usb/device/source/usb_device_dci.o
                0x20015a58                USB_DeviceNotificationTrigger
 .text.USB_DeviceRun
                0x20015afc        0x8 ./usb/device/source/usb_device_dci.o
                0x20015afc                USB_DeviceRun
 .text.USB_DeviceDeinit
                0x20015b04       0x34 ./usb/device/source/usb_device_dci.o
                0x20015b04                USB_DeviceDeinit
 .text.USB_DeviceSendRequest
                0x20015b38        0xc ./usb/device/source/usb_device_dci.o
                0x20015b38                USB_DeviceSendRequest
 .text.USB_DeviceRecvRequest
                0x20015b44        0x8 ./usb/device/source/usb_device_dci.o
                0x20015b44                USB_DeviceRecvRequest
 .text.USB_DeviceInitEndpoint
                0x20015b4c       0x3e ./usb/device/source/usb_device_dci.o
                0x20015b4c                USB_DeviceInitEndpoint
 .text.USB_DeviceDeinitEndpoint
                0x20015b8a       0x3e ./usb/device/source/usb_device_dci.o
                0x20015b8a                USB_DeviceDeinitEndpoint
 .text.USB_DeviceStallEndpoint
                0x20015bc8       0x1e ./usb/device/source/usb_device_dci.o
                0x20015bc8                USB_DeviceStallEndpoint
 .text.USB_DeviceUnstallEndpoint
                0x20015be6       0x1e ./usb/device/source/usb_device_dci.o
                0x20015be6                USB_DeviceUnstallEndpoint
 .text.USB_DeviceGetStatus
                0x20015c04       0x42 ./usb/device/source/usb_device_dci.o
                0x20015c04                USB_DeviceGetStatus
 .text.USB_DeviceSetStatus
                0x20015c46       0x62 ./usb/device/source/usb_device_dci.o
                0x20015c46                USB_DeviceSetStatus
 .text.USB_DeviceHidInterruptIn
                0x20015ca8       0x20 ./usb/device/class/hid/usb_device_hid.o
 .text.USB_DeviceHidInterruptOut
                0x20015cc8       0x20 ./usb/device/class/hid/usb_device_hid.o
 .text.USB_DeviceHidEndpointsDeinit
                0x20015ce8       0x32 ./usb/device/class/hid/usb_device_hid.o
 .text.USB_DeviceHidEvent
                0x20015d1a      0x2ba ./usb/device/class/hid/usb_device_hid.o
                0x20015d1a                USB_DeviceHidEvent
 .text.USB_DeviceHidDeinit
                0x20015fd4       0x1a ./usb/device/class/hid/usb_device_hid.o
                0x20015fd4                USB_DeviceHidDeinit
 .text.USB_DeviceHidSend
                0x20015fee       0x36 ./usb/device/class/hid/usb_device_hid.o
                0x20015fee                USB_DeviceHidSend
 .text.USB_DeviceHidRecv
                0x20016024       0x36 ./usb/device/class/hid/usb_device_hid.o
                0x20016024                USB_DeviceHidRecv
 .text.USB_DeviceClassEvent
                0x2001605a       0x5e ./usb/device/class/usb_device_class.o
                0x2001605a                USB_DeviceClassEvent
 .text.USB_DeviceClassCallback
                0x200160b8       0x38 ./usb/device/class/usb_device_class.o
                0x200160b8                USB_DeviceClassCallback
 .text.USB_DeviceClassDeinit
                0x200160f0       0x5c ./usb/device/class/usb_device_class.o
                0x200160f0                USB_DeviceClassDeinit
 .text.USB_DeviceClassGetSpeed
                0x2001614c       0x1e ./usb/device/class/usb_device_class.o
                0x2001614c                USB_DeviceClassGetSpeed
 .text.sync_init
                0x2001616a        0x4 ./source/utilities/src/fsl_rtos_abstraction.o
                0x2001616a                sync_init
 .text.lock_init
                0x2001616e        0x2 ./source/utilities/src/fsl_rtos_abstraction.o
                0x2001616e                lock_init
 .text.usb_device_get_hid_descriptor
                0x20016170        0x4 ./source/usb/bm_composite/usb_descriptor.o
                0x20016170                usb_device_get_hid_descriptor
 .text.usb_device_get_hid_physical_descriptor
                0x20016174        0x4 ./source/usb/bm_composite/usb_descriptor.o
                0x20016174                usb_device_get_hid_physical_descriptor
 .text.ldr_DoTagCmd
                0x20016178       0x38 ./source/sbloader/src/sbloader.o
                0x20016178                ldr_DoTagCmd
 .text.ldr_DoCallCmd
                0x200161b0       0x36 ./source/sbloader/src/sbloader.o
                0x200161b0                ldr_DoCallCmd
 .text.bootloader_property_set_uint32
                0x200161e6       0x30 ./source/property/src/property_imx.o
                0x200161e6                bootloader_property_set_uint32
 .text.target_load_bootloader_config_area
                0x20016216        0x4 ./source/property/src/property_imx.o
                0x20016216                target_load_bootloader_config_area
 .text.serial_packet_init
                0x2001621a        0x4 ./source/packet/src/serial_packet.o
                0x2001621a                serial_packet_init
 .text.serial_packet_get_max_packet_size
                0x2001621e        0x6 ./source/packet/src/serial_packet.o
                0x2001621e                serial_packet_get_max_packet_size
 .text.calculate_framing_crc16
                0x20016224       0x34 ./source/packet/src/serial_packet.o
 .text.read_header
                0x20016258       0x26 ./source/packet/src/serial_packet.o
 .text.serial_packet_finalize
                0x2001627e        0x4 ./source/packet/src/serial_packet.o
                0x2001627e                serial_packet_finalize
 .text.flexspi_nor_mem_init
                0x20016282        0x4 ./source/memory/src/flexspi_nor_memory.o
                0x20016282                flexspi_nor_mem_init
 .text.flexspi_nor_mem_config
                0x20016286       0x22 ./source/memory/src/flexspi_nor_memory.o
                0x20016286                flexspi_nor_mem_config
 .text.mem_write_check
                0x200162a8       0x3c ./source/memory/src/memory.o
                0x200162a8                mem_write_check
 .text.mem_erase
                0x200162e4       0x66 ./source/memory/src/memory.o
                0x200162e4                mem_erase
 .text.mem_fill
                0x2001634a       0x38 ./source/memory/src/memory.o
                0x2001634a                mem_fill
 .text.normal_mem_read
                0x20016382       0x12 ./source/memory/src/normal_memory.o
                0x20016382                normal_mem_read
 .text.normal_mem_write
                0x20016394       0x10 ./source/memory/src/normal_memory.o
                0x20016394                normal_mem_write
 .text.normal_mem_fill
                0x200163a4       0x12 ./source/memory/src/normal_memory.o
                0x200163a4                normal_mem_fill
 .text.semc_nand_calculate_crc32
                0x200163b6       0x26 ./source/memory/src/semc_nand_memory.o
 .text.is_spi_nor_memory_erased
                0x200163dc       0x4a ./source/memory/src/spi_nor_eeprom_memory.o
 .text.calculate_crc32
                0x20016426       0x26 ./source/memory/src/spinand_memory.o
 .text.USDHC_SetDataTransferConfig
                0x2001644c       0xc0 ./source/drivers/usdhc/bl_usdhc.o
 .text.USDHC_ReceiveCommandResponse
                0x2001650c       0x5c ./source/drivers/usdhc/bl_usdhc.o
 .text.USDHC_ReadDataPort
                0x20016568       0x48 ./source/drivers/usdhc/bl_usdhc.o
 .text.USDHC_WriteDataPort
                0x200165b0       0x4a ./source/drivers/usdhc/bl_usdhc.o
 .text.USDHC_Reset
                0x200165fa       0x22 ./source/drivers/usdhc/bl_usdhc.o
                0x200165fa                USDHC_Reset
 .text.USDHC_SetCardActive
                0x2001661c       0x1e ./source/drivers/usdhc/bl_usdhc.o
                0x2001661c                USDHC_SetCardActive
 .text.USDHC_AdjustDelayForManualTuning
                0x2001663a       0x1e ./source/drivers/usdhc/bl_usdhc.o
                0x2001663a                USDHC_AdjustDelayForManualTuning
 .text.USDHC_EnableStandardTuning
                0x20016658       0x4a ./source/drivers/usdhc/bl_usdhc.o
                0x20016658                USDHC_EnableStandardTuning
 .text.TRNG_GetRandomData
                0x200166a2       0x7c ./source/drivers/trng/bl_trng.o
                0x200166a2                TRNG_GetRandomData
 .text.serial_nor_eeprom_soft_erase
                0x2001671e       0x34 ./source/drivers/serial_nor_eeprom/serial_nor_eeprom.o
 .text.semc_nor_issue_exit_read_cfi_auto_select
                0x20016752       0x22 ./source/drivers/semc_nor/semc_nor_flash.o
 .text.semc_nor_issue_unlock_bypass_reset
                0x20016774       0x30 ./source/drivers/semc_nor/semc_nor_flash.o
 .text.semc_nor_check_toggle_bit
                0x200167a4       0xd2 ./source/drivers/semc_nor/semc_nor_flash.o
 .text.semc_nor_flash_verify_erase
                0x20016876       0x1a ./source/drivers/semc_nor/semc_nor_flash.o
                0x20016876                semc_nor_flash_verify_erase
 .text.semc_nor_flash_verify_program
                0x20016890       0x22 ./source/drivers/semc_nor/semc_nor_flash.o
                0x20016890                semc_nor_flash_verify_program
 .text.semc_nand_wait_for_ready
                0x200168b2       0x8e ./source/drivers/semc_nand/semc_nand_flash.o
 .text.semc_nand_issue_read_mode
                0x20016940       0x2e ./source/drivers/semc_nand/semc_nand_flash.o
 .text.semc_nand_is_device_ecc_check_passed
                0x2001696e       0x38 ./source/drivers/semc_nand/semc_nand_flash.o
 .text.semc_nand_issue_access_feature
                0x200169a6       0x90 ./source/drivers/semc_nand/semc_nand_flash.o
 .text.semc_nand_flash_verify_erase
                0x20016a36       0x4e ./source/drivers/semc_nand/semc_nand_flash.o
                0x20016a36                semc_nand_flash_verify_erase
 .text.semc_nand_flash_verify_page_program
                0x20016a84       0x30 ./source/drivers/semc_nand/semc_nand_flash.o
                0x20016a84                semc_nand_flash_verify_page_program
 .text.semc_convert_memory_size_to_ms
                0x20016ab4       0x20 ./source/drivers/semc/bl_semc.o
 .text.semc_set_macthed_ipg_command_data_size
                0x20016ad4       0x18 ./source/drivers/semc/bl_semc.o
 .text.semc_ipg_memory_read
                0x20016aec       0x7e ./source/drivers/semc/bl_semc.o
                0x20016aec                semc_ipg_memory_read
 .text.semc_ipg_memory_write
                0x20016b6a       0xa4 ./source/drivers/semc/bl_semc.o
                0x20016b6a                semc_ipg_memory_write
 .text.semc_axi_memory_read
                0x20016c0e       0x10 ./source/drivers/semc/bl_semc.o
                0x20016c0e                semc_axi_memory_read
 .text.semc_axi_memory_write
                0x20016c1e        0xe ./source/drivers/semc/bl_semc.o
                0x20016c1e                semc_axi_memory_write
 .text.semc_ipg_command_get_nand_code
                0x20016c2c       0x10 ./source/drivers/semc/bl_semc.o
                0x20016c2c                semc_ipg_command_get_nand_code
 .text.semc_ipg_command_convert_nand_address
                0x20016c3c       0x28 ./source/drivers/semc/bl_semc.o
                0x20016c3c                semc_ipg_command_convert_nand_address
 .text.semc_ipg_command_convert_nor_address
                0x20016c64       0x16 ./source/drivers/semc/bl_semc.o
                0x20016c64                semc_ipg_command_convert_nor_address
 .text.MMC_HostReset
                0x20016c7a        0x6 ./source/drivers/sdmmc/fsl_mmc.o
                0x20016c7a                MMC_HostReset
 .text.SD_HostReset
                0x20016c80        0x6 ./source/drivers/sdmmc/fsl_sd.o
                0x20016c80                SD_HostReset
 .text.SDMMC_ExecuteTuning
                0x20016c86       0xc0 ./source/drivers/sdmmc/fsl_sdmmc_common.o
                0x20016c86                SDMMC_ExecuteTuning
 .text.SDMMCHOST_Reset
                0x20016d46       0x2c ./source/drivers/sdmmc/fsl_sdmmc_host.o
                0x20016d46                SDMMCHOST_Reset
 .text.ocotp_wait_for_busy.constprop.0
                0x20016d72       0x46 ./source/drivers/ocotp/bl_ocotp.o
 .text.nand_ecc_count_bit1
                0x20016db8       0x20 ./source/drivers/nand_ecc/nand_ecc.o
                0x20016db8                nand_ecc_count_bit1
 .text.flexspi_nor_wait_busy
                0x20016dd8       0x5c ./source/drivers/flexspi_nor/flexspi_nor_flash.o
 .text.flexspi_nor_write_enable
                0x20016e34       0x9c ./source/drivers/flexspi_nor/flexspi_nor_flash.o
 .text.flexspi_nor_restore_no_cmd_mode
                0x20016ed0       0x44 ./source/drivers/flexspi_nor/flexspi_nor_flash.o
 .text.flexspi_change_serial_clock
                0x20016f14       0x9a ./source/drivers/flexspi_nor/flexspi_nor_flash.o
 .text.flexspi_nor_read_sfdp.part.0
                0x20016fae       0x34 ./source/drivers/flexspi_nor/flexspi_nor_flash.o
 .text.flexspi_nor_flash_init
                0x20016fe2       0x28 ./source/drivers/flexspi_nor/flexspi_nor_flash.o
                0x20016fe2                flexspi_nor_flash_init
 .text.flexspi_nor_flash_page_program
                0x2001700a       0xc4 ./source/drivers/flexspi_nor/flexspi_nor_flash.o
                0x2001700a                flexspi_nor_flash_page_program
 .text.flexspi_nor_flash_erase_all
                0x200170ce      0x102 ./source/drivers/flexspi_nor/flexspi_nor_flash.o
                0x200170ce                flexspi_nor_flash_erase_all
 .text.flexspi_nor_flash_erase_sector
                0x200171d0       0xb4 ./source/drivers/flexspi_nor/flexspi_nor_flash.o
                0x200171d0                flexspi_nor_flash_erase_sector
 .text.flexspi_nor_flash_erase_block
                0x20017284       0xb4 ./source/drivers/flexspi_nor/flexspi_nor_flash.o
                0x20017284                flexspi_nor_flash_erase_block
 .text.get_page_sector_block_size_from_sfdp
                0x20017338      0x11a ./source/drivers/flexspi_nor/flexspi_nor_flash.o
                0x20017338                get_page_sector_block_size_from_sfdp
 .text.flexspi_nor_flash_erase
                0x20017452       0x86 ./source/drivers/flexspi_nor/flexspi_nor_flash.o
                0x20017452                flexspi_nor_flash_erase
 .text.flexspi_nor_flash_read
                0x200174d8       0x5e ./source/drivers/flexspi_nor/flexspi_nor_flash.o
                0x200174d8                flexspi_nor_flash_read
 .text.flexspi_nand_check_error_status
                0x20017536       0x5e ./source/drivers/flexspi_nand/flexspi_nand_flash.o
 .text.flexspi_nand_check_ecc_status
                0x20017594       0x86 ./source/drivers/flexspi_nand/flexspi_nand_flash.o
 .text.flexspi_nand_init
                0x2001761a       0x26 ./source/drivers/flexspi_nand/flexspi_nand_flash.o
                0x2001761a                flexspi_nand_init
 .text.flexspi_nand_read_page
                0x20017640      0x14a ./source/drivers/flexspi_nand/flexspi_nand_flash.o
                0x20017640                flexspi_nand_read_page
 .text.flexspi_nand_erase_block
                0x2001778a       0xc4 ./source/drivers/flexspi_nand/flexspi_nand_flash.o
                0x2001778a                flexspi_nand_erase_block
 .text.flexspi_nand_program_page
                0x2001784e      0x14a ./source/drivers/flexspi_nand/flexspi_nand_flash.o
                0x2001784e                flexspi_nand_program_page
 .text.flexspi_clear_sequence_pointer.part.0
                0x20017998       0x20 ./source/drivers/flexspi/bl_flexspi.o
 .text.flexspi_is_parallel_mode
                0x200179b8        0x8 ./source/drivers/flexspi/bl_flexspi.o
                0x200179b8                flexspi_is_parallel_mode
 .text.flexspi_is_padsetting_override_enable
                0x200179c0        0x8 ./source/drivers/flexspi/bl_flexspi.o
                0x200179c0                flexspi_is_padsetting_override_enable
 .text.flexspi_is_differential_clock_enable
                0x200179c8        0x8 ./source/drivers/flexspi/bl_flexspi.o
                0x200179c8                flexspi_is_differential_clock_enable
 .text.flexspi_is_word_addressable
                0x200179d0        0x8 ./source/drivers/flexspi/bl_flexspi.o
                0x200179d0                flexspi_is_word_addressable
 .text.flexspi_is_ck2_enabled
                0x200179d8        0x8 ./source/drivers/flexspi/bl_flexspi.o
                0x200179d8                flexspi_is_ck2_enabled
 .text.flexspi_is_ddr_mode_enable
                0x200179e0        0x8 ./source/drivers/flexspi/bl_flexspi.o
                0x200179e0                flexspi_is_ddr_mode_enable
 .text.flexspi_config_flash_control_registers
                0x200179e8       0xb2 ./source/drivers/flexspi/bl_flexspi.o
                0x200179e8                flexspi_config_flash_control_registers
 .text.flexspi_device_write_enable
                0x20017a9a       0x58 ./source/drivers/flexspi/bl_flexspi.o
                0x20017a9a                flexspi_device_write_enable
 .text.flexspi_clear_cache
                0x20017af2        0x8 ./source/drivers/flexspi/bl_flexspi.o
                0x20017af2                flexspi_clear_cache
 .text.flexspi_device_wait_busy
                0x20017afa       0xfc ./source/drivers/flexspi/bl_flexspi.o
                0x20017afa                flexspi_device_wait_busy
 .text.uint32_to_be
                0x20017bf6       0x1e ./source/drivers/dcp/bl_dcp.o
 .text.dcp_aes_cbc_crypt
                0x20017c14       0x4a ./source/drivers/dcp/bl_dcp.o
                0x20017c14                dcp_aes_cbc_crypt
 .text.dcp_aes_ecb_crypt
                0x20017c5e       0x44 ./source/drivers/dcp/bl_dcp.o
                0x20017c5e                dcp_aes_ecb_crypt
 .text.dcp_aes_ctr_crypt
                0x20017ca2       0x7e ./source/drivers/dcp/bl_dcp.o
                0x20017ca2                dcp_aes_ctr_crypt
 .text.aes_ccm_auth_crypt
                0x20017d20      0x284 ./source/drivers/dcp/bl_dcp.o
 .text.dcp_aes_ccm_encrypt_and_mac
                0x20017fa4       0x2c ./source/drivers/dcp/bl_dcp.o
                0x20017fa4                dcp_aes_ccm_encrypt_and_mac
 .text.crc32_init
                0x20017fd0        0xc ./source/crc/crc32.o
                0x20017fd0                crc32_init
 .text.handle_flash_erase_all
                0x20017fdc       0x6c ./source/bootloader/src/bl_command.o
                0x20017fdc                handle_flash_erase_all
 .text.handle_configure_memory
                0x20018048       0x16 ./source/bootloader/src/bl_command.o
                0x20018048                handle_configure_memory
 .text.handle_call
                0x2001805e       0x26 ./source/bootloader/src/bl_command.o
                0x2001805e                handle_call
 .text.bl_nor_encrypt_region_info_valid
                0x20018084       0x12 ./source/bootloader/src/bl_nor_encrypt_bee.o
                0x20018084                bl_nor_encrypt_region_info_valid
 .text.usb_hid_packet_finalize
                0x20018096        0x4 ./source/bootloader/src/usb_hid_msc_peripheral_interface.o
 .text.usb_hid_packet_get_max_packet_size
                0x2001809a        0x6 ./source/bootloader/src/usb_hid_msc_peripheral_interface.o
 .text.autobaud_deinit
                0x200180a0        0x4 ./source/autobaud/autobaud_irq.o
                0x200180a0                autobaud_deinit
 .text.GPIO_PinSetInterruptConfig
                0x200180a4       0x7c ./drivers/fsl_gpio.o
                0x200180a4                GPIO_PinSetInterruptConfig
 .text.LPUART_EnableInterrupts
                0x20018120       0x32 ./drivers/fsl_lpuart.o
                0x20018120                LPUART_EnableInterrupts
 .text.OSA_EnterCritical
                0x20018152        0xa ./component/osa/fsl_os_abstraction_bm.o
                0x20018152                OSA_EnterCritical
 .text.OSA_ExitCritical
                0x2001815c        0x6 ./component/osa/fsl_os_abstraction_bm.o
                0x2001815c                OSA_ExitCritical
 .text.configure_clocks
                0x20018162        0x8 ./MIMXRT1052/bl_clock_config_MIMXRT1052.o
                0x20018162                configure_clocks
 .text.get_ocotp_clock
                0x2001816a        0x4 ./MIMXRT1052/bl_clock_config_MIMXRT1052.o
                0x2001816a                get_ocotp_clock
 .text.flexspi_sw_delay_us
                0x2001816e       0x1c ./MIMXRT1052/bl_clock_config_MIMXRT1052.o
                0x2001816e                flexspi_sw_delay_us
 .text.is_boot_pin_asserted
                0x2001818a        0x4 ./MIMXRT1052/hardware_init_MIMXRT1052.o
                0x2001818a                is_boot_pin_asserted
 .text.flexspi_set_failsafe_setting
                0x2001818e       0x2a ./MIMXRT1052/hardware_init_MIMXRT1052.o
                0x2001818e                flexspi_set_failsafe_setting
 .text.update_available_peripherals
                0x200181b8        0x2 ./MIMXRT1052/hardware_init_MIMXRT1052.o
                0x200181b8                update_available_peripherals
 .text.flexspi_update_padsetting
                0x200181ba       0x22 ./MIMXRT1052/hardware_init_MIMXRT1052.o
                0x200181ba                flexspi_update_padsetting
 .text.uart_pinmux_config
                0x200181dc       0x18 ./MIMXRT1052/pinmux_utility_imxrt_series.o
                0x200181dc                uart_pinmux_config
 .text.memcmp   0x200181f4       0x20 c:/nxp/mcuxpressoide_11.6.1_8255/ide/plugins/com.nxp.mcuxpresso.tools.win32_11.6.1.202207200623/tools/bin/../lib/gcc/arm-none-eabi/10.3.1/../../../../arm-none-eabi/lib/thumb/v7e-m+dp/hard\libc_nano.a(lib_a-memcmp.o)
                0x200181f4                memcmp
 .text.memcpy   0x20018214       0x1c c:/nxp/mcuxpressoide_11.6.1_8255/ide/plugins/com.nxp.mcuxpresso.tools.win32_11.6.1.202207200623/tools/bin/../lib/gcc/arm-none-eabi/10.3.1/../../../../arm-none-eabi/lib/thumb/v7e-m+dp/hard\libc_nano.a(lib_a-memcpy-stub.o)
                0x20018214                memcpy
 .text.memset   0x20018230       0x10 c:/nxp/mcuxpressoide_11.6.1_8255/ide/plugins/com.nxp.mcuxpresso.tools.win32_11.6.1.202207200623/tools/bin/../lib/gcc/arm-none-eabi/10.3.1/../../../../arm-none-eabi/lib/thumb/v7e-m+dp/hard\libc_nano.a(lib_a-memset.o)
                0x20018230                memset
 .text.__sfputc_r
                0x20018240       0x2e c:/nxp/mcuxpressoide_11.6.1_8255/ide/plugins/com.nxp.mcuxpresso.tools.win32_11.6.1.202207200623/tools/bin/../lib/gcc/arm-none-eabi/10.3.1/../../../../arm-none-eabi/lib/thumb/v7e-m+dp/hard\libc_nano.a(lib_a-nano-vfprintf.o)
 .text.__sfputs_r
                0x2001826e       0x24 c:/nxp/mcuxpressoide_11.6.1_8255/ide/plugins/com.nxp.mcuxpresso.tools.win32_11.6.1.202207200623/tools/bin/../lib/gcc/arm-none-eabi/10.3.1/../../../../arm-none-eabi/lib/thumb/v7e-m+dp/hard\libc_nano.a(lib_a-nano-vfprintf.o)
                0x2001826e                __sfputs_r
 .text._printf_common
                0x20018292       0xda c:/nxp/mcuxpressoide_11.6.1_8255/ide/plugins/com.nxp.mcuxpresso.tools.win32_11.6.1.202207200623/tools/bin/../lib/gcc/arm-none-eabi/10.3.1/../../../../arm-none-eabi/lib/thumb/v7e-m+dp/hard\libc_nano.a(lib_a-nano-vfprintf_i.o)
                0x20018292                _printf_common
 .text.abort    0x2001836c        0xe c:/nxp/mcuxpressoide_11.6.1_8255/ide/plugins/com.nxp.mcuxpresso.tools.win32_11.6.1.202207200623/tools/bin/../lib/gcc/arm-none-eabi/10.3.1/../../../../arm-none-eabi/lib/thumb/v7e-m+dp/hard\libc_nano.a(lib_a-abort.o)
                0x2001836c                abort
 .text.__sfmoreglue
                0x2001837a       0x2c c:/nxp/mcuxpressoide_11.6.1_8255/ide/plugins/com.nxp.mcuxpresso.tools.win32_11.6.1.202207200623/tools/bin/../lib/gcc/arm-none-eabi/10.3.1/../../../../arm-none-eabi/lib/thumb/v7e-m+dp/hard\libc_nano.a(lib_a-findfp.o)
                0x2001837a                __sfmoreglue
 .text._fwalk_reent
                0x200183a6       0x3e c:/nxp/mcuxpressoide_11.6.1_8255/ide/plugins/com.nxp.mcuxpresso.tools.win32_11.6.1.202207200623/tools/bin/../lib/gcc/arm-none-eabi/10.3.1/../../../../arm-none-eabi/lib/thumb/v7e-m+dp/hard\libc_nano.a(lib_a-fwalk.o)
                0x200183a6                _fwalk_reent
 .text.__retarget_lock_init_recursive
                0x200183e4        0x2 c:/nxp/mcuxpressoide_11.6.1_8255/ide/plugins/com.nxp.mcuxpresso.tools.win32_11.6.1.202207200623/tools/bin/../lib/gcc/arm-none-eabi/10.3.1/../../../../arm-none-eabi/lib/thumb/v7e-m+dp/hard\libc_nano.a(lib_a-lock.o)
                0x200183e4                __retarget_lock_init_recursive
 .text.__retarget_lock_acquire_recursive
                0x200183e6        0x2 c:/nxp/mcuxpressoide_11.6.1_8255/ide/plugins/com.nxp.mcuxpresso.tools.win32_11.6.1.202207200623/tools/bin/../lib/gcc/arm-none-eabi/10.3.1/../../../../arm-none-eabi/lib/thumb/v7e-m+dp/hard\libc_nano.a(lib_a-lock.o)
                0x200183e6                __retarget_lock_acquire_recursive
 .text.__retarget_lock_release_recursive
                0x200183e8        0x2 c:/nxp/mcuxpressoide_11.6.1_8255/ide/plugins/com.nxp.mcuxpresso.tools.win32_11.6.1.202207200623/tools/bin/../lib/gcc/arm-none-eabi/10.3.1/../../../../arm-none-eabi/lib/thumb/v7e-m+dp/hard\libc_nano.a(lib_a-lock.o)
                0x200183e8                __retarget_lock_release_recursive
 .text.__swhatbuf_r
                0x200183ea       0x4a c:/nxp/mcuxpressoide_11.6.1_8255/ide/plugins/com.nxp.mcuxpresso.tools.win32_11.6.1.202207200623/tools/bin/../lib/gcc/arm-none-eabi/10.3.1/../../../../arm-none-eabi/lib/thumb/v7e-m+dp/hard\libc_nano.a(lib_a-makebuf.o)
                0x200183ea                __swhatbuf_r
 .text._raise_r
                0x20018434       0x50 c:/nxp/mcuxpressoide_11.6.1_8255/ide/plugins/com.nxp.mcuxpresso.tools.win32_11.6.1.202207200623/tools/bin/../lib/gcc/arm-none-eabi/10.3.1/../../../../arm-none-eabi/lib/thumb/v7e-m+dp/hard\libc_nano.a(lib_a-signal.o)
                0x20018434                _raise_r
 .text._getpid_r
                0x20018484        0x4 c:/nxp/mcuxpressoide_11.6.1_8255/ide/plugins/com.nxp.mcuxpresso.tools.win32_11.6.1.202207200623/tools/bin/../lib/gcc/arm-none-eabi/10.3.1/../../../../arm-none-eabi/lib/thumb/v7e-m+dp/hard\libc_nano.a(lib_a-signalr.o)
                0x20018484                _getpid_r
 .text.__sread  0x20018488       0x22 c:/nxp/mcuxpressoide_11.6.1_8255/ide/plugins/com.nxp.mcuxpresso.tools.win32_11.6.1.202207200623/tools/bin/../lib/gcc/arm-none-eabi/10.3.1/../../../../arm-none-eabi/lib/thumb/v7e-m+dp/hard\libc_nano.a(lib_a-stdio.o)
                0x20018488                __sread
 .text.__swrite
                0x200184aa       0x38 c:/nxp/mcuxpressoide_11.6.1_8255/ide/plugins/com.nxp.mcuxpresso.tools.win32_11.6.1.202207200623/tools/bin/../lib/gcc/arm-none-eabi/10.3.1/../../../../arm-none-eabi/lib/thumb/v7e-m+dp/hard\libc_nano.a(lib_a-stdio.o)
                0x200184aa                __swrite
 .text.__sseek  0x200184e2       0x24 c:/nxp/mcuxpressoide_11.6.1_8255/ide/plugins/com.nxp.mcuxpresso.tools.win32_11.6.1.202207200623/tools/bin/../lib/gcc/arm-none-eabi/10.3.1/../../../../arm-none-eabi/lib/thumb/v7e-m+dp/hard\libc_nano.a(lib_a-stdio.o)
                0x200184e2                __sseek
 .text.__sclose
                0x20018506        0x8 c:/nxp/mcuxpressoide_11.6.1_8255/ide/plugins/com.nxp.mcuxpresso.tools.win32_11.6.1.202207200623/tools/bin/../lib/gcc/arm-none-eabi/10.3.1/../../../../arm-none-eabi/lib/thumb/v7e-m+dp/hard\libc_nano.a(lib_a-stdio.o)
                0x20018506                __sclose
 *(SORT_BY_ALIGNMENT(.rodata))
 *fill*         0x2001850e        0x2 
 .rodata        0x20018510       0x14 ./source/memory/src/spi_nor_eeprom_memory.o
 .rodata        0x20018524       0xb0 ./source/drivers/flexspi_nor/flexspi_nor_flash.o
 .rodata        0x200185d4       0x20 ./source/bootloader/src/bl_main.o
 .rodata        0x200185f4       0xb4 ./MIMXRT1052/hardware_init_MIMXRT1052.o
 .rodata        0x200186a8        0x3 ./source/drivers/nand_ecc/nand_ecc.o
 .rodata        0x200186ab      0x263 ./source/bootloader/src/bl_command.o
 .rodata        0x2001890e       0x28 ./MIMXRT1052/bl_clock_config_MIMXRT1052.o
 *(SORT_BY_ALIGNMENT(.rodata*))
 *fill*         0x20018936        0x2 
 .rodata.s_UsbDeviceStandardRequest
                0x20018938       0x34 ./usb/device/source/usb_device_ch9.o
 .rodata.s_UsbDeviceEhciInterface
                0x2001896c       0x18 ./usb/device/source/usb_device_dci.o
 .rodata.g_propertyInterface
                0x20018984       0x14 ./source/property/src/property_imx.o
                0x20018984                g_propertyInterface
 .rodata.g_framingPacketInterface
                0x20018998       0x1c ./source/packet/src/serial_packet.o
                0x20018998                g_framingPacketInterface
 .rodata.k_PingResponse
                0x200189b4        0x8 ./source/packet/src/serial_packet.o
                0x200189b4                k_PingResponse
 .rodata.g_flexspiMemoryInterface
                0x200189bc       0x20 ./source/memory/src/flexspi_nor_memory.o
                0x200189bc                g_flexspiMemoryInterface
 .rodata.g_memoryInterface
                0x200189dc       0x1c ./source/memory/src/memory.o
                0x200189dc                g_memoryInterface
 .rodata.g_mmcMemoryInterface
                0x200189f8       0x20 ./source/memory/src/mmc_memory.o
                0x200189f8                g_mmcMemoryInterface
 .rodata.g_normalMemoryInterface
                0x20018a18       0x20 ./source/memory/src/normal_memory.o
                0x20018a18                g_normalMemoryInterface
 .rodata.g_sdMemoryInterface
                0x20018a38       0x20 ./source/memory/src/sd_memory.o
                0x20018a38                g_sdMemoryInterface
 .rodata.g_semcNandMemoryInterface
                0x20018a58       0x20 ./source/memory/src/semc_nand_memory.o
                0x20018a58                g_semcNandMemoryInterface
 .rodata.g_semcNorMemoryInterface
                0x20018a78       0x20 ./source/memory/src/semc_nor_memory.o
                0x20018a78                g_semcNorMemoryInterface
 .rodata.g_spiNorEepromMemoryInterface
                0x20018a98       0x20 ./source/memory/src/spi_nor_eeprom_memory.o
                0x20018a98                g_spiNorEepromMemoryInterface
 .rodata.g_spiNandMemoryInterface
                0x20018ab8       0x20 ./source/memory/src/spinand_memory.o
                0x20018ab8                g_spiNandMemoryInterface
 .rodata.g_transerSpeedFrequencyUnit
                0x20018ad8       0x10 ./source/drivers/sdmmc/fsl_mmc.o
 .rodata.g_transerSpeedMultiplierFactor
                0x20018ae8       0x40 ./source/drivers/sdmmc/fsl_mmc.o
 .rodata.CSWTCH.41
                0x20018b28       0x10 ./source/drivers/sdmmc/fsl_sd.o
 .rodata.CSWTCH.19
                0x20018b38        0xc ./source/drivers/flexspi_nand/flexspi_nand_flash.o
 .rodata.s_crc32Table
                0x20018b44      0x400 ./source/crc/crc32.o
 .rodata.g_commandHandlerTable
                0x20018f44       0xa8 ./source/bootloader/src/bl_command.o
                0x20018f44                g_commandHandlerTable
 .rodata.g_lpuartBaseAddr
                0x20018fec       0x24 ./source/bootloader/src/lpuart_peripheral_interface.o
 .rodata.g_lpuartByteInterface
                0x20019010        0x8 ./source/bootloader/src/lpuart_peripheral_interface.o
                0x20019010                g_lpuartByteInterface
 .rodata.g_lpuartControlInterface
                0x20019018       0x10 ./source/bootloader/src/lpuart_peripheral_interface.o
                0x20019018                g_lpuartControlInterface
 .rodata.g_usbHidControlInterface
                0x20019028       0x10 ./source/bootloader/src/usb_hid_msc_peripheral_interface.o
                0x20019028                g_usbHidControlInterface
 .rodata.g_usbHidPacketInterface
                0x20019038       0x1c ./source/bootloader/src/usb_hid_msc_peripheral_interface.o
                0x20019038                g_usbHidPacketInterface
 .rodata.enetRefClkFreq.1
                0x20019054       0x10 ./drivers/fsl_clock.o
 .rodata.s_lpuartBases
                0x20019064       0x24 ./drivers/fsl_lpuart.o
 .rodata.g_peripherals
                0x20019088       0x48 ./MIMXRT1052/bl_peripherals_MIMXRT1052.o
                0x20019088                g_peripherals
 .rodata.g_externalMemPropertyInterfaceMap
                0x200190d0       0x40 ./MIMXRT1052/external_memory_property_map_MIMXRT1052.o
                0x200190d0                g_externalMemPropertyInterfaceMap
 .rodata.s_read_ecc_status_lut
                0x20019110       0x10 ./MIMXRT1052/flexspi_nand_config_MIMXRT1052.o
 .rodata.s_read_status_lut
                0x20019120       0x10 ./MIMXRT1052/flexspi_nand_config_MIMXRT1052.o
 .rodata.CSWTCH.13
                0x20019130       0x10 ./MIMXRT1052/hardware_init_MIMXRT1052.o
 .rodata._global_impure_ptr
                0x20019140        0x4 c:/nxp/mcuxpressoide_11.6.1_8255/ide/plugins/com.nxp.mcuxpresso.tools.win32_11.6.1.202207200623/tools/bin/../lib/gcc/arm-none-eabi/10.3.1/../../../../arm-none-eabi/lib/thumb/v7e-m+dp/hard\libc_nano.a(lib_a-impure.o)
                0x20019140                _global_impure_ptr
 .rodata.__sf_fake_stderr
                0x20019144       0x20 c:/nxp/mcuxpressoide_11.6.1_8255/ide/plugins/com.nxp.mcuxpresso.tools.win32_11.6.1.202207200623/tools/bin/../lib/gcc/arm-none-eabi/10.3.1/../../../../arm-none-eabi/lib/thumb/v7e-m+dp/hard\libc_nano.a(lib_a-findfp.o)
                0x20019144                __sf_fake_stderr
 .rodata.__sf_fake_stdin
                0x20019164       0x20 c:/nxp/mcuxpressoide_11.6.1_8255/ide/plugins/com.nxp.mcuxpresso.tools.win32_11.6.1.202207200623/tools/bin/../lib/gcc/arm-none-eabi/10.3.1/../../../../arm-none-eabi/lib/thumb/v7e-m+dp/hard\libc_nano.a(lib_a-findfp.o)
                0x20019164                __sf_fake_stdin
 .rodata.__sf_fake_stdout
                0x20019184       0x20 c:/nxp/mcuxpressoide_11.6.1_8255/ide/plugins/com.nxp.mcuxpresso.tools.win32_11.6.1.202207200623/tools/bin/../lib/gcc/arm-none-eabi/10.3.1/../../../../arm-none-eabi/lib/thumb/v7e-m+dp/hard\libc_nano.a(lib_a-findfp.o)
                0x20019184                __sf_fake_stdout
 .rodata.CSWTCH.56
                0x200191a4        0x8 ./source/memory/src/spinand_memory.o
 .rodata.s_usdhcClock
                0x200191ac        0x6 ./source/drivers/usdhc/bl_usdhc.o
 .rodata.s_usdhcIRQ
                0x200191b2        0x6 ./source/drivers/usdhc/bl_usdhc.o
 .rodata.s_norAcTimingParameterTable
                0x200191b8       0x30 ./source/drivers/semc_nor/semc_nor_flash.o
                0x200191b8                s_norAcTimingParameterTable
 .rodata.CSWTCH.18
                0x200191e8        0x8 ./source/drivers/flexspi_nand/flexspi_nand_flash.o
 .rodata.s_usbIRQs
                0x200191f0        0x6 ./source/bootloader/src/usb_hid_msc_peripheral_interface.o
 .rodata.s_gpioClock
                0x200191f6        0xc ./drivers/fsl_gpio.o
 .rodata.s_lpspiClocks
                0x20019202        0xa ./drivers/fsl_lpspi.o
 .rodata.s_lpuartClock
                0x2001920c       0x12 ./drivers/fsl_lpuart.o
 .rodata.ldr_DoLoadBytes.str1.1
                0x2001921e       0x36 ./source/sbloader/src/sbloader.o
 .rodata.ldr_DoHeader2.str1.1
                0x20019254       0x1c ./source/sbloader/src/sbloader.o
 .rodata.ldr_DoCommand.str1.1
                0x20019270       0x27 ./source/sbloader/src/sbloader.o
 .rodata.__func__.1
                0x20019297       0x12 ./source/sbloader/src/sbloader.o
 .rodata.__func__.3
                0x200192a9       0x11 ./source/sbloader/src/sbloader.o
 .rodata.__func__.4
                0x200192ba       0x10 ./source/sbloader/src/sbloader.o
 .rodata.serial_packet_abort.str1.1
                0x200192ca       0x2c ./source/packet/src/serial_packet.o
 .rodata.serial_packet_send_sync.str1.1
                0x200192f6       0x35 ./source/packet/src/serial_packet.o
 .rodata.serial_packet_write.str1.1
                0x2001932b       0x75 ./source/packet/src/serial_packet.o
 .rodata.serial_send_ping_response.str1.1
                0x200193a0       0x75 ./source/packet/src/serial_packet.o
                                  0xb (size before relaxing)
 .rodata.serial_packet_read.str1.1
                0x200193a0       0x7d ./source/packet/src/serial_packet.o
 .rodata.__func__.0
                0x2001941d       0x1a ./source/packet/src/serial_packet.o
 .rodata.__func__.1
                0x20019437       0x14 ./source/packet/src/serial_packet.o
 .rodata.flexspi_nor_mem_erase.str1.1
                0x2001944b       0x1c ./source/memory/src/flexspi_nor_memory.o
 .rodata.flexspi_nor_mem_write.str1.1
                0x20019467       0x46 ./source/memory/src/flexspi_nor_memory.o
 .rodata.__func__.0
                0x200194ad       0x16 ./source/memory/src/flexspi_nor_memory.o
 .rodata.__func__.1
                0x200194c3       0x16 ./source/memory/src/flexspi_nor_memory.o
 .rodata.find_map_entry.str1.1
                0x200194d9        0x4 ./source/memory/src/memory.o
                                  0xd (size before relaxing)
 .rodata.__func__.0
                0x200194dd       0x18 ./source/memory/src/memory.o
 .rodata.__func__.1
                0x200194f5        0xf ./source/memory/src/memory.o
 .rodata.mmc_mem_read.str1.1
                0x20019504        0xd ./source/memory/src/mmc_memory.o
                                 0x14 (size before relaxing)
 .rodata.__func__.0
                0x20019511        0xe ./source/memory/src/mmc_memory.o
 .rodata.__func__.1
                0x2001951f        0xd ./source/memory/src/mmc_memory.o
 .rodata.sd_mem_read.str1.1
                0x2001952c        0xc ./source/memory/src/sd_memory.o
                                 0x13 (size before relaxing)
 .rodata.__func__.0
                0x20019538        0xd ./source/memory/src/sd_memory.o
 .rodata.__func__.1
                0x20019545        0xc ./source/memory/src/sd_memory.o
 .rodata.semc_nor_mem_fill.str1.1
                0x20019551       0x12 ./source/memory/src/semc_nor_memory.o
                                 0x19 (size before relaxing)
 .rodata.__func__.0
                0x20019563       0x12 ./source/memory/src/semc_nor_memory.o
 .rodata.spinand_memory_write_and_verify.str1.1
                0x20019575       0x11 ./source/memory/src/spinand_memory.o
                                 0x18 (size before relaxing)
 .rodata.__func__.3
                0x20019586       0x20 ./source/memory/src/spinand_memory.o
 .rodata.USDHC_TransferHandleIRQ.str1.1
                0x200195a6       0x49 ./source/drivers/usdhc/bl_usdhc.o
 .rodata.USDHC_GetInstance.str1.1
                0x200195ef       0x23 ./source/drivers/usdhc/bl_usdhc.o
 .rodata.CLOCK_ControlGate.str1.1
                0x20019612       0x71 ./source/drivers/usdhc/bl_usdhc.o
 .rodata.USDHC_SendCommand.str1.1
                0x20019683       0x10 ./source/drivers/usdhc/bl_usdhc.o
 .rodata.USDHC_Init.str1.1
                0x20019693       0xb5 ./source/drivers/usdhc/bl_usdhc.o
                                 0xbc (size before relaxing)
 .rodata.USDHC_GetCapability.str1.1
                0x20019748        0xb ./source/drivers/usdhc/bl_usdhc.o
 .rodata.USDHC_SetSdClock.str1.1
                0x20019753       0x46 ./source/drivers/usdhc/bl_usdhc.o
 .rodata.USDHC_SetADMA1Descriptor.str1.1
                0x20019799       0x29 ./source/drivers/usdhc/bl_usdhc.o
 .rodata.USDHC_SetInternalDmaConfig.str1.1
                0x200197c2        0x9 ./source/drivers/usdhc/bl_usdhc.o
                                 0x13 (size before relaxing)
 .rodata.USDHC_SetAdmaTableConfig.str1.1
                0x200197cb       0x42 ./source/drivers/usdhc/bl_usdhc.o
 .rodata.USDHC_TransferBlocking.str1.1
                0x2001980d       0x42 ./source/drivers/usdhc/bl_usdhc.o
                                  0x9 (size before relaxing)
 .rodata.__func__.10
                0x2001980d       0x19 ./source/drivers/usdhc/bl_usdhc.o
 .rodata.__func__.11
                0x20019826       0x19 ./source/drivers/usdhc/bl_usdhc.o
 .rodata.__func__.13
                0x2001983f       0x11 ./source/drivers/usdhc/bl_usdhc.o
 .rodata.__func__.14
                0x20019850       0x14 ./source/drivers/usdhc/bl_usdhc.o
 .rodata.__func__.15
                0x20019864       0x12 ./source/drivers/usdhc/bl_usdhc.o
 .rodata.__func__.16
                0x20019876       0x12 ./source/drivers/usdhc/bl_usdhc.o
 .rodata.__func__.17
                0x20019888        0xb ./source/drivers/usdhc/bl_usdhc.o
 .rodata.__func__.18
                0x20019893       0x12 ./source/drivers/usdhc/bl_usdhc.o
 .rodata.__func__.6
                0x200198a5       0x16 ./source/drivers/usdhc/bl_usdhc.o
 .rodata.__func__.7
                0x200198bb       0x17 ./source/drivers/usdhc/bl_usdhc.o
 .rodata.__func__.8
                0x200198d2       0x19 ./source/drivers/usdhc/bl_usdhc.o
 .rodata.__func__.9
                0x200198eb       0x1b ./source/drivers/usdhc/bl_usdhc.o
 .rodata.trng_GetInstance.isra.0.str1.1
                0x20019906       0x2d ./source/drivers/trng/bl_trng.o
 .rodata.__func__.1
                0x20019933       0x11 ./source/drivers/trng/bl_trng.o
 .rodata.semc_nor_flash_page_program.str1.1
                0x20019944       0x44 ./source/drivers/semc_nor/semc_nor_flash.o
 .rodata.CSWTCH.24
                0x20019988        0x7 ./source/drivers/semc_nor/semc_nor_flash.o
 .rodata.__func__.0
                0x2001998f       0x2c ./source/drivers/semc_nor/semc_nor_flash.o
 .rodata.semc_nand_write_ecc_data_in_spare_area.str1.1
                0x200199bb       0xa8 ./source/drivers/semc_nand/semc_nand_flash.o
 .rodata.semc_nand_flash_init.str1.1
                0x20019a63      0x13e ./source/drivers/semc_nand/semc_nand_flash.o
 .rodata.semc_nand_flash_page_program.str1.1
                0x20019ba1       0x43 ./source/drivers/semc_nand/semc_nand_flash.o
 .rodata.__func__.0
                0x20019be4       0x27 ./source/drivers/semc_nand/semc_nand_flash.o
 .rodata.__func__.1
                0x20019c0b       0x1d ./source/drivers/semc_nand/semc_nand_flash.o
 .rodata.__func__.2
                0x20019c28       0x31 ./source/drivers/semc_nand/semc_nand_flash.o
 .rodata.s_nandAcTimingParameterTable
                0x20019c59       0x68 ./source/drivers/semc_nand/semc_nand_flash.o
                0x20019c59                s_nandAcTimingParameterTable
 .rodata.s_nandDeviceManufacturerList
                0x20019cc1       0x60 ./source/drivers/semc_nand/semc_nand_flash.o
                0x20019cc1                s_nandDeviceManufacturerList
 .rodata.semc_init.str1.1
                0x20019d21       0x87 ./source/drivers/semc/bl_semc.o
 .rodata.MMC_SendOperationCondition.str1.1
                0x20019da8       0x23 ./source/drivers/sdmmc/fsl_mmc.o
 .rodata.MMC_CheckBlockRange.str1.1
                0x20019dcb        0xb ./source/drivers/sdmmc/fsl_mmc.o
 .rodata.MMC_ReadBlocks.str1.1
                0x20019dd6        0x7 ./source/drivers/sdmmc/fsl_mmc.o
 .rodata.MMC_SetBootConfig.str1.1
                0x20019dd6        0x7 ./source/drivers/sdmmc/fsl_mmc.o
 .rodata.__func__.10
                0x20019dd6       0x10 ./source/drivers/sdmmc/fsl_mmc.o
 .rodata.__func__.11
                0x20019de6       0x15 ./source/drivers/sdmmc/fsl_mmc.o
 .rodata.__func__.13
                0x20019dfb        0x9 ./source/drivers/sdmmc/fsl_mmc.o
 .rodata.__func__.14
                0x20019e04       0x14 ./source/drivers/sdmmc/fsl_mmc.o
 .rodata.__func__.15
                0x20019e18        0xf ./source/drivers/sdmmc/fsl_mmc.o
 .rodata.__func__.16
                0x20019e27       0x14 ./source/drivers/sdmmc/fsl_mmc.o
 .rodata.__func__.17
                0x20019e3b       0x12 ./source/drivers/sdmmc/fsl_mmc.o
 .rodata.__func__.19
                0x20019e4d        0xc ./source/drivers/sdmmc/fsl_mmc.o
 .rodata.__func__.22
                0x20019e59        0xd ./source/drivers/sdmmc/fsl_mmc.o
 .rodata.__func__.25
                0x20019e66       0x16 ./source/drivers/sdmmc/fsl_mmc.o
 .rodata.__func__.28
                0x20019e7c       0x1e ./source/drivers/sdmmc/fsl_mmc.o
 .rodata.__func__.29
                0x20019e9a       0x10 ./source/drivers/sdmmc/fsl_mmc.o
 .rodata.__func__.30
                0x20019eaa       0x18 ./source/drivers/sdmmc/fsl_mmc.o
 .rodata.__func__.33
                0x20019ec2       0x16 ./source/drivers/sdmmc/fsl_mmc.o
 .rodata.__func__.34
                0x20019ed8       0x12 ./source/drivers/sdmmc/fsl_mmc.o
 .rodata.__func__.35
                0x20019eea       0x13 ./source/drivers/sdmmc/fsl_mmc.o
 .rodata.__func__.36
                0x20019efd        0xd ./source/drivers/sdmmc/fsl_mmc.o
 .rodata.__func__.37
                0x20019f0a       0x19 ./source/drivers/sdmmc/fsl_mmc.o
 .rodata.__func__.38
                0x20019f23       0x14 ./source/drivers/sdmmc/fsl_mmc.o
 .rodata.__func__.39
                0x20019f37       0x17 ./source/drivers/sdmmc/fsl_mmc.o
 .rodata.__func__.4
                0x20019f4e       0x12 ./source/drivers/sdmmc/fsl_mmc.o
 .rodata.__func__.40
                0x20019f60       0x14 ./source/drivers/sdmmc/fsl_mmc.o
 .rodata.__func__.41
                0x20019f74       0x15 ./source/drivers/sdmmc/fsl_mmc.o
 .rodata.__func__.45
                0x20019f89       0x11 ./source/drivers/sdmmc/fsl_mmc.o
 .rodata.__func__.47
                0x20019f9a       0x14 ./source/drivers/sdmmc/fsl_mmc.o
 .rodata.__func__.48
                0x20019fae        0xf ./source/drivers/sdmmc/fsl_mmc.o
 .rodata.__func__.49
                0x20019fbd       0x14 ./source/drivers/sdmmc/fsl_mmc.o
 .rodata.__func__.5
                0x20019fd1       0x17 ./source/drivers/sdmmc/fsl_mmc.o
 .rodata.__func__.51
                0x20019fe8        0xc ./source/drivers/sdmmc/fsl_mmc.o
 .rodata.__func__.52
                0x20019ff4       0x17 ./source/drivers/sdmmc/fsl_mmc.o
 .rodata.__func__.54
                0x2001a00b        0xf ./source/drivers/sdmmc/fsl_mmc.o
 .rodata.__func__.56
                0x2001a01a        0xb ./source/drivers/sdmmc/fsl_mmc.o
 .rodata.__func__.6
                0x2001a025       0x14 ./source/drivers/sdmmc/fsl_mmc.o
 .rodata.__func__.8
                0x2001a039       0x10 ./source/drivers/sdmmc/fsl_mmc.o
 .rodata.__func__.9
                0x2001a049        0xa ./source/drivers/sdmmc/fsl_mmc.o
 .rodata.SD_SendRca.str1.1
                0x2001a053        0x9 ./source/drivers/sdmmc/fsl_sd.o
                                  0xe (size before relaxing)
 .rodata.SD_Transfer.str1.1
                0x2001a05c       0x14 ./source/drivers/sdmmc/fsl_sd.o
 .rodata.SD_ReadBlocks.str1.1
                0x2001a05c       0x12 ./source/drivers/sdmmc/fsl_sd.o
 .rodata.__func__.0
                0x2001a05c        0xb ./source/drivers/sdmmc/fsl_sd.o
 .rodata.__func__.10
                0x2001a067       0x10 ./source/drivers/sdmmc/fsl_sd.o
 .rodata.__func__.12
                0x2001a077       0x12 ./source/drivers/sdmmc/fsl_sd.o
 .rodata.__func__.13
                0x2001a089       0x12 ./source/drivers/sdmmc/fsl_sd.o
 .rodata.__func__.15
                0x2001a09b       0x13 ./source/drivers/sdmmc/fsl_sd.o
 .rodata.__func__.17
                0x2001a0ae        0xb ./source/drivers/sdmmc/fsl_sd.o
 .rodata.__func__.18
                0x2001a0b9        0xe ./source/drivers/sdmmc/fsl_sd.o
 .rodata.__func__.20
                0x2001a0c7        0xb ./source/drivers/sdmmc/fsl_sd.o
 .rodata.__func__.21
                0x2001a0d2        0xb ./source/drivers/sdmmc/fsl_sd.o
 .rodata.__func__.23
                0x2001a0dd        0xe ./source/drivers/sdmmc/fsl_sd.o
 .rodata.__func__.24
                0x2001a0eb       0x11 ./source/drivers/sdmmc/fsl_sd.o
 .rodata.__func__.25
                0x2001a0fc       0x16 ./source/drivers/sdmmc/fsl_sd.o
 .rodata.__func__.27
                0x2001a112        0xa ./source/drivers/sdmmc/fsl_sd.o
 .rodata.__func__.3
                0x2001a11c        0xc ./source/drivers/sdmmc/fsl_sd.o
 .rodata.__func__.31
                0x2001a128        0xf ./source/drivers/sdmmc/fsl_sd.o
 .rodata.__func__.32
                0x2001a137        0x9 ./source/drivers/sdmmc/fsl_sd.o
 .rodata.__func__.33
                0x2001a140        0xf ./source/drivers/sdmmc/fsl_sd.o
 .rodata.__func__.34
                0x2001a14f       0x14 ./source/drivers/sdmmc/fsl_sd.o
 .rodata.__func__.35
                0x2001a163       0x11 ./source/drivers/sdmmc/fsl_sd.o
 .rodata.__func__.36
                0x2001a174        0xc ./source/drivers/sdmmc/fsl_sd.o
 .rodata.__func__.37
                0x2001a180       0x15 ./source/drivers/sdmmc/fsl_sd.o
 .rodata.__func__.38
                0x2001a195        0x8 ./source/drivers/sdmmc/fsl_sd.o
 .rodata.__func__.39
                0x2001a19d        0xe ./source/drivers/sdmmc/fsl_sd.o
 .rodata.__func__.40
                0x2001a1ab       0x11 ./source/drivers/sdmmc/fsl_sd.o
 .rodata.__func__.8
                0x2001a1bc        0xf ./source/drivers/sdmmc/fsl_sd.o
 .rodata.SDMMC_SelectCard.str1.1
                0x2001a1cb       0x13 ./source/drivers/sdmmc/fsl_sdmmc_common.o
                                 0x1c (size before relaxing)
 .rodata.__func__.0
                0x2001a1de       0x14 ./source/drivers/sdmmc/fsl_sdmmc_common.o
 .rodata.__func__.2
                0x2001a1f2       0x13 ./source/drivers/sdmmc/fsl_sdmmc_common.o
 .rodata.__func__.4
                0x2001a205        0xd ./source/drivers/sdmmc/fsl_sdmmc_common.o
 .rodata.__func__.6
                0x2001a212       0x1d ./source/drivers/sdmmc/fsl_sdmmc_common.o
 .rodata.__func__.7
                0x2001a22f       0x11 ./source/drivers/sdmmc/fsl_sdmmc_common.o
 .rodata.ocotp_program_once.str1.1
                0x2001a240       0x22 ./source/drivers/ocotp/bl_ocotp.o
 .rodata.ocotp_read_once.str1.1
                0x2001a262        0x4 ./source/drivers/ocotp/bl_ocotp.o
 .rodata.__func__.0
                0x2001a266       0x10 ./source/drivers/ocotp/bl_ocotp.o
 .rodata.__func__.1
                0x2001a276       0x13 ./source/drivers/ocotp/bl_ocotp.o
 .rodata.s_eccByteParityTable
                0x2001a289      0x100 ./source/drivers/nand_ecc/nand_ecc.o
 .rodata.CSWTCH.56
                0x2001a389        0x6 ./source/drivers/flexspi_nor/flexspi_nor_flash.o
 .rodata.crc16_init.str1.1
                0x2001a38f       0x14 ./source/crc/crc16.o
 .rodata.crc16_update.str1.1
                0x2001a3a3        0x4 ./source/crc/crc16.o
 .rodata.crc16_finalize.str1.1
                0x2001a3a3        0x5 ./source/crc/crc16.o
 .rodata.__func__.0
                0x2001a3a8       0x12 ./source/crc/crc16.o
 .rodata.__func__.1
                0x2001a3ba       0x10 ./source/crc/crc16.o
 .rodata.__func__.2
                0x2001a3ca        0xf ./source/crc/crc16.o
 .rodata.__func__.3
                0x2001a3d9        0xd ./source/crc/crc16.o
 .rodata.__func__.4
                0x2001a3e6        0xb ./source/crc/crc16.o
 .rodata.crc32_update.str1.1
                0x2001a3f1        0x8 ./source/crc/crc32.o
                                  0xc (size before relaxing)
 .rodata.__func__.0
                0x2001a3f9        0xd ./source/crc/crc32.o
 .rodata.__func__.3
                0x2001a406       0x14 ./source/bootloader/src/bl_command.o
 .rodata.__func__.4
                0x2001a41a       0x14 ./source/bootloader/src/bl_command.o
 .rodata.str1.1
                0x2001a42e       0x21 ./source/bootloader/src/bl_main.o
 .rodata.get_peripheral_name.str1.1
                0x2001a44f       0x13 ./source/bootloader/src/bl_main.o
 .rodata.main.str1.1
                0x2001a462      0x14f ./source/bootloader/src/bl_main.o
 .rodata.__func__.0
                0x2001a5b1        0xf ./source/bootloader/src/bl_main.o
 .rodata.__func__.4
                0x2001a5c0       0x16 ./source/bootloader/src/bl_main.o
 .rodata.__func__.5
                0x2001a5d6       0x10 ./source/bootloader/src/bl_main.o
 .rodata.usb_hid_packet_abort_data_phase.str1.1
                0x2001a5e6       0x40 ./source/bootloader/src/usb_hid_msc_peripheral_interface.o
 .rodata.usb_hid_packet_write.str1.1
                0x2001a626       0x45 ./source/bootloader/src/usb_hid_msc_peripheral_interface.o
 .rodata.CLOCK_InitExternalClk.str1.1
                0x2001a66b       0x1b ./drivers/fsl_clock.o
 .rodata.CLOCK_GetPllFreq.str1.1
                0x2001a686        0x6 ./drivers/fsl_clock.o
 .rodata.__func__.2
                0x2001a68c       0x11 ./drivers/fsl_clock.o
 .rodata.GPIO_PinWrite.str1.1
                0x2001a69d       0x15 ./drivers/fsl_gpio.o
 .rodata.GPIO_PinInit.str1.1
                0x2001a6b2       0x23 ./drivers/fsl_gpio.o
                                 0x3c (size before relaxing)
 .rodata.__func__.0
                0x2001a6d5        0xe ./drivers/fsl_gpio.o
 .rodata.__func__.1
                0x2001a6e3       0x12 ./drivers/fsl_gpio.o
 .rodata.__func__.2
                0x2001a6f5       0x11 ./drivers/fsl_gpio.o
 .rodata.LPSPI_CombineWriteData.str1.1
                0x2001a706       0x1b ./drivers/fsl_lpspi.o
                                 0x21 (size before relaxing)
 .rodata.LPSPI_SeparateReadData.str1.1
                0x2001a721        0xf ./drivers/fsl_lpspi.o
 .rodata.CLOCK_ControlGate.str1.1
                0x2001a730       0x19 ./drivers/fsl_lpspi.o
 .rodata.LPSPI_GetInstance.str1.1
                0x2001a730       0x24 ./drivers/fsl_lpspi.o
 .rodata.LPSPI_MasterGetDefaultConfig.str1.1
                0x2001a754       0x15 ./drivers/fsl_lpspi.o
 .rodata.LPSPI_MasterSetBaudRate.str1.1
                0x2001a769       0x19 ./drivers/fsl_lpspi.o
 .rodata.LPSPI_CheckTransferArgument.str1.1
                0x2001a782       0x11 ./drivers/fsl_lpspi.o
 .rodata.LPSPI1_DriverIRQHandler.str1.1
                0x2001a793       0x19 ./drivers/fsl_lpspi.o
 .rodata.LPSPI2_DriverIRQHandler.str1.1
                0x2001a7ac       0x19 ./drivers/fsl_lpspi.o
 .rodata.LPSPI3_DriverIRQHandler.str1.1
                0x2001a7c5       0x19 ./drivers/fsl_lpspi.o
 .rodata.LPSPI4_DriverIRQHandler.str1.1
                0x2001a7de       0x19 ./drivers/fsl_lpspi.o
 .rodata.__func__.0
                0x2001a7f7       0x18 ./drivers/fsl_lpspi.o
 .rodata.__func__.1
                0x2001a80f       0x18 ./drivers/fsl_lpspi.o
 .rodata.__func__.17
                0x2001a827       0x17 ./drivers/fsl_lpspi.o
 .rodata.__func__.18
                0x2001a83e       0x17 ./drivers/fsl_lpspi.o
 .rodata.__func__.19
                0x2001a855       0x1d ./drivers/fsl_lpspi.o
 .rodata.__func__.2
                0x2001a872       0x18 ./drivers/fsl_lpspi.o
 .rodata.__func__.20
                0x2001a88a       0x1c ./drivers/fsl_lpspi.o
 .rodata.__func__.22
                0x2001a8a6       0x1b ./drivers/fsl_lpspi.o
 .rodata.__func__.23
                0x2001a8c1       0x18 ./drivers/fsl_lpspi.o
 .rodata.__func__.27
                0x2001a8d9       0x12 ./drivers/fsl_lpspi.o
 .rodata.__func__.28
                0x2001a8eb       0x11 ./drivers/fsl_lpspi.o
 .rodata.__func__.29
                0x2001a8fc       0x12 ./drivers/fsl_lpspi.o
 .rodata.__func__.3
                0x2001a90e       0x18 ./drivers/fsl_lpspi.o
 .rodata.s_baudratePrescaler
                0x2001a926        0x8 ./drivers/fsl_lpspi.o
 .rodata.CLOCK_ControlGate.str1.1
                0x2001a92e       0x19 ./drivers/fsl_lpuart.o
 .rodata.LPUART_ReadNonBlocking.str1.1
                0x2001a92e       0x1a ./drivers/fsl_lpuart.o
 .rodata.LPUART_GetInstance.str1.1
                0x2001a948       0x25 ./drivers/fsl_lpuart.o
 .rodata.LPUART_Init.str1.1
                0x2001a96d       0xb7 ./drivers/fsl_lpuart.o
 .rodata.__func__.14
                0x2001aa24       0x15 ./drivers/fsl_lpuart.o
 .rodata.__func__.18
                0x2001aa39       0x18 ./drivers/fsl_lpuart.o
 .rodata.__func__.19
                0x2001aa51       0x12 ./drivers/fsl_lpuart.o
 .rodata.__func__.20
                0x2001aa63        0xc ./drivers/fsl_lpuart.o
 .rodata.__func__.22
                0x2001aa6f       0x13 ./drivers/fsl_lpuart.o
 .rodata.CSWTCH.20
                0x2001aa82        0x7 ./MIMXRT1052/bl_clock_config_MIMXRT1052.o
 .rodata.CSWTCH.21
                0x2001aa89        0x7 ./MIMXRT1052/bl_clock_config_MIMXRT1052.o
 .rodata.CSWTCH.12
                0x2001aa90        0x4 ./MIMXRT1052/hardware_init_MIMXRT1052.o
 .rodata.__assert_func.str1.1
                0x2001aa94       0x3c c:/nxp/mcuxpressoide_11.6.1_8255/ide/plugins/com.nxp.mcuxpresso.tools.win32_11.6.1.202207200623/tools/bin/../lib/gcc/arm-none-eabi/10.3.1/../../../../arm-none-eabi/lib/thumb/v7e-m+dp/hard\libc_nano.a(lib_a-assert.o)
                                 0x3d (size before relaxing)
 .rodata._vfprintf_r.str1.1
                0x2001aad0       0x11 c:/nxp/mcuxpressoide_11.6.1_8255/ide/plugins/com.nxp.mcuxpresso.tools.win32_11.6.1.202207200623/tools/bin/../lib/gcc/arm-none-eabi/10.3.1/../../../../arm-none-eabi/lib/thumb/v7e-m+dp/hard\libc_nano.a(lib_a-nano-vfprintf.o)
 .rodata._printf_i.str1.1
                0x2001aae1       0x22 c:/nxp/mcuxpressoide_11.6.1_8255/ide/plugins/com.nxp.mcuxpresso.tools.win32_11.6.1.202207200623/tools/bin/../lib/gcc/arm-none-eabi/10.3.1/../../../../arm-none-eabi/lib/thumb/v7e-m+dp/hard\libc_nano.a(lib_a-nano-vfprintf_i.o)
                0x2001ab04                . = ALIGN (0x4)
 *fill*         0x2001ab03        0x1 

.glue_7         0x2001ab04        0x0
 .glue_7        0x2001ab04        0x0 linker stubs

.glue_7t        0x2001ab04        0x0
 .glue_7t       0x2001ab04        0x0 linker stubs

.vfp11_veneer   0x2001ab04        0x0
 .vfp11_veneer  0x2001ab04        0x0 linker stubs

.v4_bx          0x2001ab04        0x0
 .v4_bx         0x2001ab04        0x0 linker stubs

.iplt           0x2001ab04        0x0
 .iplt          0x2001ab04        0x0 ./usb/device/source/ehci/usb_device_ehci.o

.ARM.extab
 *(SORT_BY_ALIGNMENT(.ARM.extab*) SORT_BY_ALIGNMENT(.gnu.linkonce.armextab.*))

.ARM            0x2001ab04        0x8
                0x2001ab04                __exidx_start = .
 *(SORT_BY_ALIGNMENT(.ARM.exidx*))
 .ARM.exidx     0x2001ab04        0x8 c:/nxp/mcuxpressoide_11.6.1_8255/ide/plugins/com.nxp.mcuxpresso.tools.win32_11.6.1.202207200623/tools/bin/../lib/gcc/arm-none-eabi/10.3.1/thumb/v7e-m+dp/hard\libgcc.a(_udivmoddi4.o)
                0x2001ab0c                __exidx_end = .
                0x2001ab0c                __etext = .
                0x2001ab0c                __DATA_ROM = .

.rel.dyn        0x2001ab0c        0x0
 .rel.iplt      0x2001ab0c        0x0 ./usb/device/source/ehci/usb_device_ehci.o

.data           0x20208000      0x824 load address 0x2001ab0c
                0x20208000                . = ALIGN (0x4)
                0x20208000                __DATA_RAM = .
                0x20208000                __data_start__ = .
 *(SORT_BY_ALIGNMENT(.data))
 *(SORT_BY_ALIGNMENT(.data*))
 .data.g_composite_device
                0x20208000        0xc ./source/usb/bm_composite/composite.o
                0x20208000                g_composite_device
 .data.g_composite_device_config_list
                0x2020800c        0xc ./source/usb/bm_composite/composite.o
                0x2020800c                g_composite_device_config_list
 .data.g_hid_generic_class
                0x20208018        0x8 ./source/usb/bm_composite/usb_descriptor.o
                0x20208018                g_hid_generic_class
 .data.g_hid_generic_interface
                0x20208020       0x10 ./source/usb/bm_composite/usb_descriptor.o
                0x20208020                g_hid_generic_interface
 .data.g_hid_generic_interface_list
                0x20208030        0x8 ./source/usb/bm_composite/usb_descriptor.o
                0x20208030                g_hid_generic_interface_list
 .data.g_hid_generic_interfaces
                0x20208038        0xc ./source/usb/bm_composite/usb_descriptor.o
                0x20208038                g_hid_generic_interfaces
 .data.g_language_list
                0x20208044       0x10 ./source/usb/bm_composite/usb_descriptor.o
                0x20208044                g_language_list
 .data.g_string_desc_size
                0x20208054       0x14 ./source/usb/bm_composite/usb_descriptor.o
                0x20208054                g_string_desc_size
 .data.g_string_descriptors
                0x20208068       0x14 ./source/usb/bm_composite/usb_descriptor.o
                0x20208068                g_string_descriptors
 .data.g_usb_lang
                0x2020807c        0xc ./source/usb/bm_composite/usb_descriptor.o
                0x2020807c                g_usb_lang
 .data.s_imxrtSystemId.0
                0x20208088        0x4 ./source/property/src/property_imx.o
 .data.s_spiNorEepromContext
                0x2020808c      0x444 ./source/memory/src/spi_nor_eeprom_memory.o
 .data.spi_nor_eeprom_memorySizeOption
                0x202084d0       0x40 ./source/memory/src/spi_nor_eeprom_memory.o
                0x202084d0                spi_nor_eeprom_memorySizeOption
 .data.spi_nor_eeprom_pageSizeOption
                0x20208510       0x18 ./source/memory/src/spi_nor_eeprom_memory.o
                0x20208510                spi_nor_eeprom_pageSizeOption
 .data.spi_nor_eeprom_sectorSizeOption
                0x20208528       0x1c ./source/memory/src/spi_nor_eeprom_memory.o
                0x20208528                spi_nor_eeprom_sectorSizeOption
 .data.g_commandInterface
                0x20208544       0x10 ./source/bootloader/src/bl_command.o
                0x20208544                g_commandInterface
 .data.g_bootloaderContext
                0x20208554       0x20 ./source/bootloader/src/bl_context.o
                0x20208554                g_bootloaderContext
 .data.SystemCoreClock
                0x20208574        0x4 ./device/system_MIMXRT1052.o
                0x20208574                SystemCoreClock
 .data.g_externalMemoryMap
                0x20208578       0x78 ./MIMXRT1052/memory_map_MIMXRT1052.o
                0x20208578                g_externalMemoryMap
 .data.g_memoryMap
                0x202085f0       0x78 ./MIMXRT1052/memory_map_MIMXRT1052.o
                0x202085f0                g_memoryMap
 .data._impure_ptr
                0x20208668        0x4 c:/nxp/mcuxpressoide_11.6.1_8255/ide/plugins/com.nxp.mcuxpresso.tools.win32_11.6.1.202207200623/tools/bin/../lib/gcc/arm-none-eabi/10.3.1/../../../../arm-none-eabi/lib/thumb/v7e-m+dp/hard\libc_nano.a(lib_a-impure.o)
                0x20208668                _impure_ptr
 .data.impure_data
                0x2020866c       0x60 c:/nxp/mcuxpressoide_11.6.1_8255/ide/plugins/com.nxp.mcuxpresso.tools.win32_11.6.1.202207200623/tools/bin/../lib/gcc/arm-none-eabi/10.3.1/../../../../arm-none-eabi/lib/thumb/v7e-m+dp/hard\libc_nano.a(lib_a-impure.o)
 .data.g_hid_generic_endpoints
                0x202086cc        0xc ./source/usb/bm_composite/usb_descriptor.o
                0x202086cc                g_hid_generic_endpoints
 .data.g_msc_disk_endpoints
                0x202086d8        0xc ./source/usb/bm_composite/usb_descriptor.o
                0x202086d8                g_msc_disk_endpoints
 .data.g_config_descriptor
                0x202086e4       0x29 ./source/usb/bm_composite/usb_descriptor.o
                0x202086e4                g_config_descriptor
 .data.g_device_descriptor
                0x2020870d       0x12 ./source/usb/bm_composite/usb_descriptor.o
                0x2020870d                g_device_descriptor
 .data.g_hid_generic_report_descriptor
                0x2020871f       0x4c ./source/usb/bm_composite/usb_descriptor.o
                0x2020871f                g_hid_generic_report_descriptor
 .data.g_usb_str_0
                0x2020876b        0x4 ./source/usb/bm_composite/usb_descriptor.o
                0x2020876b                g_usb_str_0
 .data.g_usb_str_1
                0x2020876f       0x3a ./source/usb/bm_composite/usb_descriptor.o
                0x2020876f                g_usb_str_1
 .data.g_usb_str_2
                0x202087a9       0x2a ./source/usb/bm_composite/usb_descriptor.o
                0x202087a9                g_usb_str_2
 .data.g_usb_str_3
                0x202087d3       0x2e ./source/usb/bm_composite/usb_descriptor.o
                0x202087d3                g_usb_str_3
 .data.g_usb_str_n
                0x20208801       0x22 ./source/usb/bm_composite/usb_descriptor.o
                0x20208801                g_usb_str_n
                0x20208824                . = ALIGN (0x4)
 *fill*         0x20208823        0x1 
                0x20208824                __data_end__ = .
                0x2001b330                __DATA_END = (__DATA_ROM + (__data_end__ - __data_start__))

.igot.plt       0x20208824        0x0 load address 0x2001b330
 .igot.plt      0x20208824        0x0 ./usb/device/source/ehci/usb_device_ehci.o

.bss            0x20209000     0xbb40 load address 0x2001c000
                0x20209000                . = ALIGN (0x4)
                0x20209000                __START_BSS = .
                0x20209000                __bss_start__ = .
 *(SORT_BY_ALIGNMENT(.bss))
 *(SORT_BY_ALIGNMENT(.bss*))
 .bss.qh_buffer
                0x20209000     0x1000 ./usb/device/source/ehci/usb_device_ehci.o
 .bss.s_UsbDeviceEhciDtd
                0x2020a000      0x400 ./usb/device/source/ehci/usb_device_ehci.o
 .bss.s_UsbDevice
                0x2020a400      0x1b0 ./usb/device/source/usb_device_dci.o
 .bss.s_firstByteTotalTicks
                0x2020a5b0        0x8 ./source/autobaud/autobaud_irq.o
 .bss.s_lastToggleTicks
                0x2020a5b8        0x8 ./source/autobaud/autobaud_irq.o
 .bss.s_secondByteTotalTicks
                0x2020a5c0        0x8 ./source/autobaud/autobaud_irq.o
 .bss.s_ticksAtFirstFallingEdge
                0x2020a5c8        0x8 ./source/autobaud/autobaud_irq.o
 .bss.s_ticksBetweenFailure
                0x2020a5d0        0x8 ./source/autobaud/autobaud_irq.o
 .bss.g_UsbDeviceEhciState
                0x2020a5d8      0x138 ./usb/device/source/ehci/usb_device_ehci.o
 .bss.s_UsbDeviceHidHandle
                0x2020a710       0x28 ./usb/device/class/hid/usb_device_hid.o
 .bss.s_UsbDeviceCommonClassStruct
                0x2020a738       0x20 ./usb/device/class/usb_device_class.o
 .bss.s_UsbDeviceSetupBuffer
                0x2020a758       0x10 ./usb/device/class/usb_device_class.o
 .bss.osaCurrentSr
                0x2020a768        0x4 ./source/utilities/src/fsl_rtos_abstraction.o
 .bss.g_device_composite
                0x2020a76c        0x4 ./source/usb/bm_composite/hid_bootloader.o
 .bss.g_language_ptr
                0x2020a770        0x4 ./source/usb/bm_composite/usb_descriptor.o
                0x2020a770                g_language_ptr
 .bss.s_loaderBuf
                0x2020a774       0x14 ./source/sbloader/src/sbloader.o
 .bss.s_loaderContext
                0x2020a788       0x70 ./source/sbloader/src/sbloader.o
 .bss.g_propertyStore
                0x2020a7f8       0xd0 ./source/property/src/property_imx.o
                0x2020a7f8                g_propertyStore
 .bss.s_propertyReturnValue
                0x2020a8c8        0x4 ./source/property/src/property_imx.o
 .bss.g_serialContext
                0x2020a8cc      0x454 ./source/packet/src/serial_packet.o
 .bss.s_flexspiNorConfigBlock
                0x2020ad20      0x200 ./source/memory/src/flexspi_nor_memory.o
 .bss.s_flexspiNorContext
                0x2020af20      0x418 ./source/memory/src/flexspi_nor_memory.o
 .bss.s_finalize
                0x2020b338        0x4 ./source/memory/src/memory.o
 .bss.s_flush   0x2020b33c        0x4 ./source/memory/src/memory.o
 .bss.g_mmcContext
                0x2020b340      0x324 ./source/memory/src/mmc_memory.o
                0x2020b340                g_mmcContext
 .bss.s_mmc_mem_readBuffer
                0x2020b664      0x200 ./source/memory/src/mmc_memory.o
 .bss.s_mmc_mem_writeBuffer
                0x2020b864      0x200 ./source/memory/src/mmc_memory.o
 .bss.g_sdContext
                0x2020ba64       0xf0 ./source/memory/src/sd_memory.o
                0x2020ba64                g_sdContext
 .bss.s_sd_mem_readBuffer
                0x2020bb54      0x200 ./source/memory/src/sd_memory.o
 .bss.s_sd_mem_writeBuffer
                0x2020bd54      0x200 ./source/memory/src/sd_memory.o
 .bss.s_semcNandContext
                0x2020bf54     0x4020 ./source/memory/src/semc_nand_memory.o
 .bss.s_semcNandDbbt
                0x2020ff74      0x420 ./source/memory/src/semc_nand_memory.o
 .bss.s_semcNandFcb
                0x20210394      0x400 ./source/memory/src/semc_nand_memory.o
 .bss.s_semcNorContext
                0x20210794      0x314 ./source/memory/src/semc_nor_memory.o
 .bss.expectedNextActualAddr.0
                0x20210aa8        0x4 ./source/memory/src/spinand_memory.o
 .bss.s_spinandContext
                0x20210aac     0x2030 ./source/memory/src/spinand_memory.o
 .bss.s_spinandDbbt
                0x20212adc      0x420 ./source/memory/src/spinand_memory.o
 .bss.s_spinandFcb
                0x20212efc      0x400 ./source/memory/src/spinand_memory.o
 .bss.s_usdhcHandle
                0x202132fc        0xc ./source/drivers/usdhc/bl_usdhc.o
 .bss.s_usdhcIsr
                0x20213308        0x4 ./source/drivers/usdhc/bl_usdhc.o
 .bss.s_serialNorEepromContext
                0x2021330c       0x20 ./source/drivers/serial_nor_eeprom/serial_nor_eeprom.o
 .bss.s_norIpgCmdSeqCycleInfo
                0x2021332c       0x30 ./source/drivers/semc_nor/semc_nor_flash.o
 .bss.s_norOperationInfo
                0x2021335c        0xc ./source/drivers/semc_nor/semc_nor_flash.o
 .bss.s_nandCommEccParityData
                0x20213368       0x80 ./source/drivers/semc_nand/semc_nand_flash.o
 .bss.s_nandOnfiParameterConfig
                0x202133e8      0x100 ./source/drivers/semc_nand/semc_nand_flash.o
 .bss.s_nandOperationInfo
                0x202134e8       0x20 ./source/drivers/semc_nand/semc_nand_flash.o
 .bss.g_sdmmc   0x20213508      0x100 ./source/drivers/sdmmc/fsl_sdmmc_common.o
                0x20213508                g_sdmmc
 .bss.s_ocotpTiming
                0x20213608        0xc ./source/drivers/ocotp/bl_ocotp.o
 .bss.s_tickPerMicrosecondMul8
                0x20213614        0x4 ./source/drivers/microseconds/microseconds_pit.o
                0x20213614                s_tickPerMicrosecondMul8
 .bss.s_addr.2  0x20213618        0x4 ./source/bootloader/src/bl_command.o
 .bss.s_callFunction.1
                0x2021361c        0x4 ./source/bootloader/src/bl_command.o
 .bss.s_argument.0
                0x20213620        0x4 ./source/bootloader/src/bl_command.o
 .bss.g_commandData
                0x20213624       0x34 ./source/bootloader/src/bl_command.o
                0x20213624                g_commandData
 .bss.key_data  0x20213658       0x10 ./source/bootloader/src/bl_command.o
 .bss.s_dataProducerPacket
                0x20213668      0x3f4 ./source/bootloader/src/bl_command.o
 .bss.s_stack_frame
                0x20213a5c        0x4 ./source/bootloader/src/bl_exception_handler.o
                0x20213a5c                s_stack_frame
 .bss.s_keyblob_context
                0x20213a60      0x22c ./source/bootloader/src/bl_keyblob.o
 .bss.s_img_gen_ctx
                0x20213c8c      0x614 ./source/bootloader/src/bl_nor_encrypt_bee.o
 .bss.s_lpuart_byte_receive_callback
                0x202142a0        0x4 ./source/bootloader/src/lpuart_peripheral_interface.o
 .bss.g_device_composite
                0x202142a4      0x424 ./source/bootloader/src/usb_hid_msc_peripheral_interface.o
 .bss.s_instanceMeasured
                0x202146c8        0x4 ./source/autobaud/autobaud_irq.o
 .bss.s_intervalFallingEdgesFirstByte
                0x202146cc        0xc ./source/autobaud/autobaud_irq.o
 .bss.s_intervalFallingEdgesSecondByte
                0x202146d8        0x8 ./source/autobaud/autobaud_irq.o
 .bss.s_ticksFallingEdges
                0x202146e0       0x1c ./source/autobaud/autobaud_irq.o
 .bss.s_transitionCount
                0x202146fc        0x4 ./source/autobaud/autobaud_irq.o
 .bss.g_xtalFreq
                0x20214700        0x4 ./drivers/fsl_clock.o
                0x20214700                g_xtalFreq
 .bss.s_lpspiHandle
                0x20214704       0x14 ./drivers/fsl_lpspi.o
 .bss.s_lpspiMasterIsr
                0x20214718        0x4 ./drivers/fsl_lpspi.o
 .bss.s_lpspiSlaveIsr
                0x2021471c        0x4 ./drivers/fsl_lpspi.o
 .bss.s_lpuartHandle
                0x20214720       0x24 ./drivers/fsl_lpuart.o
                0x20214720                s_lpuartHandle
 .bss.s_lpuartIsr
                0x20214744        0x4 ./drivers/fsl_lpuart.o
                0x20214744                s_lpuartIsr
 .bss.s_pin_irq_func
                0x20214748        0x8 ./MIMXRT1052/pinmux_utility_imxrt_series.o
 .bss.__malloc_free_list
                0x20214750        0x4 c:/nxp/mcuxpressoide_11.6.1_8255/ide/plugins/com.nxp.mcuxpresso.tools.win32_11.6.1.202207200623/tools/bin/../lib/gcc/arm-none-eabi/10.3.1/../../../../arm-none-eabi/lib/thumb/v7e-m+dp/hard\libc_nano.a(lib_a-nano-mallocr.o)
                0x20214750                __malloc_free_list
 .bss.__malloc_sbrk_start
                0x20214754        0x4 c:/nxp/mcuxpressoide_11.6.1_8255/ide/plugins/com.nxp.mcuxpresso.tools.win32_11.6.1.202207200623/tools/bin/../lib/gcc/arm-none-eabi/10.3.1/../../../../arm-none-eabi/lib/thumb/v7e-m+dp/hard\libc_nano.a(lib_a-nano-mallocr.o)
                0x20214754                __malloc_sbrk_start
 .bss.errno     0x20214758        0x4 c:/nxp/mcuxpressoide_11.6.1_8255/ide/plugins/com.nxp.mcuxpresso.tools.win32_11.6.1.202207200623/tools/bin/../lib/gcc/arm-none-eabi/10.3.1/../../../../arm-none-eabi/lib/thumb/v7e-m+dp/hard\libc_nano.a(lib_a-reent.o)
                0x20214758                errno
 .bss.__end_of_heap
                0x2021475c        0x4 c:/nxp/mcuxpressoide_11.6.1_8255/ide/plugins/com.nxp.mcuxpresso.tools.win32_11.6.1.202207200623/tools/bin/../lib/gcc/arm-none-eabi/10.3.1/../../../../arm-none-eabi/lib/thumb/v7e-m+dp/hard\libcr_newlib_none.a(_cr_sbrk.o)
                0x2021475c                __end_of_heap
 .bss.s_norCfiParameterConfig
                0x20214760       0x80 ./source/drivers/semc_nor/semc_nor_flash.o
 .bss.g_UsbDeviceEhciStateStatus
                0x202147e0        0x2 ./usb/device/source/ehci/usb_device_ehci.o
 .bss.buffer.0  0x202147e2      0x100 ./source/utilities/src/debug_util.o
 .bss.s_nandOnfiIdConfig
                0x202148e2        0x2 ./source/drivers/semc_nand/semc_nand_flash.o
 .bss.s_nandReadbackBlockBuffer
                0x202148e4      0x200 ./source/drivers/semc_nand/semc_nand_flash.o
 .bss.s_ocotpIntialized
                0x20214ae4        0x1 ./source/drivers/ocotp/bl_ocotp.o
 .bss.key_blob  0x20214ae5       0x48 ./source/bootloader/src/bl_command.o
 .bss.g_lpuartInitStatus
                0x20214b2d        0x8 ./source/bootloader/src/lpuart_peripheral_interface.o
 .bss.s_dHidMscActivity
                0x20214b35        0x2 ./source/bootloader/src/usb_hid_msc_peripheral_interface.o
 .bss.g_lpspiDummyData
                0x20214b37        0x5 ./drivers/fsl_lpspi.o
                0x20214b37                g_lpspiDummyData
 .bss.__lock___malloc_recursive_mutex
                0x20214b3c        0x1 c:/nxp/mcuxpressoide_11.6.1_8255/ide/plugins/com.nxp.mcuxpresso.tools.win32_11.6.1.202207200623/tools/bin/../lib/gcc/arm-none-eabi/10.3.1/../../../../arm-none-eabi/lib/thumb/v7e-m+dp/hard\libc_nano.a(lib_a-lock.o)
                0x20214b3c                __lock___malloc_recursive_mutex
 .bss.__lock___sfp_recursive_mutex
                0x20214b3d        0x1 c:/nxp/mcuxpressoide_11.6.1_8255/ide/plugins/com.nxp.mcuxpresso.tools.win32_11.6.1.202207200623/tools/bin/../lib/gcc/arm-none-eabi/10.3.1/../../../../arm-none-eabi/lib/thumb/v7e-m+dp/hard\libc_nano.a(lib_a-lock.o)
                0x20214b3d                __lock___sfp_recursive_mutex
 .bss.__lock___sinit_recursive_mutex
                0x20214b3e        0x1 c:/nxp/mcuxpressoide_11.6.1_8255/ide/plugins/com.nxp.mcuxpresso.tools.win32_11.6.1.202207200623/tools/bin/../lib/gcc/arm-none-eabi/10.3.1/../../../../arm-none-eabi/lib/thumb/v7e-m+dp/hard\libc_nano.a(lib_a-lock.o)
                0x20214b3e                __lock___sinit_recursive_mutex
 *(SORT_BY_ALIGNMENT(COMMON))
                0x20214b40                . = ALIGN (0x4)
 *fill*         0x20214b3f        0x1 
                0x20214b40                __bss_end__ = .
                0x20214b40                __END_BSS = .

NonCacheable    0x20214b40       0x24 load address 0x20027b40
 NonCacheable   0x20214b40        0x4 ./source/drivers/usdhc/bl_usdhc.o
 NonCacheable   0x20214b44       0x20 ./source/drivers/sdmmc/fsl_sdmmc_host.o
                0x20214b44                g_usdhcAdma2Table

m_usb_bdt       0x20214b64       0x9c load address 0x20027b64
                0x20214c00                . = ALIGN (0x200)
 *fill*         0x20214b64       0x9c 
                0x20214c00                __START_USBGLOBAL = .
 *(SORT_BY_ALIGNMENT(m_usb_bdt))
 *(SORT_BY_ALIGNMENT(m_usb_bdt))

m_usb_global    0x20214c00        0x0
 *(SORT_BY_ALIGNMENT(m_usb_global))
 *(SORT_BY_ALIGNMENT(m_usb_global))
                0x20214c00                __END_USBGLOBAL = .

.heap           0x20214c00        0x0
                0x20214c00                . = ALIGN (0x8)
                0x20214c00                __end__ = .
                [!provide]                PROVIDE (end = .)
                0x20214c00                __HeapBase = .
                0x20214c00                _pvHeapStart = .
                0x20214c00                . = (. + HEAP_SIZE)
                0x20214c00                __HeapLimit = .

.stack          0x20214c00     0x2000 load address 0x20027c00
                0x20214c00                . = ALIGN (0x8)
                0x20214c00                __StackLimit = .
                0x20216c00                . = (. + STACK_SIZE)
 *fill*         0x20214c00     0x2000 
                0x20216c00                __StackTop = .
                0x20216c00                __STACK_TOP = .
                [!provide]                PROVIDE (__stack = __StackTop)

.ARM.attributes
                0x00000000       0x30
 *(SORT_BY_ALIGNMENT(.ARM.attributes))
 .ARM.attributes
                0x00000000       0x32 ./usb/device/source/ehci/usb_device_ehci.o
 .ARM.attributes
                0x00000032       0x32 ./usb/device/source/usb_device_ch9.o
 .ARM.attributes
                0x00000064       0x32 ./usb/device/source/usb_device_dci.o
 .ARM.attributes
                0x00000096       0x32 ./usb/device/class/hid/usb_device_hid.o
 .ARM.attributes
                0x000000c8       0x32 ./usb/device/class/usb_device_class.o
 .ARM.attributes
                0x000000fa       0x1d ./startup/crt0_gcc.o
 .ARM.attributes
                0x00000117       0x32 ./startup/startup.o
 .ARM.attributes
                0x00000149       0x1d ./startup/startup_MIMXRT1052.o
 .ARM.attributes
                0x00000166       0x32 ./source/utilities/src/debug_util.o
 .ARM.attributes
                0x00000198       0x32 ./source/utilities/src/fsl_rtos_abstraction.o
 .ARM.attributes
                0x000001ca       0x32 ./source/usb/bm_composite/composite.o
 .ARM.attributes
                0x000001fc       0x32 ./source/usb/bm_composite/hid_bootloader.o
 .ARM.attributes
                0x0000022e       0x32 ./source/usb/bm_composite/usb_descriptor.o
 .ARM.attributes
                0x00000260       0x32 ./source/sbloader/src/sbloader.o
 .ARM.attributes
                0x00000292       0x32 ./source/property/src/property_imx.o
 .ARM.attributes
                0x000002c4       0x32 ./source/packet/src/serial_packet.o
 .ARM.attributes
                0x000002f6       0x32 ./source/memory/src/flexspi_nor_memory.o
 .ARM.attributes
                0x00000328       0x32 ./source/memory/src/memory.o
 .ARM.attributes
                0x0000035a       0x32 ./source/memory/src/mmc_memory.o
 .ARM.attributes
                0x0000038c       0x32 ./source/memory/src/normal_memory.o
 .ARM.attributes
                0x000003be       0x1d ./source/memory/src/pattern_fill_gcc.o
 .ARM.attributes
                0x000003db       0x32 ./source/memory/src/sd_memory.o
 .ARM.attributes
                0x0000040d       0x32 ./source/memory/src/semc_nand_memory.o
 .ARM.attributes
                0x0000043f       0x32 ./source/memory/src/semc_nor_memory.o
 .ARM.attributes
                0x00000471       0x32 ./source/memory/src/spi_nor_eeprom_memory.o
 .ARM.attributes
                0x000004a3       0x32 ./source/memory/src/spinand_memory.o
 .ARM.attributes
                0x000004d5       0x32 ./source/drivers/usdhc/bl_usdhc.o
 .ARM.attributes
                0x00000507       0x32 ./source/drivers/trng/bl_trng.o
 .ARM.attributes
                0x00000539       0x32 ./source/drivers/serial_nor_eeprom/serial_nor_eeprom.o
 .ARM.attributes
                0x0000056b       0x32 ./source/drivers/semc_nor/semc_nor_flash.o
 .ARM.attributes
                0x0000059d       0x32 ./source/drivers/semc_nand/semc_nand_flash.o
 .ARM.attributes
                0x000005cf       0x32 ./source/drivers/semc/bl_semc.o
 .ARM.attributes
                0x00000601       0x32 ./source/drivers/sdmmc/fsl_mmc.o
 .ARM.attributes
                0x00000633       0x32 ./source/drivers/sdmmc/fsl_sd.o
 .ARM.attributes
                0x00000665       0x32 ./source/drivers/sdmmc/fsl_sdmmc_common.o
 .ARM.attributes
                0x00000697       0x32 ./source/drivers/sdmmc/fsl_sdmmc_host.o
 .ARM.attributes
                0x000006c9       0x32 ./source/drivers/ocotp/bl_ocotp.o
 .ARM.attributes
                0x000006fb       0x32 ./source/drivers/nand_ecc/nand_ecc.o
 .ARM.attributes
                0x0000072d       0x32 ./source/drivers/microseconds/microseconds_pit.o
 .ARM.attributes
                0x0000075f       0x32 ./source/drivers/flexspi_nor/flexspi_nor_flash.o
 .ARM.attributes
                0x00000791       0x32 ./source/drivers/flexspi_nand/flexspi_nand_flash.o
 .ARM.attributes
                0x000007c3       0x32 ./source/drivers/flexspi/bl_flexspi.o
 .ARM.attributes
                0x000007f5       0x32 ./source/drivers/dcp/bl_dcp.o
 .ARM.attributes
                0x00000827       0x32 ./source/crc/crc16.o
 .ARM.attributes
                0x00000859       0x32 ./source/crc/crc32.o
 .ARM.attributes
                0x0000088b       0x32 ./source/bootloader/src/bl_command.o
 .ARM.attributes
                0x000008bd       0x32 ./source/bootloader/src/bl_context.o
 .ARM.attributes
                0x000008ef       0x32 ./source/bootloader/src/bl_exception_handler.o
 .ARM.attributes
                0x00000921       0x32 ./source/bootloader/src/bl_keyblob.o
 .ARM.attributes
                0x00000953       0x32 ./source/bootloader/src/bl_keyblob_dcp.o
 .ARM.attributes
                0x00000985       0x32 ./source/bootloader/src/bl_main.o
 .ARM.attributes
                0x000009b7       0x32 ./source/bootloader/src/bl_nor_encrypt_bee.o
 .ARM.attributes
                0x000009e9       0x32 ./source/bootloader/src/bl_shutdown_cleanup.o
 .ARM.attributes
                0x00000a1b       0x32 ./source/bootloader/src/lpuart_peripheral_interface.o
 .ARM.attributes
                0x00000a4d       0x32 ./source/bootloader/src/usb_hid_msc_peripheral_interface.o
 .ARM.attributes
                0x00000a7f       0x32 ./source/autobaud/autobaud_irq.o
 .ARM.attributes
                0x00000ab1       0x32 ./drivers/fsl_clock.o
 .ARM.attributes
                0x00000ae3       0x32 ./drivers/fsl_gpio.o
 .ARM.attributes
                0x00000b15       0x32 ./drivers/fsl_lpspi.o
 .ARM.attributes
                0x00000b47       0x32 ./drivers/fsl_lpuart.o
 .ARM.attributes
                0x00000b79       0x32 ./device/system_MIMXRT1052.o
 .ARM.attributes
                0x00000bab       0x32 ./component/osa/fsl_os_abstraction_bm.o
 .ARM.attributes
                0x00000bdd       0x32 ./board/pin_mux.o
 .ARM.attributes
                0x00000c0f       0x32 ./MIMXRT1052/bl_clock_config_MIMXRT1052.o
 .ARM.attributes
                0x00000c41       0x32 ./MIMXRT1052/bl_lpuart_irq_config_MIMXRT1052.o
 .ARM.attributes
                0x00000c73       0x32 ./MIMXRT1052/bl_peripherals_MIMXRT1052.o
 .ARM.attributes
                0x00000ca5       0x32 ./MIMXRT1052/external_memory_property_map_MIMXRT1052.o
 .ARM.attributes
                0x00000cd7       0x32 ./MIMXRT1052/flexspi_nand_config_MIMXRT1052.o
 .ARM.attributes
                0x00000d09       0x32 ./MIMXRT1052/hardware_init_MIMXRT1052.o
 .ARM.attributes
                0x00000d3b       0x32 ./MIMXRT1052/memory_map_MIMXRT1052.o
 .ARM.attributes
                0x00000d6d       0x32 ./MIMXRT1052/pinmux_utility_imxrt_series.o
 .ARM.attributes
                0x00000d9f       0x32 ./MIMXRT1052/sdmmc_config_MIMXRT1052.o
 .ARM.attributes
                0x00000dd1       0x32 ./MIMXRT1052/semc_nand_config_MIMXRT1052.o
 .ARM.attributes
                0x00000e03       0x32 ./MIMXRT1052/semc_nor_config_MIMXRT1052.o
 .ARM.attributes
                0x00000e35       0x1e c:/nxp/mcuxpressoide_11.6.1_8255/ide/plugins/com.nxp.mcuxpresso.tools.win32_11.6.1.202207200623/tools/bin/../lib/gcc/arm-none-eabi/10.3.1/thumb/v7e-m+dp/hard\libgcc.a(_aeabi_uldivmod.o)
 .ARM.attributes
                0x00000e53       0x32 c:/nxp/mcuxpressoide_11.6.1_8255/ide/plugins/com.nxp.mcuxpresso.tools.win32_11.6.1.202207200623/tools/bin/../lib/gcc/arm-none-eabi/10.3.1/thumb/v7e-m+dp/hard\libgcc.a(_udivmoddi4.o)
 .ARM.attributes
                0x00000e85       0x1e c:/nxp/mcuxpressoide_11.6.1_8255/ide/plugins/com.nxp.mcuxpresso.tools.win32_11.6.1.202207200623/tools/bin/../lib/gcc/arm-none-eabi/10.3.1/thumb/v7e-m+dp/hard\libgcc.a(_dvmd_tls.o)
 .ARM.attributes
                0x00000ea3       0x32 c:/nxp/mcuxpressoide_11.6.1_8255/ide/plugins/com.nxp.mcuxpresso.tools.win32_11.6.1.202207200623/tools/bin/../lib/gcc/arm-none-eabi/10.3.1/../../../../arm-none-eabi/lib/thumb/v7e-m+dp/hard\libc_nano.a(lib_a-assert.o)
 .ARM.attributes
                0x00000ed5       0x32 c:/nxp/mcuxpressoide_11.6.1_8255/ide/plugins/com.nxp.mcuxpresso.tools.win32_11.6.1.202207200623/tools/bin/../lib/gcc/arm-none-eabi/10.3.1/../../../../arm-none-eabi/lib/thumb/v7e-m+dp/hard\libc_nano.a(lib_a-fprintf.o)
 .ARM.attributes
                0x00000f07       0x32 c:/nxp/mcuxpressoide_11.6.1_8255/ide/plugins/com.nxp.mcuxpresso.tools.win32_11.6.1.202207200623/tools/bin/../lib/gcc/arm-none-eabi/10.3.1/../../../../arm-none-eabi/lib/thumb/v7e-m+dp/hard\libc_nano.a(lib_a-impure.o)
 .ARM.attributes
                0x00000f39       0x32 c:/nxp/mcuxpressoide_11.6.1_8255/ide/plugins/com.nxp.mcuxpresso.tools.win32_11.6.1.202207200623/tools/bin/../lib/gcc/arm-none-eabi/10.3.1/../../../../arm-none-eabi/lib/thumb/v7e-m+dp/hard\libc_nano.a(lib_a-memcmp.o)
 .ARM.attributes
                0x00000f6b       0x32 c:/nxp/mcuxpressoide_11.6.1_8255/ide/plugins/com.nxp.mcuxpresso.tools.win32_11.6.1.202207200623/tools/bin/../lib/gcc/arm-none-eabi/10.3.1/../../../../arm-none-eabi/lib/thumb/v7e-m+dp/hard\libc_nano.a(lib_a-memcpy-stub.o)
 .ARM.attributes
                0x00000f9d       0x32 c:/nxp/mcuxpressoide_11.6.1_8255/ide/plugins/com.nxp.mcuxpresso.tools.win32_11.6.1.202207200623/tools/bin/../lib/gcc/arm-none-eabi/10.3.1/../../../../arm-none-eabi/lib/thumb/v7e-m+dp/hard\libc_nano.a(lib_a-memset.o)
 .ARM.attributes
                0x00000fcf       0x32 c:/nxp/mcuxpressoide_11.6.1_8255/ide/plugins/com.nxp.mcuxpresso.tools.win32_11.6.1.202207200623/tools/bin/../lib/gcc/arm-none-eabi/10.3.1/../../../../arm-none-eabi/lib/thumb/v7e-m+dp/hard\libc_nano.a(lib_a-nano-freer.o)
 .ARM.attributes
                0x00001001       0x32 c:/nxp/mcuxpressoide_11.6.1_8255/ide/plugins/com.nxp.mcuxpresso.tools.win32_11.6.1.202207200623/tools/bin/../lib/gcc/arm-none-eabi/10.3.1/../../../../arm-none-eabi/lib/thumb/v7e-m+dp/hard\libc_nano.a(lib_a-nano-mallocr.o)
 .ARM.attributes
                0x00001033       0x32 c:/nxp/mcuxpressoide_11.6.1_8255/ide/plugins/com.nxp.mcuxpresso.tools.win32_11.6.1.202207200623/tools/bin/../lib/gcc/arm-none-eabi/10.3.1/../../../../arm-none-eabi/lib/thumb/v7e-m+dp/hard\libc_nano.a(lib_a-nano-vfprintf.o)
 .ARM.attributes
                0x00001065       0x32 c:/nxp/mcuxpressoide_11.6.1_8255/ide/plugins/com.nxp.mcuxpresso.tools.win32_11.6.1.202207200623/tools/bin/../lib/gcc/arm-none-eabi/10.3.1/../../../../arm-none-eabi/lib/thumb/v7e-m+dp/hard\libc_nano.a(lib_a-nano-vfprintf_i.o)
 .ARM.attributes
                0x00001097       0x32 c:/nxp/mcuxpressoide_11.6.1_8255/ide/plugins/com.nxp.mcuxpresso.tools.win32_11.6.1.202207200623/tools/bin/../lib/gcc/arm-none-eabi/10.3.1/../../../../arm-none-eabi/lib/thumb/v7e-m+dp/hard\libc_nano.a(lib_a-sbrkr.o)
 .ARM.attributes
                0x000010c9       0x32 c:/nxp/mcuxpressoide_11.6.1_8255/ide/plugins/com.nxp.mcuxpresso.tools.win32_11.6.1.202207200623/tools/bin/../lib/gcc/arm-none-eabi/10.3.1/../../../../arm-none-eabi/lib/thumb/v7e-m+dp/hard\libc_nano.a(lib_a-wbuf.o)
 .ARM.attributes
                0x000010fb       0x32 c:/nxp/mcuxpressoide_11.6.1_8255/ide/plugins/com.nxp.mcuxpresso.tools.win32_11.6.1.202207200623/tools/bin/../lib/gcc/arm-none-eabi/10.3.1/../../../../arm-none-eabi/lib/thumb/v7e-m+dp/hard\libc_nano.a(lib_a-wsetup.o)
 .ARM.attributes
                0x0000112d       0x32 c:/nxp/mcuxpressoide_11.6.1_8255/ide/plugins/com.nxp.mcuxpresso.tools.win32_11.6.1.202207200623/tools/bin/../lib/gcc/arm-none-eabi/10.3.1/../../../../arm-none-eabi/lib/thumb/v7e-m+dp/hard\libc_nano.a(lib_a-abort.o)
 .ARM.attributes
                0x0000115f       0x32 c:/nxp/mcuxpressoide_11.6.1_8255/ide/plugins/com.nxp.mcuxpresso.tools.win32_11.6.1.202207200623/tools/bin/../lib/gcc/arm-none-eabi/10.3.1/../../../../arm-none-eabi/lib/thumb/v7e-m+dp/hard\libc_nano.a(lib_a-fflush.o)
 .ARM.attributes
                0x00001191       0x32 c:/nxp/mcuxpressoide_11.6.1_8255/ide/plugins/com.nxp.mcuxpresso.tools.win32_11.6.1.202207200623/tools/bin/../lib/gcc/arm-none-eabi/10.3.1/../../../../arm-none-eabi/lib/thumb/v7e-m+dp/hard\libc_nano.a(lib_a-findfp.o)
 .ARM.attributes
                0x000011c3       0x32 c:/nxp/mcuxpressoide_11.6.1_8255/ide/plugins/com.nxp.mcuxpresso.tools.win32_11.6.1.202207200623/tools/bin/../lib/gcc/arm-none-eabi/10.3.1/../../../../arm-none-eabi/lib/thumb/v7e-m+dp/hard\libc_nano.a(lib_a-fwalk.o)
 .ARM.attributes
                0x000011f5       0x32 c:/nxp/mcuxpressoide_11.6.1_8255/ide/plugins/com.nxp.mcuxpresso.tools.win32_11.6.1.202207200623/tools/bin/../lib/gcc/arm-none-eabi/10.3.1/../../../../arm-none-eabi/lib/thumb/v7e-m+dp/hard\libc_nano.a(lib_a-lock.o)
 .ARM.attributes
                0x00001227       0x32 c:/nxp/mcuxpressoide_11.6.1_8255/ide/plugins/com.nxp.mcuxpresso.tools.win32_11.6.1.202207200623/tools/bin/../lib/gcc/arm-none-eabi/10.3.1/../../../../arm-none-eabi/lib/thumb/v7e-m+dp/hard\libc_nano.a(lib_a-makebuf.o)
 .ARM.attributes
                0x00001259       0x1c c:/nxp/mcuxpressoide_11.6.1_8255/ide/plugins/com.nxp.mcuxpresso.tools.win32_11.6.1.202207200623/tools/bin/../lib/gcc/arm-none-eabi/10.3.1/../../../../arm-none-eabi/lib/thumb/v7e-m+dp/hard\libc_nano.a(lib_a-memchr.o)
 .ARM.attributes
                0x00001275       0x32 c:/nxp/mcuxpressoide_11.6.1_8255/ide/plugins/com.nxp.mcuxpresso.tools.win32_11.6.1.202207200623/tools/bin/../lib/gcc/arm-none-eabi/10.3.1/../../../../arm-none-eabi/lib/thumb/v7e-m+dp/hard\libc_nano.a(lib_a-mlock.o)
 .ARM.attributes
                0x000012a7       0x32 c:/nxp/mcuxpressoide_11.6.1_8255/ide/plugins/com.nxp.mcuxpresso.tools.win32_11.6.1.202207200623/tools/bin/../lib/gcc/arm-none-eabi/10.3.1/../../../../arm-none-eabi/lib/thumb/v7e-m+dp/hard\libc_nano.a(lib_a-reent.o)
 .ARM.attributes
                0x000012d9       0x32 c:/nxp/mcuxpressoide_11.6.1_8255/ide/plugins/com.nxp.mcuxpresso.tools.win32_11.6.1.202207200623/tools/bin/../lib/gcc/arm-none-eabi/10.3.1/../../../../arm-none-eabi/lib/thumb/v7e-m+dp/hard\libc_nano.a(lib_a-signal.o)
 .ARM.attributes
                0x0000130b       0x32 c:/nxp/mcuxpressoide_11.6.1_8255/ide/plugins/com.nxp.mcuxpresso.tools.win32_11.6.1.202207200623/tools/bin/../lib/gcc/arm-none-eabi/10.3.1/../../../../arm-none-eabi/lib/thumb/v7e-m+dp/hard\libc_nano.a(lib_a-signalr.o)
 .ARM.attributes
                0x0000133d       0x32 c:/nxp/mcuxpressoide_11.6.1_8255/ide/plugins/com.nxp.mcuxpresso.tools.win32_11.6.1.202207200623/tools/bin/../lib/gcc/arm-none-eabi/10.3.1/../../../../arm-none-eabi/lib/thumb/v7e-m+dp/hard\libc_nano.a(lib_a-stdio.o)
 .ARM.attributes
                0x0000136f       0x32 c:/nxp/mcuxpressoide_11.6.1_8255/ide/plugins/com.nxp.mcuxpresso.tools.win32_11.6.1.202207200623/tools/bin/../lib/gcc/arm-none-eabi/10.3.1/../../../../arm-none-eabi/lib/thumb/v7e-m+dp/hard\libc_nano.a(lib_a-writer.o)
 .ARM.attributes
                0x000013a1       0x32 c:/nxp/mcuxpressoide_11.6.1_8255/ide/plugins/com.nxp.mcuxpresso.tools.win32_11.6.1.202207200623/tools/bin/../lib/gcc/arm-none-eabi/10.3.1/../../../../arm-none-eabi/lib/thumb/v7e-m+dp/hard\libc_nano.a(lib_a-closer.o)
 .ARM.attributes
                0x000013d3       0x32 c:/nxp/mcuxpressoide_11.6.1_8255/ide/plugins/com.nxp.mcuxpresso.tools.win32_11.6.1.202207200623/tools/bin/../lib/gcc/arm-none-eabi/10.3.1/../../../../arm-none-eabi/lib/thumb/v7e-m+dp/hard\libc_nano.a(lib_a-fstatr.o)
 .ARM.attributes
                0x00001405       0x32 c:/nxp/mcuxpressoide_11.6.1_8255/ide/plugins/com.nxp.mcuxpresso.tools.win32_11.6.1.202207200623/tools/bin/../lib/gcc/arm-none-eabi/10.3.1/../../../../arm-none-eabi/lib/thumb/v7e-m+dp/hard\libc_nano.a(lib_a-isattyr.o)
 .ARM.attributes
                0x00001437       0x32 c:/nxp/mcuxpressoide_11.6.1_8255/ide/plugins/com.nxp.mcuxpresso.tools.win32_11.6.1.202207200623/tools/bin/../lib/gcc/arm-none-eabi/10.3.1/../../../../arm-none-eabi/lib/thumb/v7e-m+dp/hard\libc_nano.a(lib_a-lseekr.o)
 .ARM.attributes
                0x00001469       0x32 c:/nxp/mcuxpressoide_11.6.1_8255/ide/plugins/com.nxp.mcuxpresso.tools.win32_11.6.1.202207200623/tools/bin/../lib/gcc/arm-none-eabi/10.3.1/../../../../arm-none-eabi/lib/thumb/v7e-m+dp/hard\libc_nano.a(lib_a-readr.o)
 .ARM.attributes
                0x0000149b       0x32 c:/nxp/mcuxpressoide_11.6.1_8255/ide/plugins/com.nxp.mcuxpresso.tools.win32_11.6.1.202207200623/tools/bin/../lib/gcc/arm-none-eabi/10.3.1/../../../../arm-none-eabi/lib/thumb/v7e-m+dp/hard\libcr_newlib_none.a(_cr_sbrk.o)
 .ARM.attributes
                0x000014cd       0x32 c:/nxp/mcuxpressoide_11.6.1_8255/ide/plugins/com.nxp.mcuxpresso.tools.win32_11.6.1.202207200623/tools/bin/../lib/gcc/arm-none-eabi/10.3.1/../../../../arm-none-eabi/lib/thumb/v7e-m+dp/hard\libcr_newlib_none.a(_cr_check_heap.o)
 .ARM.attributes
                0x000014ff       0x32 c:/nxp/mcuxpressoide_11.6.1_8255/ide/plugins/com.nxp.mcuxpresso.tools.win32_11.6.1.202207200623/tools/bin/../lib/gcc/arm-none-eabi/10.3.1/../../../../arm-none-eabi/lib/thumb/v7e-m+dp/hard\libnosys.a(close.o)
 .ARM.attributes
                0x00001531       0x32 c:/nxp/mcuxpressoide_11.6.1_8255/ide/plugins/com.nxp.mcuxpresso.tools.win32_11.6.1.202207200623/tools/bin/../lib/gcc/arm-none-eabi/10.3.1/../../../../arm-none-eabi/lib/thumb/v7e-m+dp/hard\libnosys.a(fstat.o)
 .ARM.attributes
                0x00001563       0x32 c:/nxp/mcuxpressoide_11.6.1_8255/ide/plugins/com.nxp.mcuxpresso.tools.win32_11.6.1.202207200623/tools/bin/../lib/gcc/arm-none-eabi/10.3.1/../../../../arm-none-eabi/lib/thumb/v7e-m+dp/hard\libnosys.a(getpid.o)
 .ARM.attributes
                0x00001595       0x32 c:/nxp/mcuxpressoide_11.6.1_8255/ide/plugins/com.nxp.mcuxpresso.tools.win32_11.6.1.202207200623/tools/bin/../lib/gcc/arm-none-eabi/10.3.1/../../../../arm-none-eabi/lib/thumb/v7e-m+dp/hard\libnosys.a(isatty.o)
 .ARM.attributes
                0x000015c7       0x32 c:/nxp/mcuxpressoide_11.6.1_8255/ide/plugins/com.nxp.mcuxpresso.tools.win32_11.6.1.202207200623/tools/bin/../lib/gcc/arm-none-eabi/10.3.1/../../../../arm-none-eabi/lib/thumb/v7e-m+dp/hard\libnosys.a(kill.o)
 .ARM.attributes
                0x000015f9       0x32 c:/nxp/mcuxpressoide_11.6.1_8255/ide/plugins/com.nxp.mcuxpresso.tools.win32_11.6.1.202207200623/tools/bin/../lib/gcc/arm-none-eabi/10.3.1/../../../../arm-none-eabi/lib/thumb/v7e-m+dp/hard\libnosys.a(lseek.o)
 .ARM.attributes
                0x0000162b       0x32 c:/nxp/mcuxpressoide_11.6.1_8255/ide/plugins/com.nxp.mcuxpresso.tools.win32_11.6.1.202207200623/tools/bin/../lib/gcc/arm-none-eabi/10.3.1/../../../../arm-none-eabi/lib/thumb/v7e-m+dp/hard\libnosys.a(read.o)
 .ARM.attributes
                0x0000165d       0x32 c:/nxp/mcuxpressoide_11.6.1_8255/ide/plugins/com.nxp.mcuxpresso.tools.win32_11.6.1.202207200623/tools/bin/../lib/gcc/arm-none-eabi/10.3.1/../../../../arm-none-eabi/lib/thumb/v7e-m+dp/hard\libnosys.a(write.o)
 .ARM.attributes
                0x0000168f       0x32 c:/nxp/mcuxpressoide_11.6.1_8255/ide/plugins/com.nxp.mcuxpresso.tools.win32_11.6.1.202207200623/tools/bin/../lib/gcc/arm-none-eabi/10.3.1/../../../../arm-none-eabi/lib/thumb/v7e-m+dp/hard\libnosys.a(_exit.o)
 .ARM.attributes
                0x000016c1       0x32 c:/nxp/mcuxpressoide_11.6.1_8255/ide/plugins/com.nxp.mcuxpresso.tools.win32_11.6.1.202207200623/tools/bin/../lib/gcc/arm-none-eabi/10.3.1/../../../../arm-none-eabi/lib/thumb/v7e-m+dp/hard\libc_nano.a(lib_a-errno.o)
                0x00000001                ASSERT ((__StackLimit >= __HeapLimit), region m_data overflowed with stack and heap)
OUTPUT(evkbimxrt1050_flashloader.axf elf32-littlearm)
LOAD linker stubs

.debug_info     0x00000000    0x807cd
 .debug_info    0x00000000     0x2230 ./usb/device/source/ehci/usb_device_ehci.o
 .debug_info    0x00002230     0x1c41 ./usb/device/source/usb_device_ch9.o
 .debug_info    0x00003e71     0x177f ./usb/device/source/usb_device_dci.o
 .debug_info    0x000055f0     0x12a4 ./usb/device/class/hid/usb_device_hid.o
 .debug_info    0x00006894     0x11e7 ./usb/device/class/usb_device_class.o
 .debug_info    0x00007a7b       0x26 ./startup/crt0_gcc.o
 .debug_info    0x00007aa1      0x6da ./startup/startup.o
 .debug_info    0x0000817b       0x26 ./startup/startup_MIMXRT1052.o
 .debug_info    0x000081a1      0x411 ./source/utilities/src/debug_util.o
 .debug_info    0x000085b2      0x9fd ./source/utilities/src/fsl_rtos_abstraction.o
 .debug_info    0x00008faf      0x812 ./source/usb/bm_composite/composite.o
 .debug_info    0x000097c1      0x9e6 ./source/usb/bm_composite/hid_bootloader.o
 .debug_info    0x0000a1a7     0x100e ./source/usb/bm_composite/usb_descriptor.o
 .debug_info    0x0000b1b5     0x2fc4 ./source/sbloader/src/sbloader.o
 .debug_info    0x0000e179     0x2268 ./source/property/src/property_imx.o
 .debug_info    0x000103e1     0x24a4 ./source/packet/src/serial_packet.o
 .debug_info    0x00012885     0x3b1f ./source/memory/src/flexspi_nor_memory.o
 .debug_info    0x000163a4     0x209f ./source/memory/src/memory.o
 .debug_info    0x00018443     0x38b6 ./source/memory/src/mmc_memory.o
 .debug_info    0x0001bcf9      0x779 ./source/memory/src/normal_memory.o
 .debug_info    0x0001c472       0x26 ./source/memory/src/pattern_fill_gcc.o
 .debug_info    0x0001c498     0x3423 ./source/memory/src/sd_memory.o
 .debug_info    0x0001f8bb     0x316a ./source/memory/src/semc_nand_memory.o
 .debug_info    0x00022a25     0x22c7 ./source/memory/src/semc_nor_memory.o
 .debug_info    0x00024cec     0x227b ./source/memory/src/spi_nor_eeprom_memory.o
 .debug_info    0x00026f67     0x3639 ./source/memory/src/spinand_memory.o
 .debug_info    0x0002a5a0     0x40d8 ./source/drivers/usdhc/bl_usdhc.o
 .debug_info    0x0002e678     0x1679 ./source/drivers/trng/bl_trng.o
 .debug_info    0x0002fcf1     0x1125 ./source/drivers/serial_nor_eeprom/serial_nor_eeprom.o
 .debug_info    0x00030e16     0x2310 ./source/drivers/semc_nor/semc_nor_flash.o
 .debug_info    0x00033126     0x4182 ./source/drivers/semc_nand/semc_nand_flash.o
 .debug_info    0x000372a8     0x1f05 ./source/drivers/semc/bl_semc.o
 .debug_info    0x000391ad     0x70b8 ./source/drivers/sdmmc/fsl_mmc.o
 .debug_info    0x00040265     0x532f ./source/drivers/sdmmc/fsl_sd.o
 .debug_info    0x00045594     0x1890 ./source/drivers/sdmmc/fsl_sdmmc_common.o
 .debug_info    0x00046e24     0x1411 ./source/drivers/sdmmc/fsl_sdmmc_host.o
 .debug_info    0x00048235     0x103f ./source/drivers/ocotp/bl_ocotp.o
 .debug_info    0x00049274      0xa4b ./source/drivers/nand_ecc/nand_ecc.o
 .debug_info    0x00049cbf      0xe87 ./source/drivers/microseconds/microseconds_pit.o
 .debug_info    0x0004ab46     0x4a75 ./source/drivers/flexspi_nor/flexspi_nor_flash.o
 .debug_info    0x0004f5bb     0x1687 ./source/drivers/flexspi_nand/flexspi_nand_flash.o
 .debug_info    0x00050c42     0x2723 ./source/drivers/flexspi/bl_flexspi.o
 .debug_info    0x00053365     0x20ae ./source/drivers/dcp/bl_dcp.o
 .debug_info    0x00055413      0x44b ./source/crc/crc16.o
 .debug_info    0x0005585e      0x590 ./source/crc/crc32.o
 .debug_info    0x00055dee     0x405d ./source/bootloader/src/bl_command.o
 .debug_info    0x00059e4b     0x144d ./source/bootloader/src/bl_context.o
 .debug_info    0x0005b298      0x858 ./source/bootloader/src/bl_exception_handler.o
 .debug_info    0x0005baf0      0x973 ./source/bootloader/src/bl_keyblob.o
 .debug_info    0x0005c463      0xa58 ./source/bootloader/src/bl_keyblob_dcp.o
 .debug_info    0x0005cebb     0x1ac3 ./source/bootloader/src/bl_main.o
 .debug_info    0x0005e97e     0x19d6 ./source/bootloader/src/bl_nor_encrypt_bee.o
 .debug_info    0x00060354      0x906 ./source/bootloader/src/bl_shutdown_cleanup.o
 .debug_info    0x00060c5a     0x132d ./source/bootloader/src/lpuart_peripheral_interface.o
 .debug_info    0x00061f87     0x3a31 ./source/bootloader/src/usb_hid_msc_peripheral_interface.o
 .debug_info    0x000659b8      0x72d ./source/autobaud/autobaud_irq.o
 .debug_info    0x000660e5     0x2990 ./drivers/fsl_clock.o
 .debug_info    0x00068a75     0x1034 ./drivers/fsl_gpio.o
 .debug_info    0x00069aa9     0x4d26 ./drivers/fsl_lpspi.o
 .debug_info    0x0006e7cf     0x3cf8 ./drivers/fsl_lpuart.o
 .debug_info    0x000724c7      0x541 ./device/system_MIMXRT1052.o
 .debug_info    0x00072a08     0x1c2d ./component/osa/fsl_os_abstraction_bm.o
 .debug_info    0x00074635      0x76c ./board/pin_mux.o
 .debug_info    0x00074da1     0x17eb ./MIMXRT1052/bl_clock_config_MIMXRT1052.o
 .debug_info    0x0007658c      0x6e2 ./MIMXRT1052/bl_lpuart_irq_config_MIMXRT1052.o
 .debug_info    0x00076c6e      0x9e6 ./MIMXRT1052/bl_peripherals_MIMXRT1052.o
 .debug_info    0x00077654      0x6af ./MIMXRT1052/external_memory_property_map_MIMXRT1052.o
 .debug_info    0x00077d03      0xcb5 ./MIMXRT1052/flexspi_nand_config_MIMXRT1052.o
 .debug_info    0x000789b8     0x26b1 ./MIMXRT1052/hardware_init_MIMXRT1052.o
 .debug_info    0x0007b069      0x9c3 ./MIMXRT1052/memory_map_MIMXRT1052.o
 .debug_info    0x0007ba2c     0x14ab ./MIMXRT1052/pinmux_utility_imxrt_series.o
 .debug_info    0x0007ced7     0x1fc4 ./MIMXRT1052/sdmmc_config_MIMXRT1052.o
 .debug_info    0x0007ee9b      0xe5b ./MIMXRT1052/semc_nand_config_MIMXRT1052.o
 .debug_info    0x0007fcf6      0xad7 ./MIMXRT1052/semc_nor_config_MIMXRT1052.o

.debug_abbrev   0x00000000     0xecb1
 .debug_abbrev  0x00000000      0x4ee ./usb/device/source/ehci/usb_device_ehci.o
 .debug_abbrev  0x000004ee      0x328 ./usb/device/source/usb_device_ch9.o
 .debug_abbrev  0x00000816      0x347 ./usb/device/source/usb_device_dci.o
 .debug_abbrev  0x00000b5d      0x306 ./usb/device/class/hid/usb_device_hid.o
 .debug_abbrev  0x00000e63      0x2e2 ./usb/device/class/usb_device_class.o
 .debug_abbrev  0x00001145       0x14 ./startup/crt0_gcc.o
 .debug_abbrev  0x00001159      0x15f ./startup/startup.o
 .debug_abbrev  0x000012b8       0x14 ./startup/startup_MIMXRT1052.o
 .debug_abbrev  0x000012cc      0x1e1 ./source/utilities/src/debug_util.o
 .debug_abbrev  0x000014ad      0x27b ./source/utilities/src/fsl_rtos_abstraction.o
 .debug_abbrev  0x00001728       0xfa ./source/usb/bm_composite/composite.o
 .debug_abbrev  0x00001822      0x1a1 ./source/usb/bm_composite/hid_bootloader.o
 .debug_abbrev  0x000019c3      0x254 ./source/usb/bm_composite/usb_descriptor.o
 .debug_abbrev  0x00001c17      0x4c4 ./source/sbloader/src/sbloader.o
 .debug_abbrev  0x000020db      0x412 ./source/property/src/property_imx.o
 .debug_abbrev  0x000024ed      0x549 ./source/packet/src/serial_packet.o
 .debug_abbrev  0x00002a36      0x5b6 ./source/memory/src/flexspi_nor_memory.o
 .debug_abbrev  0x00002fec      0x4a0 ./source/memory/src/memory.o
 .debug_abbrev  0x0000348c      0x4df ./source/memory/src/mmc_memory.o
 .debug_abbrev  0x0000396b      0x175 ./source/memory/src/normal_memory.o
 .debug_abbrev  0x00003ae0       0x14 ./source/memory/src/pattern_fill_gcc.o
 .debug_abbrev  0x00003af4      0x510 ./source/memory/src/sd_memory.o
 .debug_abbrev  0x00004004      0x535 ./source/memory/src/semc_nand_memory.o
 .debug_abbrev  0x00004539      0x503 ./source/memory/src/semc_nor_memory.o
 .debug_abbrev  0x00004a3c      0x53d ./source/memory/src/spi_nor_eeprom_memory.o
 .debug_abbrev  0x00004f79      0x533 ./source/memory/src/spinand_memory.o
 .debug_abbrev  0x000054ac      0x4e0 ./source/drivers/usdhc/bl_usdhc.o
 .debug_abbrev  0x0000598c      0x391 ./source/drivers/trng/bl_trng.o
 .debug_abbrev  0x00005d1d      0x306 ./source/drivers/serial_nor_eeprom/serial_nor_eeprom.o
 .debug_abbrev  0x00006023      0x3ee ./source/drivers/semc_nor/semc_nor_flash.o
 .debug_abbrev  0x00006411      0x41d ./source/drivers/semc_nand/semc_nand_flash.o
 .debug_abbrev  0x0000682e      0x4d5 ./source/drivers/semc/bl_semc.o
 .debug_abbrev  0x00006d03      0x462 ./source/drivers/sdmmc/fsl_mmc.o
 .debug_abbrev  0x00007165      0x3e4 ./source/drivers/sdmmc/fsl_sd.o
 .debug_abbrev  0x00007549      0x294 ./source/drivers/sdmmc/fsl_sdmmc_common.o
 .debug_abbrev  0x000077dd      0x42a ./source/drivers/sdmmc/fsl_sdmmc_host.o
 .debug_abbrev  0x00007c07      0x2ec ./source/drivers/ocotp/bl_ocotp.o
 .debug_abbrev  0x00007ef3      0x208 ./source/drivers/nand_ecc/nand_ecc.o
 .debug_abbrev  0x000080fb      0x31c ./source/drivers/microseconds/microseconds_pit.o
 .debug_abbrev  0x00008417      0x433 ./source/drivers/flexspi_nor/flexspi_nor_flash.o
 .debug_abbrev  0x0000884a      0x415 ./source/drivers/flexspi_nand/flexspi_nand_flash.o
 .debug_abbrev  0x00008c5f      0x4d8 ./source/drivers/flexspi/bl_flexspi.o
 .debug_abbrev  0x00009137      0x522 ./source/drivers/dcp/bl_dcp.o
 .debug_abbrev  0x00009659      0x130 ./source/crc/crc16.o
 .debug_abbrev  0x00009789      0x180 ./source/crc/crc32.o
 .debug_abbrev  0x00009909      0x4da ./source/bootloader/src/bl_command.o
 .debug_abbrev  0x00009de3      0x1b0 ./source/bootloader/src/bl_context.o
 .debug_abbrev  0x00009f93      0x1bb ./source/bootloader/src/bl_exception_handler.o
 .debug_abbrev  0x0000a14e      0x1eb ./source/bootloader/src/bl_keyblob.o
 .debug_abbrev  0x0000a339      0x20f ./source/bootloader/src/bl_keyblob_dcp.o
 .debug_abbrev  0x0000a548      0x496 ./source/bootloader/src/bl_main.o
 .debug_abbrev  0x0000a9de      0x460 ./source/bootloader/src/bl_nor_encrypt_bee.o
 .debug_abbrev  0x0000ae3e      0x1d5 ./source/bootloader/src/bl_shutdown_cleanup.o
 .debug_abbrev  0x0000b013      0x2c0 ./source/bootloader/src/lpuart_peripheral_interface.o
 .debug_abbrev  0x0000b2d3      0x5a7 ./source/bootloader/src/usb_hid_msc_peripheral_interface.o
 .debug_abbrev  0x0000b87a      0x1d3 ./source/autobaud/autobaud_irq.o
 .debug_abbrev  0x0000ba4d      0x482 ./drivers/fsl_clock.o
 .debug_abbrev  0x0000becf      0x336 ./drivers/fsl_gpio.o
 .debug_abbrev  0x0000c205      0x4f7 ./drivers/fsl_lpspi.o
 .debug_abbrev  0x0000c6fc      0x555 ./drivers/fsl_lpuart.o
 .debug_abbrev  0x0000cc51      0x11f ./device/system_MIMXRT1052.o
 .debug_abbrev  0x0000cd70      0x427 ./component/osa/fsl_os_abstraction_bm.o
 .debug_abbrev  0x0000d197      0x1a6 ./board/pin_mux.o
 .debug_abbrev  0x0000d33d      0x37d ./MIMXRT1052/bl_clock_config_MIMXRT1052.o
 .debug_abbrev  0x0000d6ba      0x1a7 ./MIMXRT1052/bl_lpuart_irq_config_MIMXRT1052.o
 .debug_abbrev  0x0000d861       0xf9 ./MIMXRT1052/bl_peripherals_MIMXRT1052.o
 .debug_abbrev  0x0000d95a       0xfa ./MIMXRT1052/external_memory_property_map_MIMXRT1052.o
 .debug_abbrev  0x0000da54      0x205 ./MIMXRT1052/flexspi_nand_config_MIMXRT1052.o
 .debug_abbrev  0x0000dc59      0x501 ./MIMXRT1052/hardware_init_MIMXRT1052.o
 .debug_abbrev  0x0000e15a      0x11f ./MIMXRT1052/memory_map_MIMXRT1052.o
 .debug_abbrev  0x0000e279      0x2e1 ./MIMXRT1052/pinmux_utility_imxrt_series.o
 .debug_abbrev  0x0000e55a      0x312 ./MIMXRT1052/sdmmc_config_MIMXRT1052.o
 .debug_abbrev  0x0000e86c      0x240 ./MIMXRT1052/semc_nand_config_MIMXRT1052.o
 .debug_abbrev  0x0000eaac      0x205 ./MIMXRT1052/semc_nor_config_MIMXRT1052.o

.debug_loc      0x00000000    0x3c833
 .debug_loc     0x00000000     0x1b01 ./usb/device/source/ehci/usb_device_ehci.o
 .debug_loc     0x00001b01      0xeda ./usb/device/source/usb_device_ch9.o
 .debug_loc     0x000029db     0x13a3 ./usb/device/source/usb_device_dci.o
 .debug_loc     0x00003d7e      0xdd6 ./usb/device/class/hid/usb_device_hid.o
 .debug_loc     0x00004b54      0x778 ./usb/device/class/usb_device_class.o
 .debug_loc     0x000052cc      0x14a ./startup/startup.o
 .debug_loc     0x00005416      0x56e ./source/utilities/src/debug_util.o
 .debug_loc     0x00005984      0x327 ./source/utilities/src/fsl_rtos_abstraction.o
 .debug_loc     0x00005cab      0x3d5 ./source/usb/bm_composite/hid_bootloader.o
 .debug_loc     0x00006080      0x1dc ./source/usb/bm_composite/usb_descriptor.o
 .debug_loc     0x0000625c      0xdc0 ./source/sbloader/src/sbloader.o
 .debug_loc     0x0000701c      0x6a1 ./source/property/src/property_imx.o
 .debug_loc     0x000076bd      0xa26 ./source/packet/src/serial_packet.o
 .debug_loc     0x000080e3     0x1ccf ./source/memory/src/flexspi_nor_memory.o
 .debug_loc     0x00009db2     0x110e ./source/memory/src/memory.o
 .debug_loc     0x0000aec0      0xf3a ./source/memory/src/mmc_memory.o
 .debug_loc     0x0000bdfa      0x1b5 ./source/memory/src/normal_memory.o
 .debug_loc     0x0000bfaf      0xcd6 ./source/memory/src/sd_memory.o
 .debug_loc     0x0000cc85     0x2061 ./source/memory/src/semc_nand_memory.o
 .debug_loc     0x0000ece6      0xf40 ./source/memory/src/semc_nor_memory.o
 .debug_loc     0x0000fc26      0xd10 ./source/memory/src/spi_nor_eeprom_memory.o
 .debug_loc     0x00010936     0x248f ./source/memory/src/spinand_memory.o
 .debug_loc     0x00012dc5     0x33b1 ./source/drivers/usdhc/bl_usdhc.o
 .debug_loc     0x00016176      0xa60 ./source/drivers/trng/bl_trng.o
 .debug_loc     0x00016bd6      0xc95 ./source/drivers/serial_nor_eeprom/serial_nor_eeprom.o
 .debug_loc     0x0001786b     0x1362 ./source/drivers/semc_nor/semc_nor_flash.o
 .debug_loc     0x00018bcd     0x3188 ./source/drivers/semc_nand/semc_nand_flash.o
 .debug_loc     0x0001bd55     0x13e3 ./source/drivers/semc/bl_semc.o
 .debug_loc     0x0001d138     0x4a81 ./source/drivers/sdmmc/fsl_mmc.o
 .debug_loc     0x00021bb9     0x2b90 ./source/drivers/sdmmc/fsl_sd.o
 .debug_loc     0x00024749      0x843 ./source/drivers/sdmmc/fsl_sdmmc_common.o
 .debug_loc     0x00024f8c      0x563 ./source/drivers/sdmmc/fsl_sdmmc_host.o
 .debug_loc     0x000254ef      0x5e5 ./source/drivers/ocotp/bl_ocotp.o
 .debug_loc     0x00025ad4      0x3af ./source/drivers/nand_ecc/nand_ecc.o
 .debug_loc     0x00025e83      0x2a3 ./source/drivers/microseconds/microseconds_pit.o
 .debug_loc     0x00026126     0x388f ./source/drivers/flexspi_nor/flexspi_nor_flash.o
 .debug_loc     0x000299b5      0xf25 ./source/drivers/flexspi_nand/flexspi_nand_flash.o
 .debug_loc     0x0002a8da     0x1f71 ./source/drivers/flexspi/bl_flexspi.o
 .debug_loc     0x0002c84b     0x137f ./source/drivers/dcp/bl_dcp.o
 .debug_loc     0x0002dbca      0x4b5 ./source/crc/crc16.o
 .debug_loc     0x0002e07f      0x153 ./source/crc/crc32.o
 .debug_loc     0x0002e1d2     0x194d ./source/bootloader/src/bl_command.o
 .debug_loc     0x0002fb1f       0x15 ./source/bootloader/src/bl_exception_handler.o
 .debug_loc     0x0002fb34      0x167 ./source/bootloader/src/bl_keyblob.o
 .debug_loc     0x0002fc9b      0x12d ./source/bootloader/src/bl_keyblob_dcp.o
 .debug_loc     0x0002fdc8      0x3ac ./source/bootloader/src/bl_main.o
 .debug_loc     0x00030174      0xa65 ./source/bootloader/src/bl_nor_encrypt_bee.o
 .debug_loc     0x00030bd9       0x25 ./source/bootloader/src/bl_shutdown_cleanup.o
 .debug_loc     0x00030bfe      0x26c ./source/bootloader/src/lpuart_peripheral_interface.o
 .debug_loc     0x00030e6a      0xcc7 ./source/bootloader/src/usb_hid_msc_peripheral_interface.o
 .debug_loc     0x00031b31      0x305 ./source/autobaud/autobaud_irq.o
 .debug_loc     0x00031e36     0x12b1 ./drivers/fsl_clock.o
 .debug_loc     0x000330e7      0x783 ./drivers/fsl_gpio.o
 .debug_loc     0x0003386a     0x3684 ./drivers/fsl_lpspi.o
 .debug_loc     0x00036eee     0x287c ./drivers/fsl_lpuart.o
 .debug_loc     0x0003976a     0x1109 ./component/osa/fsl_os_abstraction_bm.o
 .debug_loc     0x0003a873      0x438 ./board/pin_mux.o
 .debug_loc     0x0003acab      0x7d9 ./MIMXRT1052/bl_clock_config_MIMXRT1052.o
 .debug_loc     0x0003b484       0x2c ./MIMXRT1052/bl_lpuart_irq_config_MIMXRT1052.o
 .debug_loc     0x0003b4b0      0x155 ./MIMXRT1052/flexspi_nand_config_MIMXRT1052.o
 .debug_loc     0x0003b605      0x6f0 ./MIMXRT1052/hardware_init_MIMXRT1052.o
 .debug_loc     0x0003bcf5      0x304 ./MIMXRT1052/pinmux_utility_imxrt_series.o
 .debug_loc     0x0003bff9      0x47f ./MIMXRT1052/sdmmc_config_MIMXRT1052.o
 .debug_loc     0x0003c478      0x217 ./MIMXRT1052/semc_nand_config_MIMXRT1052.o
 .debug_loc     0x0003c68f      0x1a4 ./MIMXRT1052/semc_nor_config_MIMXRT1052.o

.debug_aranges  0x00000000     0x2008
 .debug_aranges
                0x00000000       0x70 ./usb/device/source/ehci/usb_device_ehci.o
 .debug_aranges
                0x00000070       0x78 ./usb/device/source/usb_device_ch9.o
 .debug_aranges
                0x000000e8       0xa0 ./usb/device/source/usb_device_dci.o
 .debug_aranges
                0x00000188       0x60 ./usb/device/class/hid/usb_device_hid.o
 .debug_aranges
                0x000001e8       0x60 ./usb/device/class/usb_device_class.o
 .debug_aranges
                0x00000248       0x20 ./startup/crt0_gcc.o
 .debug_aranges
                0x00000268       0x28 ./startup/startup.o
 .debug_aranges
                0x00000290       0x20 ./startup/startup_MIMXRT1052.o
 .debug_aranges
                0x000002b0       0x20 ./source/utilities/src/debug_util.o
 .debug_aranges
                0x000002d0       0x70 ./source/utilities/src/fsl_rtos_abstraction.o
 .debug_aranges
                0x00000340       0x18 ./source/usb/bm_composite/composite.o
 .debug_aranges
                0x00000358       0x40 ./source/usb/bm_composite/hid_bootloader.o
 .debug_aranges
                0x00000398       0x48 ./source/usb/bm_composite/usb_descriptor.o
 .debug_aranges
                0x000003e0       0xc8 ./source/sbloader/src/sbloader.o
 .debug_aranges
                0x000004a8       0x48 ./source/property/src/property_imx.o
 .debug_aranges
                0x000004f0       0x88 ./source/packet/src/serial_packet.o
 .debug_aranges
                0x00000578       0x88 ./source/memory/src/flexspi_nor_memory.o
 .debug_aranges
                0x00000600       0x88 ./source/memory/src/memory.o
 .debug_aranges
                0x00000688       0x80 ./source/memory/src/mmc_memory.o
 .debug_aranges
                0x00000708       0x38 ./source/memory/src/normal_memory.o
 .debug_aranges
                0x00000740       0x20 ./source/memory/src/pattern_fill_gcc.o
 .debug_aranges
                0x00000760       0x70 ./source/memory/src/sd_memory.o
 .debug_aranges
                0x000007d0       0xb8 ./source/memory/src/semc_nand_memory.o
 .debug_aranges
                0x00000888       0x70 ./source/memory/src/semc_nor_memory.o
 .debug_aranges
                0x000008f8       0x68 ./source/memory/src/spi_nor_eeprom_memory.o
 .debug_aranges
                0x00000960       0xb0 ./source/memory/src/spinand_memory.o
 .debug_aranges
                0x00000a10      0x100 ./source/drivers/usdhc/bl_usdhc.o
 .debug_aranges
                0x00000b10       0x48 ./source/drivers/trng/bl_trng.o
 .debug_aranges
                0x00000b58       0x60 ./source/drivers/serial_nor_eeprom/serial_nor_eeprom.o
 .debug_aranges
                0x00000bb8       0x70 ./source/drivers/semc_nor/semc_nor_flash.o
 .debug_aranges
                0x00000c28       0xa0 ./source/drivers/semc_nand/semc_nand_flash.o
 .debug_aranges
                0x00000cc8       0xa8 ./source/drivers/semc/bl_semc.o
 .debug_aranges
                0x00000d70      0x168 ./source/drivers/sdmmc/fsl_mmc.o
 .debug_aranges
                0x00000ed8      0x120 ./source/drivers/sdmmc/fsl_sd.o
 .debug_aranges
                0x00000ff8       0x60 ./source/drivers/sdmmc/fsl_sdmmc_common.o
 .debug_aranges
                0x00001058       0x68 ./source/drivers/sdmmc/fsl_sdmmc_host.o
 .debug_aranges
                0x000010c0       0x40 ./source/drivers/ocotp/bl_ocotp.o
 .debug_aranges
                0x00001100       0x30 ./source/drivers/nand_ecc/nand_ecc.o
 .debug_aranges
                0x00001130       0x60 ./source/drivers/microseconds/microseconds_pit.o
 .debug_aranges
                0x00001190       0xa0 ./source/drivers/flexspi_nor/flexspi_nor_flash.o
 .debug_aranges
                0x00001230       0x58 ./source/drivers/flexspi_nand/flexspi_nand_flash.o
 .debug_aranges
                0x00001288       0xd0 ./source/drivers/flexspi/bl_flexspi.o
 .debug_aranges
                0x00001358       0x98 ./source/drivers/dcp/bl_dcp.o
 .debug_aranges
                0x000013f0       0x40 ./source/crc/crc16.o
 .debug_aranges
                0x00001430       0x30 ./source/crc/crc32.o
 .debug_aranges
                0x00001460      0x110 ./source/bootloader/src/bl_command.o
 .debug_aranges
                0x00001570       0x18 ./source/bootloader/src/bl_context.o
 .debug_aranges
                0x00001588       0x20 ./source/bootloader/src/bl_exception_handler.o
 .debug_aranges
                0x000015a8       0x28 ./source/bootloader/src/bl_keyblob.o
 .debug_aranges
                0x000015d0       0x20 ./source/bootloader/src/bl_keyblob_dcp.o
 .debug_aranges
                0x000015f0       0x48 ./source/bootloader/src/bl_main.o
 .debug_aranges
                0x00001638       0x50 ./source/bootloader/src/bl_nor_encrypt_bee.o
 .debug_aranges
                0x00001688       0x20 ./source/bootloader/src/bl_shutdown_cleanup.o
 .debug_aranges
                0x000016a8       0x40 ./source/bootloader/src/lpuart_peripheral_interface.o
 .debug_aranges
                0x000016e8       0x78 ./source/bootloader/src/usb_hid_msc_peripheral_interface.o
 .debug_aranges
                0x00001760       0x38 ./source/autobaud/autobaud_irq.o
 .debug_aranges
                0x00001798      0x190 ./drivers/fsl_clock.o
 .debug_aranges
                0x00001928       0x30 ./drivers/fsl_gpio.o
 .debug_aranges
                0x00001958      0x138 ./drivers/fsl_lpspi.o
 .debug_aranges
                0x00001a90      0x140 ./drivers/fsl_lpuart.o
 .debug_aranges
                0x00001bd0       0x38 ./device/system_MIMXRT1052.o
 .debug_aranges
                0x00001c08      0x128 ./component/osa/fsl_os_abstraction_bm.o
 .debug_aranges
                0x00001d30       0x38 ./board/pin_mux.o
 .debug_aranges
                0x00001d68       0x90 ./MIMXRT1052/bl_clock_config_MIMXRT1052.o
 .debug_aranges
                0x00001df8       0x20 ./MIMXRT1052/bl_lpuart_irq_config_MIMXRT1052.o
 .debug_aranges
                0x00001e18       0x18 ./MIMXRT1052/bl_peripherals_MIMXRT1052.o
 .debug_aranges
                0x00001e30       0x18 ./MIMXRT1052/external_memory_property_map_MIMXRT1052.o
 .debug_aranges
                0x00001e48       0x28 ./MIMXRT1052/flexspi_nand_config_MIMXRT1052.o
 .debug_aranges
                0x00001e70       0xb0 ./MIMXRT1052/hardware_init_MIMXRT1052.o
 .debug_aranges
                0x00001f20       0x18 ./MIMXRT1052/memory_map_MIMXRT1052.o
 .debug_aranges
                0x00001f38       0x38 ./MIMXRT1052/pinmux_utility_imxrt_series.o
 .debug_aranges
                0x00001f70       0x40 ./MIMXRT1052/sdmmc_config_MIMXRT1052.o
 .debug_aranges
                0x00001fb0       0x30 ./MIMXRT1052/semc_nand_config_MIMXRT1052.o
 .debug_aranges
                0x00001fe0       0x28 ./MIMXRT1052/semc_nor_config_MIMXRT1052.o

.debug_ranges   0x00000000     0x5e08
 .debug_ranges  0x00000000      0x1c0 ./usb/device/source/ehci/usb_device_ehci.o
 .debug_ranges  0x000001c0       0xb0 ./usb/device/source/usb_device_ch9.o
 .debug_ranges  0x00000270      0x120 ./usb/device/source/usb_device_dci.o
 .debug_ranges  0x00000390       0xd0 ./usb/device/class/hid/usb_device_hid.o
 .debug_ranges  0x00000460       0x70 ./usb/device/class/usb_device_class.o
 .debug_ranges  0x000004d0       0x18 ./startup/startup.o
 .debug_ranges  0x000004e8       0xe0 ./source/utilities/src/debug_util.o
 .debug_ranges  0x000005c8       0x60 ./source/utilities/src/fsl_rtos_abstraction.o
 .debug_ranges  0x00000628       0x30 ./source/usb/bm_composite/hid_bootloader.o
 .debug_ranges  0x00000658       0x80 ./source/usb/bm_composite/usb_descriptor.o
 .debug_ranges  0x000006d8      0x108 ./source/sbloader/src/sbloader.o
 .debug_ranges  0x000007e0       0xa0 ./source/property/src/property_imx.o
 .debug_ranges  0x00000880      0x168 ./source/packet/src/serial_packet.o
 .debug_ranges  0x000009e8      0x2c0 ./source/memory/src/flexspi_nor_memory.o
 .debug_ranges  0x00000ca8      0x180 ./source/memory/src/memory.o
 .debug_ranges  0x00000e28      0x1b0 ./source/memory/src/mmc_memory.o
 .debug_ranges  0x00000fd8       0x28 ./source/memory/src/normal_memory.o
 .debug_ranges  0x00001000      0x188 ./source/memory/src/sd_memory.o
 .debug_ranges  0x00001188      0x380 ./source/memory/src/semc_nand_memory.o
 .debug_ranges  0x00001508      0x200 ./source/memory/src/semc_nor_memory.o
 .debug_ranges  0x00001708      0x1a0 ./source/memory/src/spi_nor_eeprom_memory.o
 .debug_ranges  0x000018a8      0x4c8 ./source/memory/src/spinand_memory.o
 .debug_ranges  0x00001d70      0x318 ./source/drivers/usdhc/bl_usdhc.o
 .debug_ranges  0x00002088       0xd8 ./source/drivers/trng/bl_trng.o
 .debug_ranges  0x00002160      0x128 ./source/drivers/serial_nor_eeprom/serial_nor_eeprom.o
 .debug_ranges  0x00002288      0x1c8 ./source/drivers/semc_nor/semc_nor_flash.o
 .debug_ranges  0x00002450      0x498 ./source/drivers/semc_nand/semc_nand_flash.o
 .debug_ranges  0x000028e8      0x218 ./source/drivers/semc/bl_semc.o
 .debug_ranges  0x00002b00      0x600 ./source/drivers/sdmmc/fsl_mmc.o
 .debug_ranges  0x00003100      0x448 ./source/drivers/sdmmc/fsl_sd.o
 .debug_ranges  0x00003548       0xb0 ./source/drivers/sdmmc/fsl_sdmmc_common.o
 .debug_ranges  0x000035f8       0xa0 ./source/drivers/sdmmc/fsl_sdmmc_host.o
 .debug_ranges  0x00003698       0xb0 ./source/drivers/ocotp/bl_ocotp.o
 .debug_ranges  0x00003748       0x38 ./source/drivers/nand_ecc/nand_ecc.o
 .debug_ranges  0x00003780       0xa0 ./source/drivers/microseconds/microseconds_pit.o
 .debug_ranges  0x00003820      0x5d0 ./source/drivers/flexspi_nor/flexspi_nor_flash.o
 .debug_ranges  0x00003df0      0x1d8 ./source/drivers/flexspi_nand/flexspi_nand_flash.o
 .debug_ranges  0x00003fc8      0x570 ./source/drivers/flexspi/bl_flexspi.o
 .debug_ranges  0x00004538      0x108 ./source/drivers/dcp/bl_dcp.o
 .debug_ranges  0x00004640       0x90 ./source/crc/crc16.o
 .debug_ranges  0x000046d0       0x38 ./source/crc/crc32.o
 .debug_ranges  0x00004708      0x190 ./source/bootloader/src/bl_command.o
 .debug_ranges  0x00004898       0x10 ./source/bootloader/src/bl_exception_handler.o
 .debug_ranges  0x000048a8       0x38 ./source/bootloader/src/bl_keyblob.o
 .debug_ranges  0x000048e0       0x28 ./source/bootloader/src/bl_keyblob_dcp.o
 .debug_ranges  0x00004908       0x88 ./source/bootloader/src/bl_main.o
 .debug_ranges  0x00004990      0x228 ./source/bootloader/src/bl_nor_encrypt_bee.o
 .debug_ranges  0x00004bb8       0x28 ./source/bootloader/src/bl_shutdown_cleanup.o
 .debug_ranges  0x00004be0       0x78 ./source/bootloader/src/lpuart_peripheral_interface.o
 .debug_ranges  0x00004c58       0xd8 ./source/bootloader/src/usb_hid_msc_peripheral_interface.o
 .debug_ranges  0x00004d30       0x80 ./source/autobaud/autobaud_irq.o
 .debug_ranges  0x00004db0      0x1d0 ./drivers/fsl_clock.o
 .debug_ranges  0x00004f80       0x98 ./drivers/fsl_gpio.o
 .debug_ranges  0x00005018      0x440 ./drivers/fsl_lpspi.o
 .debug_ranges  0x00005458      0x258 ./drivers/fsl_lpuart.o
 .debug_ranges  0x000056b0       0x28 ./device/system_MIMXRT1052.o
 .debug_ranges  0x000056d8      0x368 ./component/osa/fsl_os_abstraction_bm.o
 .debug_ranges  0x00005a40       0x28 ./board/pin_mux.o
 .debug_ranges  0x00005a68       0xd8 ./MIMXRT1052/bl_clock_config_MIMXRT1052.o
 .debug_ranges  0x00005b40       0x10 ./MIMXRT1052/bl_lpuart_irq_config_MIMXRT1052.o
 .debug_ranges  0x00005b50       0x18 ./MIMXRT1052/flexspi_nand_config_MIMXRT1052.o
 .debug_ranges  0x00005b68      0x118 ./MIMXRT1052/hardware_init_MIMXRT1052.o
 .debug_ranges  0x00005c80       0xc0 ./MIMXRT1052/pinmux_utility_imxrt_series.o
 .debug_ranges  0x00005d40       0x90 ./MIMXRT1052/sdmmc_config_MIMXRT1052.o
 .debug_ranges  0x00005dd0       0x20 ./MIMXRT1052/semc_nand_config_MIMXRT1052.o
 .debug_ranges  0x00005df0       0x18 ./MIMXRT1052/semc_nor_config_MIMXRT1052.o

.debug_line     0x00000000    0x378c3
 .debug_line    0x00000000     0x16b6 ./usb/device/source/ehci/usb_device_ehci.o
 .debug_line    0x000016b6      0xe4a ./usb/device/source/usb_device_ch9.o
 .debug_line    0x00002500      0xac6 ./usb/device/source/usb_device_dci.o
 .debug_line    0x00002fc6      0xb8a ./usb/device/class/hid/usb_device_hid.o
 .debug_line    0x00003b50      0x967 ./usb/device/class/usb_device_class.o
 .debug_line    0x000044b7       0x6e ./startup/crt0_gcc.o
 .debug_line    0x00004525      0x30c ./startup/startup.o
 .debug_line    0x00004831      0x113 ./startup/startup_MIMXRT1052.o
 .debug_line    0x00004944      0x3a6 ./source/utilities/src/debug_util.o
 .debug_line    0x00004cea      0x704 ./source/utilities/src/fsl_rtos_abstraction.o
 .debug_line    0x000053ee      0x342 ./source/usb/bm_composite/composite.o
 .debug_line    0x00005730      0x54c ./source/usb/bm_composite/hid_bootloader.o
 .debug_line    0x00005c7c      0x52b ./source/usb/bm_composite/usb_descriptor.o
 .debug_line    0x000061a7     0x10bc ./source/sbloader/src/sbloader.o
 .debug_line    0x00007263      0x9a3 ./source/property/src/property_imx.o
 .debug_line    0x00007c06      0xc6b ./source/packet/src/serial_packet.o
 .debug_line    0x00008871     0x1405 ./source/memory/src/flexspi_nor_memory.o
 .debug_line    0x00009c76      0xb7f ./source/memory/src/memory.o
 .debug_line    0x0000a7f5     0x10fb ./source/memory/src/mmc_memory.o
 .debug_line    0x0000b8f0      0x365 ./source/memory/src/normal_memory.o
 .debug_line    0x0000bc55       0x93 ./source/memory/src/pattern_fill_gcc.o
 .debug_line    0x0000bce8      0xf8a ./source/memory/src/sd_memory.o
 .debug_line    0x0000cc72     0x1777 ./source/memory/src/semc_nand_memory.o
 .debug_line    0x0000e3e9      0xe41 ./source/memory/src/semc_nor_memory.o
 .debug_line    0x0000f22a      0xead ./source/memory/src/spi_nor_eeprom_memory.o
 .debug_line    0x000100d7     0x19d3 ./source/memory/src/spinand_memory.o
 .debug_line    0x00011aaa     0x1e22 ./source/drivers/usdhc/bl_usdhc.o
 .debug_line    0x000138cc      0x8bb ./source/drivers/trng/bl_trng.o
 .debug_line    0x00014187      0x8f7 ./source/drivers/serial_nor_eeprom/serial_nor_eeprom.o
 .debug_line    0x00014a7e      0xbd2 ./source/drivers/semc_nor/semc_nor_flash.o
 .debug_line    0x00015650     0x1d35 ./source/drivers/semc_nand/semc_nand_flash.o
 .debug_line    0x00017385     0x1086 ./source/drivers/semc/bl_semc.o
 .debug_line    0x0001840b     0x372a ./source/drivers/sdmmc/fsl_mmc.o
 .debug_line    0x0001bb35     0x24ed ./source/drivers/sdmmc/fsl_sd.o
 .debug_line    0x0001e022      0x954 ./source/drivers/sdmmc/fsl_sdmmc_common.o
 .debug_line    0x0001e976      0x6b8 ./source/drivers/sdmmc/fsl_sdmmc_host.o
 .debug_line    0x0001f02e      0x72b ./source/drivers/ocotp/bl_ocotp.o
 .debug_line    0x0001f759      0x517 ./source/drivers/nand_ecc/nand_ecc.o
 .debug_line    0x0001fc70      0x559 ./source/drivers/microseconds/microseconds_pit.o
 .debug_line    0x000201c9     0x2a9a ./source/drivers/flexspi_nor/flexspi_nor_flash.o
 .debug_line    0x00022c63      0xcb7 ./source/drivers/flexspi_nand/flexspi_nand_flash.o
 .debug_line    0x0002391a     0x146e ./source/drivers/flexspi/bl_flexspi.o
 .debug_line    0x00024d88      0xcba ./source/drivers/dcp/bl_dcp.o
 .debug_line    0x00025a42      0x381 ./source/crc/crc16.o
 .debug_line    0x00025dc3      0x2c7 ./source/crc/crc32.o
 .debug_line    0x0002608a     0x153c ./source/bootloader/src/bl_command.o
 .debug_line    0x000275c6      0x416 ./source/bootloader/src/bl_context.o
 .debug_line    0x000279dc      0x241 ./source/bootloader/src/bl_exception_handler.o
 .debug_line    0x00027c1d      0x5ad ./source/bootloader/src/bl_keyblob.o
 .debug_line    0x000281ca      0x3e1 ./source/bootloader/src/bl_keyblob_dcp.o
 .debug_line    0x000285ab      0x8b2 ./source/bootloader/src/bl_main.o
 .debug_line    0x00028e5d      0xb92 ./source/bootloader/src/bl_nor_encrypt_bee.o
 .debug_line    0x000299ef      0x485 ./source/bootloader/src/bl_shutdown_cleanup.o
 .debug_line    0x00029e74      0x6d6 ./source/bootloader/src/lpuart_peripheral_interface.o
 .debug_line    0x0002a54a      0xf6b ./source/bootloader/src/usb_hid_msc_peripheral_interface.o
 .debug_line    0x0002b4b5      0x4aa ./source/autobaud/autobaud_irq.o
 .debug_line    0x0002b95f     0x1526 ./drivers/fsl_clock.o
 .debug_line    0x0002ce85      0x502 ./drivers/fsl_gpio.o
 .debug_line    0x0002d387     0x27d8 ./drivers/fsl_lpspi.o
 .debug_line    0x0002fb5f     0x1ee4 ./drivers/fsl_lpuart.o
 .debug_line    0x00031a43      0x223 ./device/system_MIMXRT1052.o
 .debug_line    0x00031c66      0xd9b ./component/osa/fsl_os_abstraction_bm.o
 .debug_line    0x00032a01      0x332 ./board/pin_mux.o
 .debug_line    0x00032d33      0xaec ./MIMXRT1052/bl_clock_config_MIMXRT1052.o
 .debug_line    0x0003381f      0x2c3 ./MIMXRT1052/bl_lpuart_irq_config_MIMXRT1052.o
 .debug_line    0x00033ae2      0x42a ./MIMXRT1052/bl_peripherals_MIMXRT1052.o
 .debug_line    0x00033f0c      0x393 ./MIMXRT1052/external_memory_property_map_MIMXRT1052.o
 .debug_line    0x0003429f      0x64e ./MIMXRT1052/flexspi_nand_config_MIMXRT1052.o
 .debug_line    0x000348ed     0x10b1 ./MIMXRT1052/hardware_init_MIMXRT1052.o
 .debug_line    0x0003599e      0x381 ./MIMXRT1052/memory_map_MIMXRT1052.o
 .debug_line    0x00035d1f      0x721 ./MIMXRT1052/pinmux_utility_imxrt_series.o
 .debug_line    0x00036440      0x786 ./MIMXRT1052/sdmmc_config_MIMXRT1052.o
 .debug_line    0x00036bc6      0x763 ./MIMXRT1052/semc_nand_config_MIMXRT1052.o
 .debug_line    0x00037329      0x59a ./MIMXRT1052/semc_nor_config_MIMXRT1052.o

.debug_str      0x00000000    0x25be1
 .debug_str     0x00000000     0x1fbc ./usb/device/source/ehci/usb_device_ehci.o
                               0x2092 (size before relaxing)
 .debug_str     0x00001fbc     0x11aa ./usb/device/source/usb_device_ch9.o
                               0x22cb (size before relaxing)
 .debug_str     0x00003166      0x1ce ./usb/device/source/usb_device_dci.o
                               0x1edc (size before relaxing)
 .debug_str     0x00003334      0x446 ./usb/device/class/hid/usb_device_hid.o
                               0x1a11 (size before relaxing)
 .debug_str     0x0000377a      0x214 ./usb/device/class/usb_device_class.o
                               0x1b6f (size before relaxing)
 .debug_str     0x0000398e       0x24 ./startup/crt0_gcc.o
                                 0x7a (size before relaxing)
 .debug_str     0x000039b2      0x2a1 ./startup/startup.o
                                0x46d (size before relaxing)
 .debug_str     0x00003c53       0x20 ./startup/startup_MIMXRT1052.o
                                 0x84 (size before relaxing)
 .debug_str     0x00003c73       0xbb ./source/utilities/src/debug_util.o
                                0x2b0 (size before relaxing)
 .debug_str     0x00003d2e      0x24b ./source/utilities/src/fsl_rtos_abstraction.o
                                0xe66 (size before relaxing)
 .debug_str     0x00003f79      0x1de ./source/usb/bm_composite/composite.o
                               0x1421 (size before relaxing)
 .debug_str     0x00004157      0x2ed ./source/usb/bm_composite/hid_bootloader.o
                               0x1490 (size before relaxing)
 .debug_str     0x00004444      0x570 ./source/usb/bm_composite/usb_descriptor.o
                               0x1acc (size before relaxing)
 .debug_str     0x000049b4     0x1b3a ./source/sbloader/src/sbloader.o
                               0x2c65 (size before relaxing)
 .debug_str     0x000064ee      0xa34 ./source/property/src/property_imx.o
                               0x2c8c (size before relaxing)
 .debug_str     0x00006f22      0x4db ./source/packet/src/serial_packet.o
                               0x25a4 (size before relaxing)
 .debug_str     0x000073fd     0x14af ./source/memory/src/flexspi_nor_memory.o
                               0x35f4 (size before relaxing)
 .debug_str     0x000088ac       0xe3 ./source/memory/src/memory.o
                               0x2180 (size before relaxing)
 .debug_str     0x0000898f     0x2543 ./source/memory/src/mmc_memory.o
                               0x4190 (size before relaxing)
 .debug_str     0x0000aed2       0xc2 ./source/memory/src/normal_memory.o
                                0xea8 (size before relaxing)
 .debug_str     0x0000af94       0x28 ./source/memory/src/pattern_fill_gcc.o
                                 0x8c (size before relaxing)
 .debug_str     0x0000afbc      0x25e ./source/memory/src/sd_memory.o
                               0x3c36 (size before relaxing)
 .debug_str     0x0000b21a     0x1695 ./source/memory/src/semc_nand_memory.o
                               0x31ac (size before relaxing)
 .debug_str     0x0000c8af      0xb54 ./source/memory/src/semc_nor_memory.o
                               0x2afe (size before relaxing)
 .debug_str     0x0000d403     0x17bd ./source/memory/src/spi_nor_eeprom_memory.o
                               0x31ab (size before relaxing)
 .debug_str     0x0000ebc0      0xc70 ./source/memory/src/spinand_memory.o
                               0x2ccf (size before relaxing)
 .debug_str     0x0000f830     0x260f ./source/drivers/usdhc/bl_usdhc.o
                               0x3ae5 (size before relaxing)
 .debug_str     0x00011e3f      0x643 ./source/drivers/trng/bl_trng.o
                               0x115d (size before relaxing)
 .debug_str     0x00012482      0x58f ./source/drivers/serial_nor_eeprom/serial_nor_eeprom.o
                               0x19c5 (size before relaxing)
 .debug_str     0x00012a11      0xc67 ./source/drivers/semc_nor/semc_nor_flash.o
                               0x270b (size before relaxing)
 .debug_str     0x00013678     0x1bc6 ./source/drivers/semc_nand/semc_nand_flash.o
                               0x3cea (size before relaxing)
 .debug_str     0x0001523e      0x792 ./source/drivers/semc/bl_semc.o
                               0x1e42 (size before relaxing)
 .debug_str     0x000159d0     0x1cf6 ./source/drivers/sdmmc/fsl_mmc.o
                               0x46a5 (size before relaxing)
 .debug_str     0x000176c6      0xa58 ./source/drivers/sdmmc/fsl_sd.o
                               0x2f05 (size before relaxing)
 .debug_str     0x0001811e       0xd3 ./source/drivers/sdmmc/fsl_sdmmc_common.o
                               0x2148 (size before relaxing)
 .debug_str     0x000181f1      0x11c ./source/drivers/sdmmc/fsl_sdmmc_host.o
                               0x1afa (size before relaxing)
 .debug_str     0x0001830d      0x1a0 ./source/drivers/ocotp/bl_ocotp.o
                               0x12f8 (size before relaxing)
 .debug_str     0x000184ad      0x231 ./source/drivers/nand_ecc/nand_ecc.o
                                0xedb (size before relaxing)
 .debug_str     0x000186de      0x153 ./source/drivers/microseconds/microseconds_pit.o
                               0x14e4 (size before relaxing)
 .debug_str     0x00018831     0x205b ./source/drivers/flexspi_nor/flexspi_nor_flash.o
                               0x2e7c (size before relaxing)
 .debug_str     0x0001a88c      0x43c ./source/drivers/flexspi_nand/flexspi_nand_flash.o
                               0x111a (size before relaxing)
 .debug_str     0x0001acc8      0x844 ./source/drivers/flexspi/bl_flexspi.o
                               0x153c (size before relaxing)
 .debug_str     0x0001b50c      0x466 ./source/drivers/dcp/bl_dcp.o
                                0x8f0 (size before relaxing)
 .debug_str     0x0001b972       0x22 ./source/crc/crc16.o
                                0x29c (size before relaxing)
 .debug_str     0x0001b994       0x2f ./source/crc/crc32.o
                                0xc6b (size before relaxing)
 .debug_str     0x0001b9c3      0xa16 ./source/bootloader/src/bl_command.o
                               0x34bf (size before relaxing)
 .debug_str     0x0001c3d9       0x34 ./source/bootloader/src/bl_context.o
                               0x1e0b (size before relaxing)
 .debug_str     0x0001c40d       0x68 ./source/bootloader/src/bl_exception_handler.o
                                0xcfb (size before relaxing)
 .debug_str     0x0001c475       0x79 ./source/bootloader/src/bl_keyblob.o
                               0x160f (size before relaxing)
 .debug_str     0x0001c4ee      0x127 ./source/bootloader/src/bl_keyblob_dcp.o
                                0x88d (size before relaxing)
 .debug_str     0x0001c615      0x217 ./source/bootloader/src/bl_main.o
                               0x12f1 (size before relaxing)
 .debug_str     0x0001c82c      0x39c ./source/bootloader/src/bl_nor_encrypt_bee.o
                               0x1d5e (size before relaxing)
 .debug_str     0x0001cbc8       0x4f ./source/bootloader/src/bl_shutdown_cleanup.o
                                0x75b (size before relaxing)
 .debug_str     0x0001cc17      0xa55 ./source/bootloader/src/lpuart_peripheral_interface.o
                               0x2252 (size before relaxing)
 .debug_str     0x0001d66c      0x39b ./source/bootloader/src/usb_hid_msc_peripheral_interface.o
                               0x48c3 (size before relaxing)
 .debug_str     0x0001da07      0x254 ./source/autobaud/autobaud_irq.o
                                0xea8 (size before relaxing)
 .debug_str     0x0001dc5b     0x13ed ./drivers/fsl_clock.o
                               0x2651 (size before relaxing)
 .debug_str     0x0001f048      0x214 ./drivers/fsl_gpio.o
                               0x1567 (size before relaxing)
 .debug_str     0x0001f25c      0xc33 ./drivers/fsl_lpspi.o
                               0x2fc1 (size before relaxing)
 .debug_str     0x0001fe8f      0x824 ./drivers/fsl_lpuart.o
                               0x2f5b (size before relaxing)
 .debug_str     0x000206b3       0x87 ./device/system_MIMXRT1052.o
                                0x3b9 (size before relaxing)
 .debug_str     0x0002073a      0x531 ./component/osa/fsl_os_abstraction_bm.o
                               0x1225 (size before relaxing)
 .debug_str     0x00020c6b       0x6f ./board/pin_mux.o
                                0x44c (size before relaxing)
 .debug_str     0x00020cda      0x408 ./MIMXRT1052/bl_clock_config_MIMXRT1052.o
                               0x10a5 (size before relaxing)
 .debug_str     0x000210e2       0x4b ./MIMXRT1052/bl_lpuart_irq_config_MIMXRT1052.o
                                0xc1b (size before relaxing)
 .debug_str     0x0002112d       0x2a ./MIMXRT1052/bl_peripherals_MIMXRT1052.o
                               0x178c (size before relaxing)
 .debug_str     0x00021157       0x38 ./MIMXRT1052/external_memory_property_map_MIMXRT1052.o
                               0x146f (size before relaxing)
 .debug_str     0x0002118f      0x308 ./MIMXRT1052/flexspi_nand_config_MIMXRT1052.o
                               0x16e0 (size before relaxing)
 .debug_str     0x00021497     0x39b4 ./MIMXRT1052/hardware_init_MIMXRT1052.o
                               0x534c (size before relaxing)
 .debug_str     0x00024e4b       0x26 ./MIMXRT1052/memory_map_MIMXRT1052.o
                               0x16bf (size before relaxing)
 .debug_str     0x00024e71      0x106 ./MIMXRT1052/pinmux_utility_imxrt_series.o
                               0x210c (size before relaxing)
 .debug_str     0x00024f77       0x61 ./MIMXRT1052/sdmmc_config_MIMXRT1052.o
                               0x2839 (size before relaxing)
 .debug_str     0x00024fd8      0x7d5 ./MIMXRT1052/semc_nand_config_MIMXRT1052.o
                               0x1ce8 (size before relaxing)
 .debug_str     0x000257ad      0x434 ./MIMXRT1052/semc_nor_config_MIMXRT1052.o
                               0x12d3 (size before relaxing)

.comment        0x00000000       0x49
 .comment       0x00000000       0x49 ./usb/device/source/ehci/usb_device_ehci.o
                                 0x4a (size before relaxing)
 .comment       0x00000049       0x4a ./usb/device/source/usb_device_ch9.o
 .comment       0x00000049       0x4a ./usb/device/source/usb_device_dci.o
 .comment       0x00000049       0x4a ./usb/device/class/hid/usb_device_hid.o
 .comment       0x00000049       0x4a ./usb/device/class/usb_device_class.o
 .comment       0x00000049       0x4a ./startup/startup.o
 .comment       0x00000049       0x4a ./source/utilities/src/debug_util.o
 .comment       0x00000049       0x4a ./source/utilities/src/fsl_rtos_abstraction.o
 .comment       0x00000049       0x4a ./source/usb/bm_composite/composite.o
 .comment       0x00000049       0x4a ./source/usb/bm_composite/hid_bootloader.o
 .comment       0x00000049       0x4a ./source/usb/bm_composite/usb_descriptor.o
 .comment       0x00000049       0x4a ./source/sbloader/src/sbloader.o
 .comment       0x00000049       0x4a ./source/property/src/property_imx.o
 .comment       0x00000049       0x4a ./source/packet/src/serial_packet.o
 .comment       0x00000049       0x4a ./source/memory/src/flexspi_nor_memory.o
 .comment       0x00000049       0x4a ./source/memory/src/memory.o
 .comment       0x00000049       0x4a ./source/memory/src/mmc_memory.o
 .comment       0x00000049       0x4a ./source/memory/src/normal_memory.o
 .comment       0x00000049       0x4a ./source/memory/src/sd_memory.o
 .comment       0x00000049       0x4a ./source/memory/src/semc_nand_memory.o
 .comment       0x00000049       0x4a ./source/memory/src/semc_nor_memory.o
 .comment       0x00000049       0x4a ./source/memory/src/spi_nor_eeprom_memory.o
 .comment       0x00000049       0x4a ./source/memory/src/spinand_memory.o
 .comment       0x00000049       0x4a ./source/drivers/usdhc/bl_usdhc.o
 .comment       0x00000049       0x4a ./source/drivers/trng/bl_trng.o
 .comment       0x00000049       0x4a ./source/drivers/serial_nor_eeprom/serial_nor_eeprom.o
 .comment       0x00000049       0x4a ./source/drivers/semc_nor/semc_nor_flash.o
 .comment       0x00000049       0x4a ./source/drivers/semc_nand/semc_nand_flash.o
 .comment       0x00000049       0x4a ./source/drivers/semc/bl_semc.o
 .comment       0x00000049       0x4a ./source/drivers/sdmmc/fsl_mmc.o
 .comment       0x00000049       0x4a ./source/drivers/sdmmc/fsl_sd.o
 .comment       0x00000049       0x4a ./source/drivers/sdmmc/fsl_sdmmc_common.o
 .comment       0x00000049       0x4a ./source/drivers/sdmmc/fsl_sdmmc_host.o
 .comment       0x00000049       0x4a ./source/drivers/ocotp/bl_ocotp.o
 .comment       0x00000049       0x4a ./source/drivers/nand_ecc/nand_ecc.o
 .comment       0x00000049       0x4a ./source/drivers/microseconds/microseconds_pit.o
 .comment       0x00000049       0x4a ./source/drivers/flexspi_nor/flexspi_nor_flash.o
 .comment       0x00000049       0x4a ./source/drivers/flexspi_nand/flexspi_nand_flash.o
 .comment       0x00000049       0x4a ./source/drivers/flexspi/bl_flexspi.o
 .comment       0x00000049       0x4a ./source/drivers/dcp/bl_dcp.o
 .comment       0x00000049       0x4a ./source/crc/crc16.o
 .comment       0x00000049       0x4a ./source/crc/crc32.o
 .comment       0x00000049       0x4a ./source/bootloader/src/bl_command.o
 .comment       0x00000049       0x4a ./source/bootloader/src/bl_context.o
 .comment       0x00000049       0x4a ./source/bootloader/src/bl_exception_handler.o
 .comment       0x00000049       0x4a ./source/bootloader/src/bl_keyblob.o
 .comment       0x00000049       0x4a ./source/bootloader/src/bl_keyblob_dcp.o
 .comment       0x00000049       0x4a ./source/bootloader/src/bl_main.o
 .comment       0x00000049       0x4a ./source/bootloader/src/bl_nor_encrypt_bee.o
 .comment       0x00000049       0x4a ./source/bootloader/src/bl_shutdown_cleanup.o
 .comment       0x00000049       0x4a ./source/bootloader/src/lpuart_peripheral_interface.o
 .comment       0x00000049       0x4a ./source/bootloader/src/usb_hid_msc_peripheral_interface.o
 .comment       0x00000049       0x4a ./source/autobaud/autobaud_irq.o
 .comment       0x00000049       0x4a ./drivers/fsl_clock.o
 .comment       0x00000049       0x4a ./drivers/fsl_gpio.o
 .comment       0x00000049       0x4a ./drivers/fsl_lpspi.o
 .comment       0x00000049       0x4a ./drivers/fsl_lpuart.o
 .comment       0x00000049       0x4a ./device/system_MIMXRT1052.o
 .comment       0x00000049       0x4a ./component/osa/fsl_os_abstraction_bm.o
 .comment       0x00000049       0x4a ./board/pin_mux.o
 .comment       0x00000049       0x4a ./MIMXRT1052/bl_clock_config_MIMXRT1052.o
 .comment       0x00000049       0x4a ./MIMXRT1052/bl_lpuart_irq_config_MIMXRT1052.o
 .comment       0x00000049       0x4a ./MIMXRT1052/bl_peripherals_MIMXRT1052.o
 .comment       0x00000049       0x4a ./MIMXRT1052/external_memory_property_map_MIMXRT1052.o
 .comment       0x00000049       0x4a ./MIMXRT1052/flexspi_nand_config_MIMXRT1052.o
 .comment       0x00000049       0x4a ./MIMXRT1052/hardware_init_MIMXRT1052.o
 .comment       0x00000049       0x4a ./MIMXRT1052/memory_map_MIMXRT1052.o
 .comment       0x00000049       0x4a ./MIMXRT1052/pinmux_utility_imxrt_series.o
 .comment       0x00000049       0x4a ./MIMXRT1052/sdmmc_config_MIMXRT1052.o
 .comment       0x00000049       0x4a ./MIMXRT1052/semc_nand_config_MIMXRT1052.o
 .comment       0x00000049       0x4a ./MIMXRT1052/semc_nor_config_MIMXRT1052.o
 .comment       0x00000049       0x4a c:/nxp/mcuxpressoide_11.6.1_8255/ide/plugins/com.nxp.mcuxpresso.tools.win32_11.6.1.202207200623/tools/bin/../lib/gcc/arm-none-eabi/10.3.1/../../../../arm-none-eabi/lib/thumb/v7e-m+dp/hard\libcr_newlib_none.a(_cr_sbrk.o)
 .comment       0x00000049       0x4a c:/nxp/mcuxpressoide_11.6.1_8255/ide/plugins/com.nxp.mcuxpresso.tools.win32_11.6.1.202207200623/tools/bin/../lib/gcc/arm-none-eabi/10.3.1/../../../../arm-none-eabi/lib/thumb/v7e-m+dp/hard\libcr_newlib_none.a(_cr_check_heap.o)

.debug_frame    0x00000000     0x6864
 .debug_frame   0x00000000      0x198 ./usb/device/source/ehci/usb_device_ehci.o
 .debug_frame   0x00000198      0x1dc ./usb/device/source/usb_device_ch9.o
 .debug_frame   0x00000374      0x1c0 ./usb/device/source/usb_device_dci.o
 .debug_frame   0x00000534      0x11c ./usb/device/class/hid/usb_device_hid.o
 .debug_frame   0x00000650      0x144 ./usb/device/class/usb_device_class.o
 .debug_frame   0x00000794       0x30 ./startup/startup.o
 .debug_frame   0x000007c4       0x50 ./source/utilities/src/debug_util.o
 .debug_frame   0x00000814      0x11c ./source/utilities/src/fsl_rtos_abstraction.o
 .debug_frame   0x00000930       0x74 ./source/usb/bm_composite/hid_bootloader.o
 .debug_frame   0x000009a4       0x94 ./source/usb/bm_composite/usb_descriptor.o
 .debug_frame   0x00000a38      0x27c ./source/sbloader/src/sbloader.o
 .debug_frame   0x00000cb4       0xb4 ./source/property/src/property_imx.o
 .debug_frame   0x00000d68      0x18c ./source/packet/src/serial_packet.o
 .debug_frame   0x00000ef4      0x1ac ./source/memory/src/flexspi_nor_memory.o
 .debug_frame   0x000010a0      0x1ac ./source/memory/src/memory.o
 .debug_frame   0x0000124c      0x18c ./source/memory/src/mmc_memory.o
 .debug_frame   0x000013d8       0x6c ./source/memory/src/normal_memory.o
 .debug_frame   0x00001444      0x15c ./source/memory/src/sd_memory.o
 .debug_frame   0x000015a0      0x2ac ./source/memory/src/semc_nand_memory.o
 .debug_frame   0x0000184c      0x138 ./source/memory/src/semc_nor_memory.o
 .debug_frame   0x00001984      0x140 ./source/memory/src/spi_nor_eeprom_memory.o
 .debug_frame   0x00001ac4      0x2a0 ./source/memory/src/spinand_memory.o
 .debug_frame   0x00001d64      0x31c ./source/drivers/usdhc/bl_usdhc.o
 .debug_frame   0x00002080       0xa8 ./source/drivers/trng/bl_trng.o
 .debug_frame   0x00002128      0x160 ./source/drivers/serial_nor_eeprom/serial_nor_eeprom.o
 .debug_frame   0x00002288      0x1b8 ./source/drivers/semc_nor/semc_nor_flash.o
 .debug_frame   0x00002440      0x2cc ./source/drivers/semc_nand/semc_nand_flash.o
 .debug_frame   0x0000270c      0x1b4 ./source/drivers/semc/bl_semc.o
 .debug_frame   0x000028c0      0x56c ./source/drivers/sdmmc/fsl_mmc.o
 .debug_frame   0x00002e2c      0x41c ./source/drivers/sdmmc/fsl_sd.o
 .debug_frame   0x00003248      0x154 ./source/drivers/sdmmc/fsl_sdmmc_common.o
 .debug_frame   0x0000339c      0x118 ./source/drivers/sdmmc/fsl_sdmmc_host.o
 .debug_frame   0x000034b4       0xa0 ./source/drivers/ocotp/bl_ocotp.o
 .debug_frame   0x00003554       0x78 ./source/drivers/nand_ecc/nand_ecc.o
 .debug_frame   0x000035cc       0xcc ./source/drivers/microseconds/microseconds_pit.o
 .debug_frame   0x00003698      0x2d8 ./source/drivers/flexspi_nor/flexspi_nor_flash.o
 .debug_frame   0x00003970      0x148 ./source/drivers/flexspi_nand/flexspi_nand_flash.o
 .debug_frame   0x00003ab8      0x258 ./source/drivers/flexspi/bl_flexspi.o
 .debug_frame   0x00003d10      0x1e4 ./source/drivers/dcp/bl_dcp.o
 .debug_frame   0x00003ef4       0x90 ./source/crc/crc16.o
 .debug_frame   0x00003f84       0x58 ./source/crc/crc32.o
 .debug_frame   0x00003fdc      0x3a8 ./source/bootloader/src/bl_command.o
 .debug_frame   0x00004384       0x20 ./source/bootloader/src/bl_exception_handler.o
 .debug_frame   0x000043a4       0x50 ./source/bootloader/src/bl_keyblob.o
 .debug_frame   0x000043f4       0x3c ./source/bootloader/src/bl_keyblob_dcp.o
 .debug_frame   0x00004430       0xa4 ./source/bootloader/src/bl_main.o
 .debug_frame   0x000044d4      0x10c ./source/bootloader/src/bl_nor_encrypt_bee.o
 .debug_frame   0x000045e0       0x2c ./source/bootloader/src/bl_shutdown_cleanup.o
 .debug_frame   0x0000460c       0xac ./source/bootloader/src/lpuart_peripheral_interface.o
 .debug_frame   0x000046b8      0x178 ./source/bootloader/src/usb_hid_msc_peripheral_interface.o
 .debug_frame   0x00004830       0x80 ./source/autobaud/autobaud_irq.o
 .debug_frame   0x000048b0      0x3e8 ./drivers/fsl_clock.o
 .debug_frame   0x00004c98       0x68 ./drivers/fsl_gpio.o
 .debug_frame   0x00004d00      0x434 ./drivers/fsl_lpspi.o
 .debug_frame   0x00005134      0x3b8 ./drivers/fsl_lpuart.o
 .debug_frame   0x000054ec       0x50 ./device/system_MIMXRT1052.o
 .debug_frame   0x0000553c      0x310 ./component/osa/fsl_os_abstraction_bm.o
 .debug_frame   0x0000584c       0x58 ./board/pin_mux.o
 .debug_frame   0x000058a4      0x148 ./MIMXRT1052/bl_clock_config_MIMXRT1052.o
 .debug_frame   0x000059ec       0x20 ./MIMXRT1052/bl_lpuart_irq_config_MIMXRT1052.o
 .debug_frame   0x00005a0c       0x4c ./MIMXRT1052/flexspi_nand_config_MIMXRT1052.o
 .debug_frame   0x00005a58      0x17c ./MIMXRT1052/hardware_init_MIMXRT1052.o
 .debug_frame   0x00005bd4       0x68 ./MIMXRT1052/pinmux_utility_imxrt_series.o
 .debug_frame   0x00005c3c       0x6c ./MIMXRT1052/sdmmc_config_MIMXRT1052.o
 .debug_frame   0x00005ca8       0x54 ./MIMXRT1052/semc_nand_config_MIMXRT1052.o
 .debug_frame   0x00005cfc       0x3c ./MIMXRT1052/semc_nor_config_MIMXRT1052.o
 .debug_frame   0x00005d38       0x2c c:/nxp/mcuxpressoide_11.6.1_8255/ide/plugins/com.nxp.mcuxpresso.tools.win32_11.6.1.202207200623/tools/bin/../lib/gcc/arm-none-eabi/10.3.1/thumb/v7e-m+dp/hard\libgcc.a(_aeabi_uldivmod.o)
 .debug_frame   0x00005d64       0x34 c:/nxp/mcuxpressoide_11.6.1_8255/ide/plugins/com.nxp.mcuxpresso.tools.win32_11.6.1.202207200623/tools/bin/../lib/gcc/arm-none-eabi/10.3.1/thumb/v7e-m+dp/hard\libgcc.a(_udivmoddi4.o)
 .debug_frame   0x00005d98       0x40 c:/nxp/mcuxpressoide_11.6.1_8255/ide/plugins/com.nxp.mcuxpresso.tools.win32_11.6.1.202207200623/tools/bin/../lib/gcc/arm-none-eabi/10.3.1/../../../../arm-none-eabi/lib/thumb/v7e-m+dp/hard\libc_nano.a(lib_a-assert.o)
 .debug_frame   0x00005dd8       0x64 c:/nxp/mcuxpressoide_11.6.1_8255/ide/plugins/com.nxp.mcuxpresso.tools.win32_11.6.1.202207200623/tools/bin/../lib/gcc/arm-none-eabi/10.3.1/../../../../arm-none-eabi/lib/thumb/v7e-m+dp/hard\libc_nano.a(lib_a-fprintf.o)
 .debug_frame   0x00005e3c       0x28 c:/nxp/mcuxpressoide_11.6.1_8255/ide/plugins/com.nxp.mcuxpresso.tools.win32_11.6.1.202207200623/tools/bin/../lib/gcc/arm-none-eabi/10.3.1/../../../../arm-none-eabi/lib/thumb/v7e-m+dp/hard\libc_nano.a(lib_a-memcmp.o)
 .debug_frame   0x00005e64       0x28 c:/nxp/mcuxpressoide_11.6.1_8255/ide/plugins/com.nxp.mcuxpresso.tools.win32_11.6.1.202207200623/tools/bin/../lib/gcc/arm-none-eabi/10.3.1/../../../../arm-none-eabi/lib/thumb/v7e-m+dp/hard\libc_nano.a(lib_a-memcpy-stub.o)
 .debug_frame   0x00005e8c       0x20 c:/nxp/mcuxpressoide_11.6.1_8255/ide/plugins/com.nxp.mcuxpresso.tools.win32_11.6.1.202207200623/tools/bin/../lib/gcc/arm-none-eabi/10.3.1/../../../../arm-none-eabi/lib/thumb/v7e-m+dp/hard\libc_nano.a(lib_a-memset.o)
 .debug_frame   0x00005eac       0x38 c:/nxp/mcuxpressoide_11.6.1_8255/ide/plugins/com.nxp.mcuxpresso.tools.win32_11.6.1.202207200623/tools/bin/../lib/gcc/arm-none-eabi/10.3.1/../../../../arm-none-eabi/lib/thumb/v7e-m+dp/hard\libc_nano.a(lib_a-nano-freer.o)
 .debug_frame   0x00005ee4       0x4c c:/nxp/mcuxpressoide_11.6.1_8255/ide/plugins/com.nxp.mcuxpresso.tools.win32_11.6.1.202207200623/tools/bin/../lib/gcc/arm-none-eabi/10.3.1/../../../../arm-none-eabi/lib/thumb/v7e-m+dp/hard\libc_nano.a(lib_a-nano-mallocr.o)
 .debug_frame   0x00005f30       0xac c:/nxp/mcuxpressoide_11.6.1_8255/ide/plugins/com.nxp.mcuxpresso.tools.win32_11.6.1.202207200623/tools/bin/../lib/gcc/arm-none-eabi/10.3.1/../../../../arm-none-eabi/lib/thumb/v7e-m+dp/hard\libc_nano.a(lib_a-nano-vfprintf.o)
 .debug_frame   0x00005fdc       0x60 c:/nxp/mcuxpressoide_11.6.1_8255/ide/plugins/com.nxp.mcuxpresso.tools.win32_11.6.1.202207200623/tools/bin/../lib/gcc/arm-none-eabi/10.3.1/../../../../arm-none-eabi/lib/thumb/v7e-m+dp/hard\libc_nano.a(lib_a-nano-vfprintf_i.o)
 .debug_frame   0x0000603c       0x2c c:/nxp/mcuxpressoide_11.6.1_8255/ide/plugins/com.nxp.mcuxpresso.tools.win32_11.6.1.202207200623/tools/bin/../lib/gcc/arm-none-eabi/10.3.1/../../../../arm-none-eabi/lib/thumb/v7e-m+dp/hard\libc_nano.a(lib_a-sbrkr.o)
 .debug_frame   0x00006068       0x40 c:/nxp/mcuxpressoide_11.6.1_8255/ide/plugins/com.nxp.mcuxpresso.tools.win32_11.6.1.202207200623/tools/bin/../lib/gcc/arm-none-eabi/10.3.1/../../../../arm-none-eabi/lib/thumb/v7e-m+dp/hard\libc_nano.a(lib_a-wbuf.o)
 .debug_frame   0x000060a8       0x2c c:/nxp/mcuxpressoide_11.6.1_8255/ide/plugins/com.nxp.mcuxpresso.tools.win32_11.6.1.202207200623/tools/bin/../lib/gcc/arm-none-eabi/10.3.1/../../../../arm-none-eabi/lib/thumb/v7e-m+dp/hard\libc_nano.a(lib_a-wsetup.o)
 .debug_frame   0x000060d4       0x28 c:/nxp/mcuxpressoide_11.6.1_8255/ide/plugins/com.nxp.mcuxpresso.tools.win32_11.6.1.202207200623/tools/bin/../lib/gcc/arm-none-eabi/10.3.1/../../../../arm-none-eabi/lib/thumb/v7e-m+dp/hard\libc_nano.a(lib_a-abort.o)
 .debug_frame   0x000060fc       0x5c c:/nxp/mcuxpressoide_11.6.1_8255/ide/plugins/com.nxp.mcuxpresso.tools.win32_11.6.1.202207200623/tools/bin/../lib/gcc/arm-none-eabi/10.3.1/../../../../arm-none-eabi/lib/thumb/v7e-m+dp/hard\libc_nano.a(lib_a-fflush.o)
 .debug_frame   0x00006158      0x14c c:/nxp/mcuxpressoide_11.6.1_8255/ide/plugins/com.nxp.mcuxpresso.tools.win32_11.6.1.202207200623/tools/bin/../lib/gcc/arm-none-eabi/10.3.1/../../../../arm-none-eabi/lib/thumb/v7e-m+dp/hard\libc_nano.a(lib_a-findfp.o)
 .debug_frame   0x000062a4       0x54 c:/nxp/mcuxpressoide_11.6.1_8255/ide/plugins/com.nxp.mcuxpresso.tools.win32_11.6.1.202207200623/tools/bin/../lib/gcc/arm-none-eabi/10.3.1/../../../../arm-none-eabi/lib/thumb/v7e-m+dp/hard\libc_nano.a(lib_a-fwalk.o)
 .debug_frame   0x000062f8       0xb0 c:/nxp/mcuxpressoide_11.6.1_8255/ide/plugins/com.nxp.mcuxpresso.tools.win32_11.6.1.202207200623/tools/bin/../lib/gcc/arm-none-eabi/10.3.1/../../../../arm-none-eabi/lib/thumb/v7e-m+dp/hard\libc_nano.a(lib_a-lock.o)
 .debug_frame   0x000063a8       0x58 c:/nxp/mcuxpressoide_11.6.1_8255/ide/plugins/com.nxp.mcuxpresso.tools.win32_11.6.1.202207200623/tools/bin/../lib/gcc/arm-none-eabi/10.3.1/../../../../arm-none-eabi/lib/thumb/v7e-m+dp/hard\libc_nano.a(lib_a-makebuf.o)
 .debug_frame   0x00006400       0x30 c:/nxp/mcuxpressoide_11.6.1_8255/ide/plugins/com.nxp.mcuxpresso.tools.win32_11.6.1.202207200623/tools/bin/../lib/gcc/arm-none-eabi/10.3.1/../../../../arm-none-eabi/lib/thumb/v7e-m+dp/hard\libc_nano.a(lib_a-mlock.o)
 .debug_frame   0x00006430       0x5c c:/nxp/mcuxpressoide_11.6.1_8255/ide/plugins/com.nxp.mcuxpresso.tools.win32_11.6.1.202207200623/tools/bin/../lib/gcc/arm-none-eabi/10.3.1/../../../../arm-none-eabi/lib/thumb/v7e-m+dp/hard\libc_nano.a(lib_a-reent.o)
 .debug_frame   0x0000648c       0xcc c:/nxp/mcuxpressoide_11.6.1_8255/ide/plugins/com.nxp.mcuxpresso.tools.win32_11.6.1.202207200623/tools/bin/../lib/gcc/arm-none-eabi/10.3.1/../../../../arm-none-eabi/lib/thumb/v7e-m+dp/hard\libc_nano.a(lib_a-signal.o)
 .debug_frame   0x00006558       0x3c c:/nxp/mcuxpressoide_11.6.1_8255/ide/plugins/com.nxp.mcuxpresso.tools.win32_11.6.1.202207200623/tools/bin/../lib/gcc/arm-none-eabi/10.3.1/../../../../arm-none-eabi/lib/thumb/v7e-m+dp/hard\libc_nano.a(lib_a-signalr.o)
 .debug_frame   0x00006594       0x88 c:/nxp/mcuxpressoide_11.6.1_8255/ide/plugins/com.nxp.mcuxpresso.tools.win32_11.6.1.202207200623/tools/bin/../lib/gcc/arm-none-eabi/10.3.1/../../../../arm-none-eabi/lib/thumb/v7e-m+dp/hard\libc_nano.a(lib_a-stdio.o)
 .debug_frame   0x0000661c       0x2c c:/nxp/mcuxpressoide_11.6.1_8255/ide/plugins/com.nxp.mcuxpresso.tools.win32_11.6.1.202207200623/tools/bin/../lib/gcc/arm-none-eabi/10.3.1/../../../../arm-none-eabi/lib/thumb/v7e-m+dp/hard\libc_nano.a(lib_a-writer.o)
 .debug_frame   0x00006648       0x2c c:/nxp/mcuxpressoide_11.6.1_8255/ide/plugins/com.nxp.mcuxpresso.tools.win32_11.6.1.202207200623/tools/bin/../lib/gcc/arm-none-eabi/10.3.1/../../../../arm-none-eabi/lib/thumb/v7e-m+dp/hard\libc_nano.a(lib_a-closer.o)
 .debug_frame   0x00006674       0x2c c:/nxp/mcuxpressoide_11.6.1_8255/ide/plugins/com.nxp.mcuxpresso.tools.win32_11.6.1.202207200623/tools/bin/../lib/gcc/arm-none-eabi/10.3.1/../../../../arm-none-eabi/lib/thumb/v7e-m+dp/hard\libc_nano.a(lib_a-fstatr.o)
 .debug_frame   0x000066a0       0x2c c:/nxp/mcuxpressoide_11.6.1_8255/ide/plugins/com.nxp.mcuxpresso.tools.win32_11.6.1.202207200623/tools/bin/../lib/gcc/arm-none-eabi/10.3.1/../../../../arm-none-eabi/lib/thumb/v7e-m+dp/hard\libc_nano.a(lib_a-isattyr.o)
 .debug_frame   0x000066cc       0x2c c:/nxp/mcuxpressoide_11.6.1_8255/ide/plugins/com.nxp.mcuxpresso.tools.win32_11.6.1.202207200623/tools/bin/../lib/gcc/arm-none-eabi/10.3.1/../../../../arm-none-eabi/lib/thumb/v7e-m+dp/hard\libc_nano.a(lib_a-lseekr.o)
 .debug_frame   0x000066f8       0x2c c:/nxp/mcuxpressoide_11.6.1_8255/ide/plugins/com.nxp.mcuxpresso.tools.win32_11.6.1.202207200623/tools/bin/../lib/gcc/arm-none-eabi/10.3.1/../../../../arm-none-eabi/lib/thumb/v7e-m+dp/hard\libc_nano.a(lib_a-readr.o)
 .debug_frame   0x00006724       0x20 c:/nxp/mcuxpressoide_11.6.1_8255/ide/plugins/com.nxp.mcuxpresso.tools.win32_11.6.1.202207200623/tools/bin/../lib/gcc/arm-none-eabi/10.3.1/../../../../arm-none-eabi/lib/thumb/v7e-m+dp/hard\libnosys.a(close.o)
 .debug_frame   0x00006744       0x20 c:/nxp/mcuxpressoide_11.6.1_8255/ide/plugins/com.nxp.mcuxpresso.tools.win32_11.6.1.202207200623/tools/bin/../lib/gcc/arm-none-eabi/10.3.1/../../../../arm-none-eabi/lib/thumb/v7e-m+dp/hard\libnosys.a(fstat.o)
 .debug_frame   0x00006764       0x20 c:/nxp/mcuxpressoide_11.6.1_8255/ide/plugins/com.nxp.mcuxpresso.tools.win32_11.6.1.202207200623/tools/bin/../lib/gcc/arm-none-eabi/10.3.1/../../../../arm-none-eabi/lib/thumb/v7e-m+dp/hard\libnosys.a(getpid.o)
 .debug_frame   0x00006784       0x20 c:/nxp/mcuxpressoide_11.6.1_8255/ide/plugins/com.nxp.mcuxpresso.tools.win32_11.6.1.202207200623/tools/bin/../lib/gcc/arm-none-eabi/10.3.1/../../../../arm-none-eabi/lib/thumb/v7e-m+dp/hard\libnosys.a(isatty.o)
 .debug_frame   0x000067a4       0x20 c:/nxp/mcuxpressoide_11.6.1_8255/ide/plugins/com.nxp.mcuxpresso.tools.win32_11.6.1.202207200623/tools/bin/../lib/gcc/arm-none-eabi/10.3.1/../../../../arm-none-eabi/lib/thumb/v7e-m+dp/hard\libnosys.a(kill.o)
 .debug_frame   0x000067c4       0x20 c:/nxp/mcuxpressoide_11.6.1_8255/ide/plugins/com.nxp.mcuxpresso.tools.win32_11.6.1.202207200623/tools/bin/../lib/gcc/arm-none-eabi/10.3.1/../../../../arm-none-eabi/lib/thumb/v7e-m+dp/hard\libnosys.a(lseek.o)
 .debug_frame   0x000067e4       0x20 c:/nxp/mcuxpressoide_11.6.1_8255/ide/plugins/com.nxp.mcuxpresso.tools.win32_11.6.1.202207200623/tools/bin/../lib/gcc/arm-none-eabi/10.3.1/../../../../arm-none-eabi/lib/thumb/v7e-m+dp/hard\libnosys.a(read.o)
 .debug_frame   0x00006804       0x20 c:/nxp/mcuxpressoide_11.6.1_8255/ide/plugins/com.nxp.mcuxpresso.tools.win32_11.6.1.202207200623/tools/bin/../lib/gcc/arm-none-eabi/10.3.1/../../../../arm-none-eabi/lib/thumb/v7e-m+dp/hard\libnosys.a(write.o)
 .debug_frame   0x00006824       0x20 c:/nxp/mcuxpressoide_11.6.1_8255/ide/plugins/com.nxp.mcuxpresso.tools.win32_11.6.1.202207200623/tools/bin/../lib/gcc/arm-none-eabi/10.3.1/../../../../arm-none-eabi/lib/thumb/v7e-m+dp/hard\libnosys.a(_exit.o)
 .debug_frame   0x00006844       0x20 c:/nxp/mcuxpressoide_11.6.1_8255/ide/plugins/com.nxp.mcuxpresso.tools.win32_11.6.1.202207200623/tools/bin/../lib/gcc/arm-none-eabi/10.3.1/../../../../arm-none-eabi/lib/thumb/v7e-m+dp/hard\libc_nano.a(lib_a-errno.o)

.stab           0x00000000       0xcc
 .stab          0x00000000       0x24 c:/nxp/mcuxpressoide_11.6.1_8255/ide/plugins/com.nxp.mcuxpresso.tools.win32_11.6.1.202207200623/tools/bin/../lib/gcc/arm-none-eabi/10.3.1/../../../../arm-none-eabi/lib/thumb/v7e-m+dp/hard\libnosys.a(close.o)
 .stab          0x00000024       0x18 c:/nxp/mcuxpressoide_11.6.1_8255/ide/plugins/com.nxp.mcuxpresso.tools.win32_11.6.1.202207200623/tools/bin/../lib/gcc/arm-none-eabi/10.3.1/../../../../arm-none-eabi/lib/thumb/v7e-m+dp/hard\libnosys.a(fstat.o)
                                 0x24 (size before relaxing)
 .stab          0x0000003c       0x18 c:/nxp/mcuxpressoide_11.6.1_8255/ide/plugins/com.nxp.mcuxpresso.tools.win32_11.6.1.202207200623/tools/bin/../lib/gcc/arm-none-eabi/10.3.1/../../../../arm-none-eabi/lib/thumb/v7e-m+dp/hard\libnosys.a(getpid.o)
                                 0x24 (size before relaxing)
 .stab          0x00000054       0x18 c:/nxp/mcuxpressoide_11.6.1_8255/ide/plugins/com.nxp.mcuxpresso.tools.win32_11.6.1.202207200623/tools/bin/../lib/gcc/arm-none-eabi/10.3.1/../../../../arm-none-eabi/lib/thumb/v7e-m+dp/hard\libnosys.a(isatty.o)
                                 0x24 (size before relaxing)
 .stab          0x0000006c       0x18 c:/nxp/mcuxpressoide_11.6.1_8255/ide/plugins/com.nxp.mcuxpresso.tools.win32_11.6.1.202207200623/tools/bin/../lib/gcc/arm-none-eabi/10.3.1/../../../../arm-none-eabi/lib/thumb/v7e-m+dp/hard\libnosys.a(kill.o)
                                 0x24 (size before relaxing)
 .stab          0x00000084       0x18 c:/nxp/mcuxpressoide_11.6.1_8255/ide/plugins/com.nxp.mcuxpresso.tools.win32_11.6.1.202207200623/tools/bin/../lib/gcc/arm-none-eabi/10.3.1/../../../../arm-none-eabi/lib/thumb/v7e-m+dp/hard\libnosys.a(lseek.o)
                                 0x24 (size before relaxing)
 .stab          0x0000009c       0x18 c:/nxp/mcuxpressoide_11.6.1_8255/ide/plugins/com.nxp.mcuxpresso.tools.win32_11.6.1.202207200623/tools/bin/../lib/gcc/arm-none-eabi/10.3.1/../../../../arm-none-eabi/lib/thumb/v7e-m+dp/hard\libnosys.a(read.o)
                                 0x24 (size before relaxing)
 .stab          0x000000b4       0x18 c:/nxp/mcuxpressoide_11.6.1_8255/ide/plugins/com.nxp.mcuxpresso.tools.win32_11.6.1.202207200623/tools/bin/../lib/gcc/arm-none-eabi/10.3.1/../../../../arm-none-eabi/lib/thumb/v7e-m+dp/hard\libnosys.a(write.o)
                                 0x24 (size before relaxing)

.stabstr        0x00000000      0x1b9
 .stabstr       0x00000000      0x1b9 c:/nxp/mcuxpressoide_11.6.1_8255/ide/plugins/com.nxp.mcuxpresso.tools.win32_11.6.1.202207200623/tools/bin/../lib/gcc/arm-none-eabi/10.3.1/../../../../arm-none-eabi/lib/thumb/v7e-m+dp/hard\libnosys.a(close.o)

Cross Reference Table

Symbol                                            File
ACMP_IRQ1_IRQHandler                              ./startup/startup_MIMXRT1052.o
ACMP_IRQ2_IRQHandler                              ./startup/startup_MIMXRT1052.o
ACMP_IRQ3_IRQHandler                              ./startup/startup_MIMXRT1052.o
ACMP_IRQ4_IRQHandler                              ./startup/startup_MIMXRT1052.o
ADC1_IRQHandler                                   ./startup/startup_MIMXRT1052.o
ADC_5HC_IRQHandler                                ./startup/startup_MIMXRT1052.o
ADC_ETC_ERROR_IRQ_IRQHandler                      ./startup/startup_MIMXRT1052.o
ADC_ETC_IRQ0_IRQHandler                           ./startup/startup_MIMXRT1052.o
ADC_ETC_IRQ1_IRQHandler                           ./startup/startup_MIMXRT1052.o
ADC_ETC_IRQ2_IRQHandler                           ./startup/startup_MIMXRT1052.o
BEE_IRQHandler                                    ./startup/startup_MIMXRT1052.o
BOARD_InitBootPins                                ./board/pin_mux.o
BusFault_Handler                                  ./startup/startup_MIMXRT1052.o
CAN1_DriverIRQHandler                             ./startup/startup_MIMXRT1052.o
CAN1_IRQHandler                                   ./startup/startup_MIMXRT1052.o
CAN2_DriverIRQHandler                             ./startup/startup_MIMXRT1052.o
CAN2_IRQHandler                                   ./startup/startup_MIMXRT1052.o
CCM_1_IRQHandler                                  ./startup/startup_MIMXRT1052.o
CCM_2_IRQHandler                                  ./startup/startup_MIMXRT1052.o
CLOCK_DeinitArmPll                                ./drivers/fsl_clock.o
CLOCK_DeinitAudioPll                              ./drivers/fsl_clock.o
CLOCK_DeinitEnetPll                               ./drivers/fsl_clock.o
CLOCK_DeinitExternalClk                           ./drivers/fsl_clock.o
CLOCK_DeinitRcOsc24M                              ./drivers/fsl_clock.o
CLOCK_DeinitSysPfd                                ./drivers/fsl_clock.o
CLOCK_DeinitSysPll                                ./drivers/fsl_clock.o
CLOCK_DeinitUsb1Pfd                               ./drivers/fsl_clock.o
CLOCK_DeinitUsb1Pll                               ./drivers/fsl_clock.o
CLOCK_DeinitUsb2Pll                               ./drivers/fsl_clock.o
CLOCK_DeinitVideoPll                              ./drivers/fsl_clock.o
CLOCK_DisableUsbhs0PhyPllClock                    ./drivers/fsl_clock.o
CLOCK_DisableUsbhs1PhyPllClock                    ./drivers/fsl_clock.o
CLOCK_EnableUsbhs0Clock                           ./drivers/fsl_clock.o
CLOCK_EnableUsbhs0PhyPllClock                     ./drivers/fsl_clock.o
CLOCK_EnableUsbhs1Clock                           ./drivers/fsl_clock.o
CLOCK_EnableUsbhs1PhyPllClock                     ./drivers/fsl_clock.o
CLOCK_GetAhbFreq                                  ./drivers/fsl_clock.o
CLOCK_GetClockOutCLKO1Freq                        ./drivers/fsl_clock.o
CLOCK_GetClockOutClkO2Freq                        ./drivers/fsl_clock.o
CLOCK_GetClockRootFreq                            ./drivers/fsl_clock.o
CLOCK_GetFreq                                     ./drivers/fsl_clock.o
                                                  ./source/memory/src/sd_memory.o
                                                  ./source/memory/src/mmc_memory.o
CLOCK_GetIpgFreq                                  ./drivers/fsl_clock.o
CLOCK_GetPerClkFreq                               ./drivers/fsl_clock.o
CLOCK_GetPllFreq                                  ./drivers/fsl_clock.o
CLOCK_GetSemcFreq                                 ./drivers/fsl_clock.o
CLOCK_GetSysPfdFreq                               ./drivers/fsl_clock.o
CLOCK_GetUsb1PfdFreq                              ./drivers/fsl_clock.o
CLOCK_InitArmPll                                  ./drivers/fsl_clock.o
CLOCK_InitAudioPll                                ./drivers/fsl_clock.o
CLOCK_InitEnetPll                                 ./drivers/fsl_clock.o
CLOCK_InitExternalClk                             ./drivers/fsl_clock.o
CLOCK_InitRcOsc24M                                ./drivers/fsl_clock.o
CLOCK_InitSysPfd                                  ./drivers/fsl_clock.o
CLOCK_InitSysPll                                  ./drivers/fsl_clock.o
CLOCK_InitUsb1Pfd                                 ./drivers/fsl_clock.o
CLOCK_InitUsb1Pll                                 ./drivers/fsl_clock.o
CLOCK_InitUsb2Pll                                 ./drivers/fsl_clock.o
CLOCK_InitVideoPll                                ./drivers/fsl_clock.o
CLOCK_IsSysPfdEnabled                             ./drivers/fsl_clock.o
CLOCK_IsUsb1PfdEnabled                            ./drivers/fsl_clock.o
CLOCK_SetClockOutput1                             ./drivers/fsl_clock.o
CLOCK_SetClockOutput2                             ./drivers/fsl_clock.o
CLOCK_SwitchOsc                                   ./drivers/fsl_clock.o
CORE_IRQHandler                                   ./startup/startup_MIMXRT1052.o
CTI0_ERROR_IRQHandler                             ./startup/startup_MIMXRT1052.o
CTI1_ERROR_IRQHandler                             ./startup/startup_MIMXRT1052.o
DCDC_IRQHandler                                   ./startup/startup_MIMXRT1052.o
DCP_IRQHandler                                    ./startup/startup_MIMXRT1052.o
DCP_SECURE_IRQHandler                             ./startup/startup_MIMXRT1052.o
DCP_VMI_IRQHandler                                ./startup/startup_MIMXRT1052.o
DebugMon_Handler                                  ./startup/startup_MIMXRT1052.o
DefaultISR                                        ./startup/startup_MIMXRT1052.o
ENC1_IRQHandler                                   ./startup/startup_MIMXRT1052.o
ENC2_IRQHandler                                   ./startup/startup_MIMXRT1052.o
ENC3_IRQHandler                                   ./startup/startup_MIMXRT1052.o
ENC4_IRQHandler                                   ./startup/startup_MIMXRT1052.o
ENET_1588_Timer_DriverIRQHandler                  ./startup/startup_MIMXRT1052.o
ENET_1588_Timer_IRQHandler                        ./startup/startup_MIMXRT1052.o
ENET_DriverIRQHandler                             ./startup/startup_MIMXRT1052.o
ENET_IRQHandler                                   ./startup/startup_MIMXRT1052.o
EWM_IRQHandler                                    ./startup/startup_MIMXRT1052.o
FLEXIO1_DriverIRQHandler                          ./startup/startup_MIMXRT1052.o
FLEXIO1_IRQHandler                                ./startup/startup_MIMXRT1052.o
FLEXIO2_DriverIRQHandler                          ./startup/startup_MIMXRT1052.o
FLEXIO2_IRQHandler                                ./startup/startup_MIMXRT1052.o
FLEXRAM_IRQHandler                                ./startup/startup_MIMXRT1052.o
FLEXSPI_DriverIRQHandler                          ./startup/startup_MIMXRT1052.o
FLEXSPI_IRQHandler                                ./startup/startup_MIMXRT1052.o
GPC_IRQHandler                                    ./startup/startup_MIMXRT1052.o
GPIO1_Combined_0_15_IRQHandler                    ./MIMXRT1052/pinmux_utility_imxrt_series.o
                                                  ./startup/startup_MIMXRT1052.o
GPIO1_Combined_16_31_IRQHandler                   ./startup/startup_MIMXRT1052.o
GPIO1_INT0_IRQHandler                             ./startup/startup_MIMXRT1052.o
GPIO1_INT1_IRQHandler                             ./startup/startup_MIMXRT1052.o
GPIO1_INT2_IRQHandler                             ./startup/startup_MIMXRT1052.o
GPIO1_INT3_IRQHandler                             ./startup/startup_MIMXRT1052.o
GPIO1_INT4_IRQHandler                             ./startup/startup_MIMXRT1052.o
GPIO1_INT5_IRQHandler                             ./startup/startup_MIMXRT1052.o
GPIO1_INT6_IRQHandler                             ./startup/startup_MIMXRT1052.o
GPIO1_INT7_IRQHandler                             ./startup/startup_MIMXRT1052.o
GPIO2_Combined_0_15_IRQHandler                    ./startup/startup_MIMXRT1052.o
GPIO2_Combined_16_31_IRQHandler                   ./startup/startup_MIMXRT1052.o
GPIO3_Combined_0_15_IRQHandler                    ./startup/startup_MIMXRT1052.o
GPIO3_Combined_16_31_IRQHandler                   ./startup/startup_MIMXRT1052.o
GPIO4_Combined_0_15_IRQHandler                    ./startup/startup_MIMXRT1052.o
GPIO4_Combined_16_31_IRQHandler                   ./startup/startup_MIMXRT1052.o
GPIO5_Combined_0_15_IRQHandler                    ./startup/startup_MIMXRT1052.o
GPIO5_Combined_16_31_IRQHandler                   ./startup/startup_MIMXRT1052.o
GPIO_PinInit                                      ./drivers/fsl_gpio.o
                                                  ./MIMXRT1052/sdmmc_config_MIMXRT1052.o
                                                  ./board/pin_mux.o
GPIO_PinSetInterruptConfig                        ./drivers/fsl_gpio.o
                                                  ./MIMXRT1052/pinmux_utility_imxrt_series.o
GPIO_PinWrite                                     ./drivers/fsl_gpio.o
                                                  ./MIMXRT1052/sdmmc_config_MIMXRT1052.o
GPR_IRQ_IRQHandler                                ./startup/startup_MIMXRT1052.o
GPT1_IRQHandler                                   ./startup/startup_MIMXRT1052.o
GPT2_IRQHandler                                   ./startup/startup_MIMXRT1052.o
HardFault_Handler                                 ./source/bootloader/src/bl_exception_handler.o
                                                  ./startup/startup_MIMXRT1052.o
KPP_IRQHandler                                    ./startup/startup_MIMXRT1052.o
LIST_AddHead                                      ./component/lists/fsl_component_generic_list.o
LIST_AddPrevElement                               ./component/lists/fsl_component_generic_list.o
LIST_AddTail                                      ./component/lists/fsl_component_generic_list.o
LIST_GetAvailableSize                             ./component/lists/fsl_component_generic_list.o
LIST_GetHead                                      ./component/lists/fsl_component_generic_list.o
LIST_GetList                                      ./component/lists/fsl_component_generic_list.o
LIST_GetNext                                      ./component/lists/fsl_component_generic_list.o
LIST_GetPrev                                      ./component/lists/fsl_component_generic_list.o
LIST_GetSize                                      ./component/lists/fsl_component_generic_list.o
LIST_Init                                         ./component/lists/fsl_component_generic_list.o
LIST_RemoveElement                                ./component/lists/fsl_component_generic_list.o
LIST_RemoveHead                                   ./component/lists/fsl_component_generic_list.o
LPI2C1_DriverIRQHandler                           ./startup/startup_MIMXRT1052.o
LPI2C1_IRQHandler                                 ./startup/startup_MIMXRT1052.o
LPI2C2_DriverIRQHandler                           ./startup/startup_MIMXRT1052.o
LPI2C2_IRQHandler                                 ./startup/startup_MIMXRT1052.o
LPI2C3_DriverIRQHandler                           ./startup/startup_MIMXRT1052.o
LPI2C3_IRQHandler                                 ./startup/startup_MIMXRT1052.o
LPI2C4_DriverIRQHandler                           ./startup/startup_MIMXRT1052.o
LPI2C4_IRQHandler                                 ./startup/startup_MIMXRT1052.o
LPSPI1_DriverIRQHandler                           ./drivers/fsl_lpspi.o
                                                  ./startup/startup_MIMXRT1052.o
LPSPI1_IRQHandler                                 ./startup/startup_MIMXRT1052.o
LPSPI2_DriverIRQHandler                           ./drivers/fsl_lpspi.o
                                                  ./startup/startup_MIMXRT1052.o
LPSPI2_IRQHandler                                 ./startup/startup_MIMXRT1052.o
LPSPI3_DriverIRQHandler                           ./drivers/fsl_lpspi.o
                                                  ./startup/startup_MIMXRT1052.o
LPSPI3_IRQHandler                                 ./startup/startup_MIMXRT1052.o
LPSPI4_DriverIRQHandler                           ./drivers/fsl_lpspi.o
                                                  ./startup/startup_MIMXRT1052.o
LPSPI4_IRQHandler                                 ./startup/startup_MIMXRT1052.o
LPSPI_CheckTransferArgument                       ./drivers/fsl_lpspi.o
LPSPI_Deinit                                      ./drivers/fsl_lpspi.o
LPSPI_GetInstance                                 ./drivers/fsl_lpspi.o
LPSPI_MasterGetDefaultConfig                      ./drivers/fsl_lpspi.o
LPSPI_MasterInit                                  ./drivers/fsl_lpspi.o
                                                  ./source/memory/src/spi_nor_eeprom_memory.o
LPSPI_MasterSetBaudRate                           ./drivers/fsl_lpspi.o
LPSPI_MasterSetDelayScaler                        ./drivers/fsl_lpspi.o
LPSPI_MasterSetDelayTimes                         ./drivers/fsl_lpspi.o
LPSPI_MasterTransferAbort                         ./drivers/fsl_lpspi.o
LPSPI_MasterTransferBlocking                      ./drivers/fsl_lpspi.o
                                                  ./source/memory/src/spi_nor_eeprom_memory.o
LPSPI_MasterTransferCreateHandle                  ./drivers/fsl_lpspi.o
LPSPI_MasterTransferGetCount                      ./drivers/fsl_lpspi.o
LPSPI_MasterTransferHandleIRQ                     ./drivers/fsl_lpspi.o
LPSPI_MasterTransferNonBlocking                   ./drivers/fsl_lpspi.o
LPSPI_Reset                                       ./drivers/fsl_lpspi.o
LPSPI_SetDummyData                                ./drivers/fsl_lpspi.o
LPSPI_SlaveGetDefaultConfig                       ./drivers/fsl_lpspi.o
LPSPI_SlaveInit                                   ./drivers/fsl_lpspi.o
LPSPI_SlaveTransferAbort                          ./drivers/fsl_lpspi.o
LPSPI_SlaveTransferCreateHandle                   ./drivers/fsl_lpspi.o
LPSPI_SlaveTransferGetCount                       ./drivers/fsl_lpspi.o
LPSPI_SlaveTransferHandleIRQ                      ./drivers/fsl_lpspi.o
LPSPI_SlaveTransferNonBlocking                    ./drivers/fsl_lpspi.o
LPUART1_DriverIRQHandler                          ./drivers/fsl_lpuart.o
                                                  ./startup/startup_MIMXRT1052.o
LPUART1_IRQHandler                                ./source/bootloader/src/lpuart_peripheral_interface.o
                                                  ./startup/startup_MIMXRT1052.o
LPUART2_DriverIRQHandler                          ./drivers/fsl_lpuart.o
                                                  ./startup/startup_MIMXRT1052.o
LPUART2_IRQHandler                                ./startup/startup_MIMXRT1052.o
LPUART3_DriverIRQHandler                          ./drivers/fsl_lpuart.o
                                                  ./startup/startup_MIMXRT1052.o
LPUART3_IRQHandler                                ./startup/startup_MIMXRT1052.o
LPUART4_DriverIRQHandler                          ./drivers/fsl_lpuart.o
                                                  ./startup/startup_MIMXRT1052.o
LPUART4_IRQHandler                                ./startup/startup_MIMXRT1052.o
LPUART5_DriverIRQHandler                          ./drivers/fsl_lpuart.o
                                                  ./startup/startup_MIMXRT1052.o
LPUART5_IRQHandler                                ./startup/startup_MIMXRT1052.o
LPUART6_DriverIRQHandler                          ./drivers/fsl_lpuart.o
                                                  ./startup/startup_MIMXRT1052.o
LPUART6_IRQHandler                                ./startup/startup_MIMXRT1052.o
LPUART7_DriverIRQHandler                          ./drivers/fsl_lpuart.o
                                                  ./startup/startup_MIMXRT1052.o
LPUART7_IRQHandler                                ./startup/startup_MIMXRT1052.o
LPUART8_DriverIRQHandler                          ./drivers/fsl_lpuart.o
                                                  ./startup/startup_MIMXRT1052.o
LPUART8_IRQHandler                                ./startup/startup_MIMXRT1052.o
LPUART_ClearStatusFlags                           ./drivers/fsl_lpuart.o
LPUART_Deinit                                     ./drivers/fsl_lpuart.o
                                                  ./source/bootloader/src/lpuart_peripheral_interface.o
LPUART_DisableInterrupts                          ./drivers/fsl_lpuart.o
LPUART_Enable9bitMode                             ./drivers/fsl_lpuart.o
LPUART_EnableInterrupts                           ./drivers/fsl_lpuart.o
                                                  ./source/bootloader/src/lpuart_peripheral_interface.o
LPUART_GetDefaultConfig                           ./drivers/fsl_lpuart.o
                                                  ./source/bootloader/src/lpuart_peripheral_interface.o
LPUART_GetEnabledInterrupts                       ./drivers/fsl_lpuart.o
LPUART_GetInstance                                ./drivers/fsl_lpuart.o
LPUART_GetStatusFlags                             ./drivers/fsl_lpuart.o
                                                  ./source/bootloader/src/lpuart_peripheral_interface.o
LPUART_Init                                       ./drivers/fsl_lpuart.o
                                                  ./source/bootloader/src/lpuart_peripheral_interface.o
LPUART_ReadBlocking                               ./drivers/fsl_lpuart.o
LPUART_SendAddress                                ./drivers/fsl_lpuart.o
LPUART_SetBaudRate                                ./drivers/fsl_lpuart.o
LPUART_SetSystemIRQ                               ./MIMXRT1052/bl_lpuart_irq_config_MIMXRT1052.o
                                                  ./source/bootloader/src/lpuart_peripheral_interface.o
LPUART_TransferAbortReceive                       ./drivers/fsl_lpuart.o
LPUART_TransferAbortSend                          ./drivers/fsl_lpuart.o
LPUART_TransferCreateHandle                       ./drivers/fsl_lpuart.o
LPUART_TransferGetReceiveCount                    ./drivers/fsl_lpuart.o
LPUART_TransferGetRxRingBufferLength              ./drivers/fsl_lpuart.o
LPUART_TransferGetSendCount                       ./drivers/fsl_lpuart.o
LPUART_TransferHandleErrorIRQ                     ./drivers/fsl_lpuart.o
LPUART_TransferHandleIRQ                          ./drivers/fsl_lpuart.o
LPUART_TransferReceiveNonBlocking                 ./drivers/fsl_lpuart.o
LPUART_TransferSendNonBlocking                    ./drivers/fsl_lpuart.o
LPUART_TransferStartRingBuffer                    ./drivers/fsl_lpuart.o
LPUART_TransferStopRingBuffer                     ./drivers/fsl_lpuart.o
LPUART_WriteBlocking                              ./drivers/fsl_lpuart.o
                                                  ./source/bootloader/src/lpuart_peripheral_interface.o
MMC_BL_CardInit                                   ./source/drivers/sdmmc/fsl_mmc.o
MMC_BL_Init                                       ./source/drivers/sdmmc/fsl_mmc.o
                                                  ./source/memory/src/mmc_memory.o
MMC_BL_StartBoot                                  ./source/drivers/sdmmc/fsl_mmc.o
MMC_CardDeinit                                    ./source/drivers/sdmmc/fsl_mmc.o
MMC_CardInit                                      ./source/drivers/sdmmc/fsl_mmc.o
MMC_CheckReadOnly                                 ./source/drivers/sdmmc/fsl_mmc.o
                                                  ./source/memory/src/mmc_memory.o
MMC_Deinit                                        ./source/drivers/sdmmc/fsl_mmc.o
MMC_EraseGroups                                   ./source/drivers/sdmmc/fsl_mmc.o
                                                  ./source/memory/src/mmc_memory.o
MMC_HostDeinit                                    ./source/drivers/sdmmc/fsl_mmc.o
MMC_HostInit                                      ./source/drivers/sdmmc/fsl_mmc.o
MMC_HostReset                                     ./source/drivers/sdmmc/fsl_mmc.o
MMC_Init                                          ./source/drivers/sdmmc/fsl_mmc.o
MMC_ReadBlocks                                    ./source/drivers/sdmmc/fsl_mmc.o
                                                  ./source/memory/src/mmc_memory.o
MMC_ReadBootData                                  ./source/drivers/sdmmc/fsl_mmc.o
MMC_SelectPartition                               ./source/drivers/sdmmc/fsl_mmc.o
                                                  ./source/memory/src/mmc_memory.o
MMC_SetBootConfig                                 ./source/drivers/sdmmc/fsl_mmc.o
                                                  ./source/memory/src/mmc_memory.o
MMC_SetBootConfigWP                               ./source/drivers/sdmmc/fsl_mmc.o
MMC_SetBootPartitionWP                            ./source/drivers/sdmmc/fsl_mmc.o
MMC_StopBoot                                      ./source/drivers/sdmmc/fsl_mmc.o
MMC_WriteBlocks                                   ./source/drivers/sdmmc/fsl_mmc.o
                                                  ./source/memory/src/mmc_memory.o
MemManage_Handler                                 ./startup/startup_MIMXRT1052.o
NMI_Handler                                       ./startup/startup_MIMXRT1052.o
OSA_DisableIRQGlobal                              ./component/osa/fsl_os_abstraction_bm.o
OSA_EnableIRQGlobal                               ./component/osa/fsl_os_abstraction_bm.o
OSA_EnterCritical                                 ./component/osa/fsl_os_abstraction_bm.o
                                                  ./source/utilities/src/fsl_rtos_abstraction.o
                                                  ./usb/device/class/usb_device_class.o
                                                  ./usb/device/source/usb_device_dci.o
                                                  ./usb/device/source/ehci/usb_device_ehci.o
OSA_EventClear                                    ./component/osa/fsl_os_abstraction_bm.o
OSA_EventCreate                                   ./component/osa/fsl_os_abstraction_bm.o
OSA_EventDestroy                                  ./component/osa/fsl_os_abstraction_bm.o
OSA_EventGet                                      ./component/osa/fsl_os_abstraction_bm.o
OSA_EventSet                                      ./component/osa/fsl_os_abstraction_bm.o
OSA_EventWait                                     ./component/osa/fsl_os_abstraction_bm.o
OSA_ExitCritical                                  ./component/osa/fsl_os_abstraction_bm.o
                                                  ./source/utilities/src/fsl_rtos_abstraction.o
                                                  ./usb/device/class/usb_device_class.o
                                                  ./usb/device/source/usb_device_dci.o
                                                  ./usb/device/source/ehci/usb_device_ehci.o
OSA_InstallIntHandler                             ./component/osa/fsl_os_abstraction_bm.o
OSA_InterruptDisable                              ./component/osa/fsl_os_abstraction_bm.o
OSA_InterruptEnable                               ./component/osa/fsl_os_abstraction_bm.o
OSA_MemoryAllocate                                ./component/osa/fsl_os_abstraction_bm.o
OSA_MemoryFree                                    ./component/osa/fsl_os_abstraction_bm.o
OSA_MsgQAvailableMsgs                             ./component/osa/fsl_os_abstraction_bm.o
OSA_MsgQCreate                                    ./component/osa/fsl_os_abstraction_bm.o
OSA_MsgQDestroy                                   ./component/osa/fsl_os_abstraction_bm.o
OSA_MsgQGet                                       ./component/osa/fsl_os_abstraction_bm.o
OSA_MsgQPut                                       ./component/osa/fsl_os_abstraction_bm.o
OSA_MutexCreate                                   ./component/osa/fsl_os_abstraction_bm.o
OSA_MutexDestroy                                  ./component/osa/fsl_os_abstraction_bm.o
OSA_MutexLock                                     ./component/osa/fsl_os_abstraction_bm.o
OSA_MutexUnlock                                   ./component/osa/fsl_os_abstraction_bm.o
OSA_SemaCreate                                    ./source/utilities/src/fsl_rtos_abstraction.o
OSA_SemaDestroy                                   ./source/utilities/src/fsl_rtos_abstraction.o
OSA_SemaPost                                      ./source/utilities/src/fsl_rtos_abstraction.o
OSA_SemaWait                                      ./source/utilities/src/fsl_rtos_abstraction.o
OSA_SemaphoreCreate                               ./component/osa/fsl_os_abstraction_bm.o
OSA_SemaphoreCreateBinary                         ./component/osa/fsl_os_abstraction_bm.o
OSA_SemaphoreDestroy                              ./component/osa/fsl_os_abstraction_bm.o
OSA_SemaphorePost                                 ./component/osa/fsl_os_abstraction_bm.o
OSA_SemaphoreWait                                 ./component/osa/fsl_os_abstraction_bm.o
OSA_TimeDelay                                     ./component/osa/fsl_os_abstraction_bm.o
OSA_TimeDiff                                      ./component/osa/fsl_os_abstraction_bm.o
OSA_TimeGetMsec                                   ./component/osa/fsl_os_abstraction_bm.o
OSA_TimeInit                                      ./component/osa/fsl_os_abstraction_bm.o
PIT_IRQHandler                                    ./startup/startup_MIMXRT1052.o
PWM1_0_IRQHandler                                 ./startup/startup_MIMXRT1052.o
PWM1_1_IRQHandler                                 ./startup/startup_MIMXRT1052.o
PWM1_2_IRQHandler                                 ./startup/startup_MIMXRT1052.o
PWM1_3_IRQHandler                                 ./startup/startup_MIMXRT1052.o
PWM1_FAULT_IRQHandler                             ./startup/startup_MIMXRT1052.o
PWM2_0_IRQHandler                                 ./startup/startup_MIMXRT1052.o
PWM2_1_IRQHandler                                 ./startup/startup_MIMXRT1052.o
PWM2_2_IRQHandler                                 ./startup/startup_MIMXRT1052.o
PWM2_3_IRQHandler                                 ./startup/startup_MIMXRT1052.o
PWM2_FAULT_IRQHandler                             ./startup/startup_MIMXRT1052.o
PWM3_0_IRQHandler                                 ./startup/startup_MIMXRT1052.o
PWM3_1_IRQHandler                                 ./startup/startup_MIMXRT1052.o
PWM3_2_IRQHandler                                 ./startup/startup_MIMXRT1052.o
PWM3_3_IRQHandler                                 ./startup/startup_MIMXRT1052.o
PWM3_FAULT_IRQHandler                             ./startup/startup_MIMXRT1052.o
PWM4_0_IRQHandler                                 ./startup/startup_MIMXRT1052.o
PWM4_1_IRQHandler                                 ./startup/startup_MIMXRT1052.o
PWM4_2_IRQHandler                                 ./startup/startup_MIMXRT1052.o
PWM4_3_IRQHandler                                 ./startup/startup_MIMXRT1052.o
PWM4_FAULT_IRQHandler                             ./startup/startup_MIMXRT1052.o
PendSV_Handler                                    ./startup/startup_MIMXRT1052.o
RTWDOG_IRQHandler                                 ./startup/startup_MIMXRT1052.o
RTWDOG_disable                                    ./device/system_MIMXRT1052.o
Reserved115_IRQHandler                            ./startup/startup_MIMXRT1052.o
Reserved123_IRQHandler                            ./startup/startup_MIMXRT1052.o
Reserved132_IRQHandler                            ./startup/startup_MIMXRT1052.o
Reserved133_IRQHandler                            ./startup/startup_MIMXRT1052.o
Reserved143_IRQHandler                            ./startup/startup_MIMXRT1052.o
Reserved144_IRQHandler                            ./startup/startup_MIMXRT1052.o
Reserved16_IRQHandler                             ./startup/startup_MIMXRT1052.o
Reserved17_IRQHandler                             ./startup/startup_MIMXRT1052.o
Reserved18_IRQHandler                             ./startup/startup_MIMXRT1052.o
Reserved19_IRQHandler                             ./startup/startup_MIMXRT1052.o
Reserved20_IRQHandler                             ./startup/startup_MIMXRT1052.o
Reserved21_IRQHandler                             ./startup/startup_MIMXRT1052.o
Reserved22_IRQHandler                             ./startup/startup_MIMXRT1052.o
Reserved23_IRQHandler                             ./startup/startup_MIMXRT1052.o
Reserved24_IRQHandler                             ./startup/startup_MIMXRT1052.o
Reserved25_IRQHandler                             ./startup/startup_MIMXRT1052.o
Reserved26_IRQHandler                             ./startup/startup_MIMXRT1052.o
Reserved27_IRQHandler                             ./startup/startup_MIMXRT1052.o
Reserved28_IRQHandler                             ./startup/startup_MIMXRT1052.o
Reserved29_IRQHandler                             ./startup/startup_MIMXRT1052.o
Reserved30_IRQHandler                             ./startup/startup_MIMXRT1052.o
Reserved31_IRQHandler                             ./startup/startup_MIMXRT1052.o
Reserved32_IRQHandler                             ./startup/startup_MIMXRT1052.o
Reserved58_IRQHandler                             ./startup/startup_MIMXRT1052.o
Reserved59_IRQHandler                             ./startup/startup_MIMXRT1052.o
Reserved60_IRQHandler                             ./startup/startup_MIMXRT1052.o
Reserved65_IRQHandler                             ./startup/startup_MIMXRT1052.o
Reserved70_IRQHandler                             ./startup/startup_MIMXRT1052.o
Reserved72_IRQHandler                             ./startup/startup_MIMXRT1052.o
Reserved73_IRQHandler                             ./startup/startup_MIMXRT1052.o
Reserved74_IRQHandler                             ./startup/startup_MIMXRT1052.o
Reserved75_IRQHandler                             ./startup/startup_MIMXRT1052.o
Reserved77_IRQHandler                             ./startup/startup_MIMXRT1052.o
Reserved78_IRQHandler                             ./startup/startup_MIMXRT1052.o
Reserved79_IRQHandler                             ./startup/startup_MIMXRT1052.o
Reserved80_IRQHandler                             ./startup/startup_MIMXRT1052.o
Reserved86_IRQHandler                             ./startup/startup_MIMXRT1052.o
Reserved87_IRQHandler                             ./startup/startup_MIMXRT1052.o
Reset_Handler                                     ./startup/crt0_gcc.o
                                                  ./source/bootloader/src/bl_main.o
SDK_DelayAtLeastUs                                ./drivers/fsl_common_arm.o
SDK_Free                                          ./drivers/fsl_common.o
SDK_Malloc                                        ./drivers/fsl_common.o
SDMMCHOST_BL_IsCardPresent                        ./source/drivers/sdmmc/fsl_sdmmc_host.o
SDMMCHOST_Deinit                                  ./source/drivers/sdmmc/fsl_sdmmc_host.o
                                                  ./source/drivers/sdmmc/fsl_sd.o
                                                  ./source/drivers/sdmmc/fsl_mmc.o
SDMMCHOST_Delay                                   ./source/drivers/sdmmc/fsl_sdmmc_host.o
                                                  ./source/drivers/sdmmc/fsl_mmc.o
SDMMCHOST_Init                                    ./source/drivers/sdmmc/fsl_sdmmc_host.o
                                                  ./source/drivers/sdmmc/fsl_sd.o
                                                  ./source/drivers/sdmmc/fsl_mmc.o
SDMMCHOST_IsCardPresent                           ./source/drivers/sdmmc/fsl_sdmmc_host.o
                                                  ./source/drivers/sdmmc/fsl_sd.o
SDMMCHOST_PowerOffCard                            ./source/drivers/sdmmc/fsl_sdmmc_host.o
                                                  ./source/drivers/sdmmc/fsl_sd.o
SDMMCHOST_PowerOnCard                             ./source/drivers/sdmmc/fsl_sdmmc_host.o
                                                  ./source/drivers/sdmmc/fsl_sd.o
SDMMCHOST_Reset                                   ./source/drivers/sdmmc/fsl_sdmmc_host.o
                                                  ./source/drivers/sdmmc/fsl_sd.o
                                                  ./source/drivers/sdmmc/fsl_mmc.o
SDMMCHOST_WaitCardDetectStatus                    ./source/drivers/sdmmc/fsl_sdmmc_host.o
                                                  ./source/drivers/sdmmc/fsl_sd.o
SDMMC_ExecuteTuning                               ./source/drivers/sdmmc/fsl_sdmmc_common.o
                                                  ./source/drivers/sdmmc/fsl_sd.o
                                                  ./source/drivers/sdmmc/fsl_mmc.o
SDMMC_GoIdle                                      ./source/drivers/sdmmc/fsl_sdmmc_common.o
                                                  ./source/drivers/sdmmc/fsl_sd.o
                                                  ./source/drivers/sdmmc/fsl_mmc.o
SDMMC_GoPreIdle                                   ./source/drivers/sdmmc/fsl_sdmmc_common.o
                                                  ./source/drivers/sdmmc/fsl_mmc.o
SDMMC_SelectCard                                  ./source/drivers/sdmmc/fsl_sdmmc_common.o
                                                  ./source/drivers/sdmmc/fsl_sd.o
                                                  ./source/drivers/sdmmc/fsl_mmc.o
SDMMC_SendApplicationCommand                      ./source/drivers/sdmmc/fsl_sdmmc_common.o
                                                  ./source/drivers/sdmmc/fsl_sd.o
SDMMC_SetBlockCount                               ./source/drivers/sdmmc/fsl_sdmmc_common.o
SDMMC_SetBlockSize                                ./source/drivers/sdmmc/fsl_sdmmc_common.o
                                                  ./source/drivers/sdmmc/fsl_sd.o
                                                  ./source/drivers/sdmmc/fsl_mmc.o
SDMMC_SetCardInactive                             ./source/drivers/sdmmc/fsl_sdmmc_common.o
SDMMC_SwitchVoltage                               ./source/drivers/sdmmc/fsl_sdmmc_common.o
                                                  ./source/drivers/sdmmc/fsl_sd.o
SD_BL_CardInit                                    ./source/drivers/sdmmc/fsl_sd.o
SD_BL_Init                                        ./source/drivers/sdmmc/fsl_sd.o
                                                  ./source/memory/src/sd_memory.o
SD_CardDeinit                                     ./source/drivers/sdmmc/fsl_sd.o
SD_CardInit                                       ./source/drivers/sdmmc/fsl_sd.o
SD_CheckReadOnly                                  ./source/drivers/sdmmc/fsl_sd.o
                                                  ./source/memory/src/sd_memory.o
SD_Deinit                                         ./source/drivers/sdmmc/fsl_sd.o
SD_EraseBlocks                                    ./source/drivers/sdmmc/fsl_sd.o
                                                  ./source/memory/src/sd_memory.o
SD_HostDeinit                                     ./source/drivers/sdmmc/fsl_sd.o
SD_HostInit                                       ./source/drivers/sdmmc/fsl_sd.o
SD_HostReset                                      ./source/drivers/sdmmc/fsl_sd.o
SD_Init                                           ./source/drivers/sdmmc/fsl_sd.o
SD_IsCardPresent                                  ./source/drivers/sdmmc/fsl_sd.o
SD_PowerOffCard                                   ./source/drivers/sdmmc/fsl_sd.o
SD_PowerOnCard                                    ./source/drivers/sdmmc/fsl_sd.o
SD_ReadBlocks                                     ./source/drivers/sdmmc/fsl_sd.o
                                                  ./source/memory/src/sd_memory.o
SD_WaitCardDetectStatus                           ./source/drivers/sdmmc/fsl_sd.o
SD_WriteBlocks                                    ./source/drivers/sdmmc/fsl_sd.o
                                                  ./source/memory/src/sd_memory.o
SEMC_IRQHandler                                   ./startup/startup_MIMXRT1052.o
SNVS_HP_WRAPPER_IRQHandler                        ./startup/startup_MIMXRT1052.o
SNVS_HP_WRAPPER_TZ_IRQHandler                     ./startup/startup_MIMXRT1052.o
SNVS_LP_WRAPPER_IRQHandler                        ./startup/startup_MIMXRT1052.o
SPDIF_DriverIRQHandler                            ./startup/startup_MIMXRT1052.o
SPDIF_IRQHandler                                  ./startup/startup_MIMXRT1052.o
SRC_IRQHandler                                    ./startup/startup_MIMXRT1052.o
SVC_Handler                                       ./startup/startup_MIMXRT1052.o
SysTick_Handler                                   ./startup/startup_MIMXRT1052.o
SystemCoreClock                                   ./device/system_MIMXRT1052.o
                                                  ./MIMXRT1052/bl_clock_config_MIMXRT1052.o
                                                  ./source/drivers/flexspi_nor/flexspi_nor_flash.o
SystemCoreClockUpdate                             ./device/system_MIMXRT1052.o
SystemInit                                        ./device/system_MIMXRT1052.o
                                                  ./startup/startup_MIMXRT1052.o
                                                  ./startup/crt0_gcc.o
SystemInitHook                                    ./device/system_MIMXRT1052.o
TMR1_IRQHandler                                   ./startup/startup_MIMXRT1052.o
TMR2_IRQHandler                                   ./startup/startup_MIMXRT1052.o
TMR3_IRQHandler                                   ./startup/startup_MIMXRT1052.o
TMR4_IRQHandler                                   ./startup/startup_MIMXRT1052.o
TRNG_Deinit                                       ./source/drivers/trng/bl_trng.o
TRNG_GetDefaultConfig                             ./source/drivers/trng/bl_trng.o
                                                  ./source/bootloader/src/bl_nor_encrypt_bee.o
                                                  ./source/bootloader/src/bl_keyblob_dcp.o
TRNG_GetRandomData                                ./source/drivers/trng/bl_trng.o
                                                  ./source/bootloader/src/bl_nor_encrypt_bee.o
                                                  ./source/bootloader/src/bl_keyblob_dcp.o
TRNG_IRQHandler                                   ./startup/startup_MIMXRT1052.o
TRNG_Init                                         ./source/drivers/trng/bl_trng.o
                                                  ./source/bootloader/src/bl_nor_encrypt_bee.o
                                                  ./source/bootloader/src/bl_keyblob_dcp.o
TSC_DIG_IRQHandler                                ./startup/startup_MIMXRT1052.o
UART1_InitPins                                    ./board/pin_mux.o
                                                  ./MIMXRT1052/pinmux_utility_imxrt_series.o
UART1_PollForActivity                             ./board/pin_mux.o
                                                  ./MIMXRT1052/pinmux_utility_imxrt_series.o
UART1_RestoreDefault                              ./board/pin_mux.o
                                                  ./MIMXRT1052/pinmux_utility_imxrt_series.o
USB_DeviceCancel                                  ./usb/device/source/usb_device_dci.o
USB_DeviceClassCallback                           ./usb/device/class/usb_device_class.o
                                                  ./usb/device/source/usb_device_ch9.o
USB_DeviceClassDeinit                             ./usb/device/class/usb_device_class.o
                                                  ./source/bootloader/src/usb_hid_msc_peripheral_interface.o
USB_DeviceClassEvent                              ./usb/device/class/usb_device_class.o
                                                  ./usb/device/source/usb_device_ch9.o
USB_DeviceClassGetDeviceHandle                    ./usb/device/class/usb_device_class.o
                                                  ./usb/device/class/hid/usb_device_hid.o
USB_DeviceClassGetSpeed                           ./usb/device/class/usb_device_class.o
                                                  ./source/bootloader/src/usb_hid_msc_peripheral_interface.o
USB_DeviceClassInit                               ./usb/device/class/usb_device_class.o
                                                  ./source/bootloader/src/usb_hid_msc_peripheral_interface.o
USB_DeviceControlPipeInit                         ./usb/device/source/usb_device_ch9.o
                                                  ./usb/device/class/usb_device_class.o
USB_DeviceDeinit                                  ./usb/device/source/usb_device_dci.o
                                                  ./usb/device/class/usb_device_class.o
USB_DeviceDeinitEndpoint                          ./usb/device/source/usb_device_dci.o
                                                  ./usb/device/class/hid/usb_device_hid.o
                                                  ./usb/device/source/usb_device_ch9.o
USB_DeviceEhciCancel                              ./usb/device/source/ehci/usb_device_ehci.o
                                                  ./usb/device/source/usb_device_dci.o
USB_DeviceEhciControl                             ./usb/device/source/ehci/usb_device_ehci.o
                                                  ./usb/device/source/usb_device_dci.o
USB_DeviceEhciDeinit                              ./usb/device/source/ehci/usb_device_ehci.o
                                                  ./usb/device/source/usb_device_dci.o
USB_DeviceEhciInit                                ./usb/device/source/ehci/usb_device_ehci.o
                                                  ./usb/device/source/usb_device_dci.o
USB_DeviceEhciIsrFunction                         ./usb/device/source/ehci/usb_device_ehci.o
                                                  ./source/bootloader/src/usb_hid_msc_peripheral_interface.o
USB_DeviceEhciRecv                                ./usb/device/source/ehci/usb_device_ehci.o
                                                  ./usb/device/source/usb_device_dci.o
USB_DeviceEhciSend                                ./usb/device/source/ehci/usb_device_ehci.o
                                                  ./usb/device/source/usb_device_dci.o
USB_DeviceGetStatus                               ./usb/device/source/usb_device_dci.o
                                                  ./usb/device/class/usb_device_class.o
                                                  ./usb/device/source/usb_device_ch9.o
USB_DeviceGetVersion                              ./usb/device/source/usb_device_dci.o
USB_DeviceHidDeinit                               ./usb/device/class/hid/usb_device_hid.o
                                                  ./usb/device/class/usb_device_class.o
USB_DeviceHidEvent                                ./usb/device/class/hid/usb_device_hid.o
                                                  ./usb/device/class/usb_device_class.o
USB_DeviceHidInit                                 ./usb/device/class/hid/usb_device_hid.o
                                                  ./usb/device/class/usb_device_class.o
USB_DeviceHidRecv                                 ./usb/device/class/hid/usb_device_hid.o
                                                  ./source/bootloader/src/usb_hid_msc_peripheral_interface.o
                                                  ./source/usb/bm_composite/hid_bootloader.o
USB_DeviceHidSend                                 ./usb/device/class/hid/usb_device_hid.o
                                                  ./source/bootloader/src/usb_hid_msc_peripheral_interface.o
USB_DeviceInit                                    ./usb/device/source/usb_device_dci.o
                                                  ./usb/device/class/usb_device_class.o
USB_DeviceInitEndpoint                            ./usb/device/source/usb_device_dci.o
                                                  ./usb/device/class/hid/usb_device_hid.o
                                                  ./usb/device/source/usb_device_ch9.o
USB_DeviceNotificationTrigger                     ./usb/device/source/usb_device_dci.o
                                                  ./usb/device/source/ehci/usb_device_ehci.o
USB_DeviceRecvRequest                             ./usb/device/source/usb_device_dci.o
                                                  ./usb/device/class/hid/usb_device_hid.o
                                                  ./usb/device/source/usb_device_ch9.o
USB_DeviceRun                                     ./usb/device/source/usb_device_dci.o
                                                  ./source/bootloader/src/usb_hid_msc_peripheral_interface.o
USB_DeviceSendRequest                             ./usb/device/source/usb_device_dci.o
                                                  ./usb/device/class/hid/usb_device_hid.o
                                                  ./usb/device/source/usb_device_ch9.o
USB_DeviceSetStatus                               ./usb/device/source/usb_device_dci.o
                                                  ./usb/device/source/usb_device_ch9.o
USB_DeviceStallEndpoint                           ./usb/device/source/usb_device_dci.o
                                                  ./usb/device/class/hid/usb_device_hid.o
                                                  ./usb/device/source/usb_device_ch9.o
USB_DeviceStop                                    ./usb/device/source/usb_device_dci.o
USB_DeviceUnstallEndpoint                         ./usb/device/source/usb_device_dci.o
                                                  ./usb/device/class/hid/usb_device_hid.o
                                                  ./usb/device/source/usb_device_ch9.o
USB_EhciLowPowerPhyInit                           ./usb/phy/usb_phy.o
USB_EhciPhyDeinit                                 ./usb/phy/usb_phy.o
USB_EhciPhyGetBase                                ./usb/phy/usb_phy.o
USB_EhciPhyInit                                   ./usb/phy/usb_phy.o
USB_EhcihostPhyDisconnectDetectCmd                ./usb/phy/usb_phy.o
USB_OTG1_IRQHandler                               ./source/bootloader/src/usb_hid_msc_peripheral_interface.o
                                                  ./startup/startup_MIMXRT1052.o
USB_OTG2_IRQHandler                               ./startup/startup_MIMXRT1052.o
USB_PHY1_IRQHandler                               ./startup/startup_MIMXRT1052.o
USB_PHY2_IRQHandler                               ./startup/startup_MIMXRT1052.o
USDHC1_DriverIRQHandler                           ./source/drivers/usdhc/bl_usdhc.o
                                                  ./startup/startup_MIMXRT1052.o
USDHC1_IRQHandler                                 ./startup/startup_MIMXRT1052.o
USDHC2_DriverIRQHandler                           ./source/drivers/usdhc/bl_usdhc.o
                                                  ./startup/startup_MIMXRT1052.o
USDHC2_IRQHandler                                 ./startup/startup_MIMXRT1052.o
USDHC_AdjustDelayForManualTuning                  ./source/drivers/usdhc/bl_usdhc.o
                                                  ./source/drivers/sdmmc/fsl_sdmmc_common.o
USDHC_Deinit                                      ./source/drivers/usdhc/bl_usdhc.o
                                                  ./source/drivers/sdmmc/fsl_sdmmc_host.o
USDHC_EnableAutoTuningForCmdAndData               ./source/drivers/usdhc/bl_usdhc.o
USDHC_EnableManualTuning                          ./source/drivers/usdhc/bl_usdhc.o
USDHC_EnableStandardTuning                        ./source/drivers/usdhc/bl_usdhc.o
                                                  ./source/drivers/sdmmc/fsl_sdmmc_host.o
                                                  ./source/drivers/sdmmc/fsl_sdmmc_common.o
USDHC_GetCapability                               ./source/drivers/usdhc/bl_usdhc.o
                                                  ./source/drivers/sdmmc/fsl_sd.o
                                                  ./source/drivers/sdmmc/fsl_mmc.o
USDHC_Init                                        ./source/drivers/usdhc/bl_usdhc.o
                                                  ./source/drivers/sdmmc/fsl_sdmmc_host.o
USDHC_Reset                                       ./source/drivers/usdhc/bl_usdhc.o
                                                  ./source/drivers/sdmmc/fsl_sdmmc_host.o
                                                  ./source/drivers/sdmmc/fsl_sd.o
                                                  ./source/drivers/sdmmc/fsl_mmc.o
USDHC_SendCommand                                 ./source/drivers/usdhc/bl_usdhc.o
USDHC_SetADMA1Descriptor                          ./source/drivers/usdhc/bl_usdhc.o
USDHC_SetADMA2Descriptor                          ./source/drivers/usdhc/bl_usdhc.o
USDHC_SetAdmaTableConfig                          ./source/drivers/usdhc/bl_usdhc.o
USDHC_SetCardActive                               ./source/drivers/usdhc/bl_usdhc.o
                                                  ./source/drivers/sdmmc/fsl_sd.o
                                                  ./source/drivers/sdmmc/fsl_mmc.o
USDHC_SetInternalDmaConfig                        ./source/drivers/usdhc/bl_usdhc.o
USDHC_SetMmcBootConfig                            ./source/drivers/usdhc/bl_usdhc.o
                                                  ./source/drivers/sdmmc/fsl_mmc.o
USDHC_SetSdClock                                  ./source/drivers/usdhc/bl_usdhc.o
                                                  ./source/drivers/sdmmc/fsl_sd.o
                                                  ./source/drivers/sdmmc/fsl_mmc.o
USDHC_TransferBlocking                            ./source/drivers/usdhc/bl_usdhc.o
                                                  ./source/drivers/sdmmc/fsl_sdmmc_host.o
USDHC_TransferCreateHandle                        ./source/drivers/usdhc/bl_usdhc.o
USDHC_TransferHandleIRQ                           ./source/drivers/usdhc/bl_usdhc.o
USDHC_TransferNonBlocking                         ./source/drivers/usdhc/bl_usdhc.o
UsageFault_Handler                                ./startup/startup_MIMXRT1052.o
WDOG1_IRQHandler                                  ./startup/startup_MIMXRT1052.o
WDOG2_IRQHandler                                  ./startup/startup_MIMXRT1052.o
__DATA_END                                        ./source/property/src/property_imx.o
                                                  ./startup/startup.o
__DATA_RAM                                        ./source/property/src/property_imx.o
                                                  ./startup/startup.o
__DATA_ROM                                        ./startup/startup.o
__END_BSS                                         ./startup/startup.o
__END_USBGLOBAL                                   ./startup/startup.o
__STACK_TOP                                       ./source/property/src/property_imx.o
__START_BSS                                       ./startup/startup.o
__START_USBGLOBAL                                 ./startup/startup.o
__StackTop                                        ./startup/startup_MIMXRT1052.o
                                                  ./startup/crt0_gcc.o
__Vectors                                         ./source/property/src/property_imx.o
                                                  ./startup/startup.o
__aeabi_idiv0                                     c:/nxp/mcuxpressoide_11.6.1_8255/ide/plugins/com.nxp.mcuxpresso.tools.win32_11.6.1.202207200623/tools/bin/../lib/gcc/arm-none-eabi/10.3.1/thumb/v7e-m+dp/hard\libgcc.a(_dvmd_tls.o)
__aeabi_ldiv0                                     c:/nxp/mcuxpressoide_11.6.1_8255/ide/plugins/com.nxp.mcuxpresso.tools.win32_11.6.1.202207200623/tools/bin/../lib/gcc/arm-none-eabi/10.3.1/thumb/v7e-m+dp/hard\libgcc.a(_dvmd_tls.o)
                                                  c:/nxp/mcuxpressoide_11.6.1_8255/ide/plugins/com.nxp.mcuxpresso.tools.win32_11.6.1.202207200623/tools/bin/../lib/gcc/arm-none-eabi/10.3.1/thumb/v7e-m+dp/hard\libgcc.a(_aeabi_uldivmod.o)
                                                  c:/nxp/mcuxpressoide_11.6.1_8255/ide/plugins/com.nxp.mcuxpresso.tools.win32_11.6.1.202207200623/tools/bin/../lib/gcc/arm-none-eabi/10.3.1/thumb/v7e-m+dp/hard\libgcc.a(_aeabi_ldivmod.o)
__aeabi_ldivmod                                   c:/nxp/mcuxpressoide_11.6.1_8255/ide/plugins/com.nxp.mcuxpresso.tools.win32_11.6.1.202207200623/tools/bin/../lib/gcc/arm-none-eabi/10.3.1/thumb/v7e-m+dp/hard\libgcc.a(_aeabi_ldivmod.o)
                                                  ./drivers/fsl_lpspi.o
                                                  ./source/drivers/ocotp/bl_ocotp.o
__aeabi_uldivmod                                  c:/nxp/mcuxpressoide_11.6.1_8255/ide/plugins/com.nxp.mcuxpresso.tools.win32_11.6.1.202207200623/tools/bin/../lib/gcc/arm-none-eabi/10.3.1/thumb/v7e-m+dp/hard\libgcc.a(_aeabi_uldivmod.o)
                                                  ./drivers/fsl_lpspi.o
                                                  ./drivers/fsl_common_arm.o
                                                  ./source/drivers/ocotp/bl_ocotp.o
                                                  ./source/utilities/src/fsl_rtos_abstraction.o
__assert                                          c:/nxp/mcuxpressoide_11.6.1_8255/ide/plugins/com.nxp.mcuxpresso.tools.win32_11.6.1.202207200623/tools/bin/../lib/gcc/arm-none-eabi/10.3.1/../../../../arm-none-eabi/lib/thumb/v7e-m+dp/hard\libc_nano.a(lib_a-assert.o)
__assert_func                                     c:/nxp/mcuxpressoide_11.6.1_8255/ide/plugins/com.nxp.mcuxpresso.tools.win32_11.6.1.202207200623/tools/bin/../lib/gcc/arm-none-eabi/10.3.1/../../../../arm-none-eabi/lib/thumb/v7e-m+dp/hard\libc_nano.a(lib_a-assert.o)
                                                  ./component/osa/fsl_os_abstraction_bm.o
                                                  ./drivers/fsl_lpuart.o
                                                  ./drivers/fsl_lpspi.o
                                                  ./drivers/fsl_gpio.o
                                                  ./drivers/fsl_common_arm.o
                                                  ./drivers/fsl_clock.o
                                                  ./source/bootloader/src/bl_main.o
                                                  ./source/bootloader/src/bl_command.o
                                                  ./source/crc/crc32.o
                                                  ./source/crc/crc16.o
                                                  ./source/drivers/ocotp/bl_ocotp.o
                                                  ./source/drivers/sdmmc/fsl_sdmmc_common.o
                                                  ./source/drivers/sdmmc/fsl_sd.o
                                                  ./source/drivers/sdmmc/fsl_mmc.o
                                                  ./source/drivers/semc_nand/semc_nand_flash.o
                                                  ./source/drivers/semc_nor/semc_nor_flash.o
                                                  ./source/drivers/trng/bl_trng.o
                                                  ./source/drivers/usdhc/bl_usdhc.o
                                                  ./source/memory/src/spinand_memory.o
                                                  ./source/memory/src/semc_nor_memory.o
                                                  ./source/memory/src/sd_memory.o
                                                  ./source/memory/src/mmc_memory.o
                                                  ./source/memory/src/memory.o
                                                  ./source/memory/src/flexspi_nor_memory.o
                                                  ./source/packet/src/serial_packet.o
                                                  ./source/sbloader/src/sbloader.o
                                                  ./source/utilities/src/fsl_rtos_abstraction.o
__check_heap_overflow                             c:/nxp/mcuxpressoide_11.6.1_8255/ide/plugins/com.nxp.mcuxpresso.tools.win32_11.6.1.202207200623/tools/bin/../lib/gcc/arm-none-eabi/10.3.1/../../../../arm-none-eabi/lib/thumb/v7e-m+dp/hard\libcr_newlib_none.a(_cr_check_heap.o)
                                                  c:/nxp/mcuxpressoide_11.6.1_8255/ide/plugins/com.nxp.mcuxpresso.tools.win32_11.6.1.202207200623/tools/bin/../lib/gcc/arm-none-eabi/10.3.1/../../../../arm-none-eabi/lib/thumb/v7e-m+dp/hard\libcr_newlib_none.a(_cr_sbrk.o)
__data_end__                                      ./startup/startup_MIMXRT1052.o
__data_start__                                    ./startup/startup_MIMXRT1052.o
__end_of_heap                                     c:/nxp/mcuxpressoide_11.6.1_8255/ide/plugins/com.nxp.mcuxpresso.tools.win32_11.6.1.202207200623/tools/bin/../lib/gcc/arm-none-eabi/10.3.1/../../../../arm-none-eabi/lib/thumb/v7e-m+dp/hard\libcr_newlib_none.a(_cr_sbrk.o)
__errno                                           c:/nxp/mcuxpressoide_11.6.1_8255/ide/plugins/com.nxp.mcuxpresso.tools.win32_11.6.1.202207200623/tools/bin/../lib/gcc/arm-none-eabi/10.3.1/../../../../arm-none-eabi/lib/thumb/v7e-m+dp/hard\libc_nano.a(lib_a-errno.o)
                                                  c:/nxp/mcuxpressoide_11.6.1_8255/ide/plugins/com.nxp.mcuxpresso.tools.win32_11.6.1.202207200623/tools/bin/../lib/gcc/arm-none-eabi/10.3.1/../../../../arm-none-eabi/lib/thumb/v7e-m+dp/hard\libcr_newlib_none.a(_cr_sbrk.o)
__etext                                           ./startup/startup_MIMXRT1052.o
__fp_lock_all                                     c:/nxp/mcuxpressoide_11.6.1_8255/ide/plugins/com.nxp.mcuxpresso.tools.win32_11.6.1.202207200623/tools/bin/../lib/gcc/arm-none-eabi/10.3.1/../../../../arm-none-eabi/lib/thumb/v7e-m+dp/hard\libc_nano.a(lib_a-findfp.o)
__fp_unlock_all                                   c:/nxp/mcuxpressoide_11.6.1_8255/ide/plugins/com.nxp.mcuxpresso.tools.win32_11.6.1.202207200623/tools/bin/../lib/gcc/arm-none-eabi/10.3.1/../../../../arm-none-eabi/lib/thumb/v7e-m+dp/hard\libc_nano.a(lib_a-findfp.o)
__isr_vector                                      ./startup/startup_MIMXRT1052.o
                                                  ./startup/crt0_gcc.o
__lock___arc4random_mutex                         c:/nxp/mcuxpressoide_11.6.1_8255/ide/plugins/com.nxp.mcuxpresso.tools.win32_11.6.1.202207200623/tools/bin/../lib/gcc/arm-none-eabi/10.3.1/../../../../arm-none-eabi/lib/thumb/v7e-m+dp/hard\libc_nano.a(lib_a-lock.o)
__lock___at_quick_exit_mutex                      c:/nxp/mcuxpressoide_11.6.1_8255/ide/plugins/com.nxp.mcuxpresso.tools.win32_11.6.1.202207200623/tools/bin/../lib/gcc/arm-none-eabi/10.3.1/../../../../arm-none-eabi/lib/thumb/v7e-m+dp/hard\libc_nano.a(lib_a-lock.o)
__lock___atexit_recursive_mutex                   c:/nxp/mcuxpressoide_11.6.1_8255/ide/plugins/com.nxp.mcuxpresso.tools.win32_11.6.1.202207200623/tools/bin/../lib/gcc/arm-none-eabi/10.3.1/../../../../arm-none-eabi/lib/thumb/v7e-m+dp/hard\libc_nano.a(lib_a-lock.o)
__lock___dd_hash_mutex                            c:/nxp/mcuxpressoide_11.6.1_8255/ide/plugins/com.nxp.mcuxpresso.tools.win32_11.6.1.202207200623/tools/bin/../lib/gcc/arm-none-eabi/10.3.1/../../../../arm-none-eabi/lib/thumb/v7e-m+dp/hard\libc_nano.a(lib_a-lock.o)
__lock___env_recursive_mutex                      c:/nxp/mcuxpressoide_11.6.1_8255/ide/plugins/com.nxp.mcuxpresso.tools.win32_11.6.1.202207200623/tools/bin/../lib/gcc/arm-none-eabi/10.3.1/../../../../arm-none-eabi/lib/thumb/v7e-m+dp/hard\libc_nano.a(lib_a-lock.o)
__lock___malloc_recursive_mutex                   c:/nxp/mcuxpressoide_11.6.1_8255/ide/plugins/com.nxp.mcuxpresso.tools.win32_11.6.1.202207200623/tools/bin/../lib/gcc/arm-none-eabi/10.3.1/../../../../arm-none-eabi/lib/thumb/v7e-m+dp/hard\libc_nano.a(lib_a-lock.o)
                                                  c:/nxp/mcuxpressoide_11.6.1_8255/ide/plugins/com.nxp.mcuxpresso.tools.win32_11.6.1.202207200623/tools/bin/../lib/gcc/arm-none-eabi/10.3.1/../../../../arm-none-eabi/lib/thumb/v7e-m+dp/hard\libc_nano.a(lib_a-mlock.o)
__lock___sfp_recursive_mutex                      c:/nxp/mcuxpressoide_11.6.1_8255/ide/plugins/com.nxp.mcuxpresso.tools.win32_11.6.1.202207200623/tools/bin/../lib/gcc/arm-none-eabi/10.3.1/../../../../arm-none-eabi/lib/thumb/v7e-m+dp/hard\libc_nano.a(lib_a-lock.o)
                                                  c:/nxp/mcuxpressoide_11.6.1_8255/ide/plugins/com.nxp.mcuxpresso.tools.win32_11.6.1.202207200623/tools/bin/../lib/gcc/arm-none-eabi/10.3.1/../../../../arm-none-eabi/lib/thumb/v7e-m+dp/hard\libc_nano.a(lib_a-findfp.o)
__lock___sinit_recursive_mutex                    c:/nxp/mcuxpressoide_11.6.1_8255/ide/plugins/com.nxp.mcuxpresso.tools.win32_11.6.1.202207200623/tools/bin/../lib/gcc/arm-none-eabi/10.3.1/../../../../arm-none-eabi/lib/thumb/v7e-m+dp/hard\libc_nano.a(lib_a-lock.o)
                                                  c:/nxp/mcuxpressoide_11.6.1_8255/ide/plugins/com.nxp.mcuxpresso.tools.win32_11.6.1.202207200623/tools/bin/../lib/gcc/arm-none-eabi/10.3.1/../../../../arm-none-eabi/lib/thumb/v7e-m+dp/hard\libc_nano.a(lib_a-findfp.o)
__lock___tz_mutex                                 c:/nxp/mcuxpressoide_11.6.1_8255/ide/plugins/com.nxp.mcuxpresso.tools.win32_11.6.1.202207200623/tools/bin/../lib/gcc/arm-none-eabi/10.3.1/../../../../arm-none-eabi/lib/thumb/v7e-m+dp/hard\libc_nano.a(lib_a-lock.o)
__malloc_free_list                                c:/nxp/mcuxpressoide_11.6.1_8255/ide/plugins/com.nxp.mcuxpresso.tools.win32_11.6.1.202207200623/tools/bin/../lib/gcc/arm-none-eabi/10.3.1/../../../../arm-none-eabi/lib/thumb/v7e-m+dp/hard\libc_nano.a(lib_a-nano-mallocr.o)
                                                  c:/nxp/mcuxpressoide_11.6.1_8255/ide/plugins/com.nxp.mcuxpresso.tools.win32_11.6.1.202207200623/tools/bin/../lib/gcc/arm-none-eabi/10.3.1/../../../../arm-none-eabi/lib/thumb/v7e-m+dp/hard\libc_nano.a(lib_a-nano-freer.o)
__malloc_lock                                     c:/nxp/mcuxpressoide_11.6.1_8255/ide/plugins/com.nxp.mcuxpresso.tools.win32_11.6.1.202207200623/tools/bin/../lib/gcc/arm-none-eabi/10.3.1/../../../../arm-none-eabi/lib/thumb/v7e-m+dp/hard\libc_nano.a(lib_a-mlock.o)
                                                  c:/nxp/mcuxpressoide_11.6.1_8255/ide/plugins/com.nxp.mcuxpresso.tools.win32_11.6.1.202207200623/tools/bin/../lib/gcc/arm-none-eabi/10.3.1/../../../../arm-none-eabi/lib/thumb/v7e-m+dp/hard\libc_nano.a(lib_a-nano-mallocr.o)
                                                  c:/nxp/mcuxpressoide_11.6.1_8255/ide/plugins/com.nxp.mcuxpresso.tools.win32_11.6.1.202207200623/tools/bin/../lib/gcc/arm-none-eabi/10.3.1/../../../../arm-none-eabi/lib/thumb/v7e-m+dp/hard\libc_nano.a(lib_a-nano-freer.o)
__malloc_sbrk_start                               c:/nxp/mcuxpressoide_11.6.1_8255/ide/plugins/com.nxp.mcuxpresso.tools.win32_11.6.1.202207200623/tools/bin/../lib/gcc/arm-none-eabi/10.3.1/../../../../arm-none-eabi/lib/thumb/v7e-m+dp/hard\libc_nano.a(lib_a-nano-mallocr.o)
__malloc_unlock                                   c:/nxp/mcuxpressoide_11.6.1_8255/ide/plugins/com.nxp.mcuxpresso.tools.win32_11.6.1.202207200623/tools/bin/../lib/gcc/arm-none-eabi/10.3.1/../../../../arm-none-eabi/lib/thumb/v7e-m+dp/hard\libc_nano.a(lib_a-mlock.o)
                                                  c:/nxp/mcuxpressoide_11.6.1_8255/ide/plugins/com.nxp.mcuxpresso.tools.win32_11.6.1.202207200623/tools/bin/../lib/gcc/arm-none-eabi/10.3.1/../../../../arm-none-eabi/lib/thumb/v7e-m+dp/hard\libc_nano.a(lib_a-nano-mallocr.o)
                                                  c:/nxp/mcuxpressoide_11.6.1_8255/ide/plugins/com.nxp.mcuxpresso.tools.win32_11.6.1.202207200623/tools/bin/../lib/gcc/arm-none-eabi/10.3.1/../../../../arm-none-eabi/lib/thumb/v7e-m+dp/hard\libc_nano.a(lib_a-nano-freer.o)
__retarget_lock_acquire                           c:/nxp/mcuxpressoide_11.6.1_8255/ide/plugins/com.nxp.mcuxpresso.tools.win32_11.6.1.202207200623/tools/bin/../lib/gcc/arm-none-eabi/10.3.1/../../../../arm-none-eabi/lib/thumb/v7e-m+dp/hard\libc_nano.a(lib_a-lock.o)
__retarget_lock_acquire_recursive                 c:/nxp/mcuxpressoide_11.6.1_8255/ide/plugins/com.nxp.mcuxpresso.tools.win32_11.6.1.202207200623/tools/bin/../lib/gcc/arm-none-eabi/10.3.1/../../../../arm-none-eabi/lib/thumb/v7e-m+dp/hard\libc_nano.a(lib_a-lock.o)
                                                  c:/nxp/mcuxpressoide_11.6.1_8255/ide/plugins/com.nxp.mcuxpresso.tools.win32_11.6.1.202207200623/tools/bin/../lib/gcc/arm-none-eabi/10.3.1/../../../../arm-none-eabi/lib/thumb/v7e-m+dp/hard\libc_nano.a(lib_a-mlock.o)
                                                  c:/nxp/mcuxpressoide_11.6.1_8255/ide/plugins/com.nxp.mcuxpresso.tools.win32_11.6.1.202207200623/tools/bin/../lib/gcc/arm-none-eabi/10.3.1/../../../../arm-none-eabi/lib/thumb/v7e-m+dp/hard\libc_nano.a(lib_a-findfp.o)
                                                  c:/nxp/mcuxpressoide_11.6.1_8255/ide/plugins/com.nxp.mcuxpresso.tools.win32_11.6.1.202207200623/tools/bin/../lib/gcc/arm-none-eabi/10.3.1/../../../../arm-none-eabi/lib/thumb/v7e-m+dp/hard\libc_nano.a(lib_a-fflush.o)
                                                  c:/nxp/mcuxpressoide_11.6.1_8255/ide/plugins/com.nxp.mcuxpresso.tools.win32_11.6.1.202207200623/tools/bin/../lib/gcc/arm-none-eabi/10.3.1/../../../../arm-none-eabi/lib/thumb/v7e-m+dp/hard\libc_nano.a(lib_a-nano-vfprintf.o)
__retarget_lock_close                             c:/nxp/mcuxpressoide_11.6.1_8255/ide/plugins/com.nxp.mcuxpresso.tools.win32_11.6.1.202207200623/tools/bin/../lib/gcc/arm-none-eabi/10.3.1/../../../../arm-none-eabi/lib/thumb/v7e-m+dp/hard\libc_nano.a(lib_a-lock.o)
__retarget_lock_close_recursive                   c:/nxp/mcuxpressoide_11.6.1_8255/ide/plugins/com.nxp.mcuxpresso.tools.win32_11.6.1.202207200623/tools/bin/../lib/gcc/arm-none-eabi/10.3.1/../../../../arm-none-eabi/lib/thumb/v7e-m+dp/hard\libc_nano.a(lib_a-lock.o)
__retarget_lock_init                              c:/nxp/mcuxpressoide_11.6.1_8255/ide/plugins/com.nxp.mcuxpresso.tools.win32_11.6.1.202207200623/tools/bin/../lib/gcc/arm-none-eabi/10.3.1/../../../../arm-none-eabi/lib/thumb/v7e-m+dp/hard\libc_nano.a(lib_a-lock.o)
__retarget_lock_init_recursive                    c:/nxp/mcuxpressoide_11.6.1_8255/ide/plugins/com.nxp.mcuxpresso.tools.win32_11.6.1.202207200623/tools/bin/../lib/gcc/arm-none-eabi/10.3.1/../../../../arm-none-eabi/lib/thumb/v7e-m+dp/hard\libc_nano.a(lib_a-lock.o)
                                                  c:/nxp/mcuxpressoide_11.6.1_8255/ide/plugins/com.nxp.mcuxpresso.tools.win32_11.6.1.202207200623/tools/bin/../lib/gcc/arm-none-eabi/10.3.1/../../../../arm-none-eabi/lib/thumb/v7e-m+dp/hard\libc_nano.a(lib_a-findfp.o)
__retarget_lock_release                           c:/nxp/mcuxpressoide_11.6.1_8255/ide/plugins/com.nxp.mcuxpresso.tools.win32_11.6.1.202207200623/tools/bin/../lib/gcc/arm-none-eabi/10.3.1/../../../../arm-none-eabi/lib/thumb/v7e-m+dp/hard\libc_nano.a(lib_a-lock.o)
__retarget_lock_release_recursive                 c:/nxp/mcuxpressoide_11.6.1_8255/ide/plugins/com.nxp.mcuxpresso.tools.win32_11.6.1.202207200623/tools/bin/../lib/gcc/arm-none-eabi/10.3.1/../../../../arm-none-eabi/lib/thumb/v7e-m+dp/hard\libc_nano.a(lib_a-lock.o)
                                                  c:/nxp/mcuxpressoide_11.6.1_8255/ide/plugins/com.nxp.mcuxpresso.tools.win32_11.6.1.202207200623/tools/bin/../lib/gcc/arm-none-eabi/10.3.1/../../../../arm-none-eabi/lib/thumb/v7e-m+dp/hard\libc_nano.a(lib_a-mlock.o)
                                                  c:/nxp/mcuxpressoide_11.6.1_8255/ide/plugins/com.nxp.mcuxpresso.tools.win32_11.6.1.202207200623/tools/bin/../lib/gcc/arm-none-eabi/10.3.1/../../../../arm-none-eabi/lib/thumb/v7e-m+dp/hard\libc_nano.a(lib_a-findfp.o)
                                                  c:/nxp/mcuxpressoide_11.6.1_8255/ide/plugins/com.nxp.mcuxpresso.tools.win32_11.6.1.202207200623/tools/bin/../lib/gcc/arm-none-eabi/10.3.1/../../../../arm-none-eabi/lib/thumb/v7e-m+dp/hard\libc_nano.a(lib_a-fflush.o)
                                                  c:/nxp/mcuxpressoide_11.6.1_8255/ide/plugins/com.nxp.mcuxpresso.tools.win32_11.6.1.202207200623/tools/bin/../lib/gcc/arm-none-eabi/10.3.1/../../../../arm-none-eabi/lib/thumb/v7e-m+dp/hard\libc_nano.a(lib_a-nano-vfprintf.o)
__retarget_lock_try_acquire                       c:/nxp/mcuxpressoide_11.6.1_8255/ide/plugins/com.nxp.mcuxpresso.tools.win32_11.6.1.202207200623/tools/bin/../lib/gcc/arm-none-eabi/10.3.1/../../../../arm-none-eabi/lib/thumb/v7e-m+dp/hard\libc_nano.a(lib_a-lock.o)
__retarget_lock_try_acquire_recursive             c:/nxp/mcuxpressoide_11.6.1_8255/ide/plugins/com.nxp.mcuxpresso.tools.win32_11.6.1.202207200623/tools/bin/../lib/gcc/arm-none-eabi/10.3.1/../../../../arm-none-eabi/lib/thumb/v7e-m+dp/hard\libc_nano.a(lib_a-lock.o)
__sclose                                          c:/nxp/mcuxpressoide_11.6.1_8255/ide/plugins/com.nxp.mcuxpresso.tools.win32_11.6.1.202207200623/tools/bin/../lib/gcc/arm-none-eabi/10.3.1/../../../../arm-none-eabi/lib/thumb/v7e-m+dp/hard\libc_nano.a(lib_a-stdio.o)
                                                  c:/nxp/mcuxpressoide_11.6.1_8255/ide/plugins/com.nxp.mcuxpresso.tools.win32_11.6.1.202207200623/tools/bin/../lib/gcc/arm-none-eabi/10.3.1/../../../../arm-none-eabi/lib/thumb/v7e-m+dp/hard\libc_nano.a(lib_a-findfp.o)
__seofread                                        c:/nxp/mcuxpressoide_11.6.1_8255/ide/plugins/com.nxp.mcuxpresso.tools.win32_11.6.1.202207200623/tools/bin/../lib/gcc/arm-none-eabi/10.3.1/../../../../arm-none-eabi/lib/thumb/v7e-m+dp/hard\libc_nano.a(lib_a-stdio.o)
__sf_fake_stderr                                  c:/nxp/mcuxpressoide_11.6.1_8255/ide/plugins/com.nxp.mcuxpresso.tools.win32_11.6.1.202207200623/tools/bin/../lib/gcc/arm-none-eabi/10.3.1/../../../../arm-none-eabi/lib/thumb/v7e-m+dp/hard\libc_nano.a(lib_a-findfp.o)
                                                  c:/nxp/mcuxpressoide_11.6.1_8255/ide/plugins/com.nxp.mcuxpresso.tools.win32_11.6.1.202207200623/tools/bin/../lib/gcc/arm-none-eabi/10.3.1/../../../../arm-none-eabi/lib/thumb/v7e-m+dp/hard\libc_nano.a(lib_a-fflush.o)
                                                  c:/nxp/mcuxpressoide_11.6.1_8255/ide/plugins/com.nxp.mcuxpresso.tools.win32_11.6.1.202207200623/tools/bin/../lib/gcc/arm-none-eabi/10.3.1/../../../../arm-none-eabi/lib/thumb/v7e-m+dp/hard\libc_nano.a(lib_a-wsetup.o)
                                                  c:/nxp/mcuxpressoide_11.6.1_8255/ide/plugins/com.nxp.mcuxpresso.tools.win32_11.6.1.202207200623/tools/bin/../lib/gcc/arm-none-eabi/10.3.1/../../../../arm-none-eabi/lib/thumb/v7e-m+dp/hard\libc_nano.a(lib_a-wbuf.o)
                                                  c:/nxp/mcuxpressoide_11.6.1_8255/ide/plugins/com.nxp.mcuxpresso.tools.win32_11.6.1.202207200623/tools/bin/../lib/gcc/arm-none-eabi/10.3.1/../../../../arm-none-eabi/lib/thumb/v7e-m+dp/hard\libc_nano.a(lib_a-nano-vfprintf.o)
                                                  c:/nxp/mcuxpressoide_11.6.1_8255/ide/plugins/com.nxp.mcuxpresso.tools.win32_11.6.1.202207200623/tools/bin/../lib/gcc/arm-none-eabi/10.3.1/../../../../arm-none-eabi/lib/thumb/v7e-m+dp/hard\libc_nano.a(lib_a-impure.o)
__sf_fake_stdin                                   c:/nxp/mcuxpressoide_11.6.1_8255/ide/plugins/com.nxp.mcuxpresso.tools.win32_11.6.1.202207200623/tools/bin/../lib/gcc/arm-none-eabi/10.3.1/../../../../arm-none-eabi/lib/thumb/v7e-m+dp/hard\libc_nano.a(lib_a-findfp.o)
                                                  c:/nxp/mcuxpressoide_11.6.1_8255/ide/plugins/com.nxp.mcuxpresso.tools.win32_11.6.1.202207200623/tools/bin/../lib/gcc/arm-none-eabi/10.3.1/../../../../arm-none-eabi/lib/thumb/v7e-m+dp/hard\libc_nano.a(lib_a-fflush.o)
                                                  c:/nxp/mcuxpressoide_11.6.1_8255/ide/plugins/com.nxp.mcuxpresso.tools.win32_11.6.1.202207200623/tools/bin/../lib/gcc/arm-none-eabi/10.3.1/../../../../arm-none-eabi/lib/thumb/v7e-m+dp/hard\libc_nano.a(lib_a-wsetup.o)
                                                  c:/nxp/mcuxpressoide_11.6.1_8255/ide/plugins/com.nxp.mcuxpresso.tools.win32_11.6.1.202207200623/tools/bin/../lib/gcc/arm-none-eabi/10.3.1/../../../../arm-none-eabi/lib/thumb/v7e-m+dp/hard\libc_nano.a(lib_a-wbuf.o)
                                                  c:/nxp/mcuxpressoide_11.6.1_8255/ide/plugins/com.nxp.mcuxpresso.tools.win32_11.6.1.202207200623/tools/bin/../lib/gcc/arm-none-eabi/10.3.1/../../../../arm-none-eabi/lib/thumb/v7e-m+dp/hard\libc_nano.a(lib_a-nano-vfprintf.o)
                                                  c:/nxp/mcuxpressoide_11.6.1_8255/ide/plugins/com.nxp.mcuxpresso.tools.win32_11.6.1.202207200623/tools/bin/../lib/gcc/arm-none-eabi/10.3.1/../../../../arm-none-eabi/lib/thumb/v7e-m+dp/hard\libc_nano.a(lib_a-impure.o)
__sf_fake_stdout                                  c:/nxp/mcuxpressoide_11.6.1_8255/ide/plugins/com.nxp.mcuxpresso.tools.win32_11.6.1.202207200623/tools/bin/../lib/gcc/arm-none-eabi/10.3.1/../../../../arm-none-eabi/lib/thumb/v7e-m+dp/hard\libc_nano.a(lib_a-findfp.o)
                                                  c:/nxp/mcuxpressoide_11.6.1_8255/ide/plugins/com.nxp.mcuxpresso.tools.win32_11.6.1.202207200623/tools/bin/../lib/gcc/arm-none-eabi/10.3.1/../../../../arm-none-eabi/lib/thumb/v7e-m+dp/hard\libc_nano.a(lib_a-fflush.o)
                                                  c:/nxp/mcuxpressoide_11.6.1_8255/ide/plugins/com.nxp.mcuxpresso.tools.win32_11.6.1.202207200623/tools/bin/../lib/gcc/arm-none-eabi/10.3.1/../../../../arm-none-eabi/lib/thumb/v7e-m+dp/hard\libc_nano.a(lib_a-wsetup.o)
                                                  c:/nxp/mcuxpressoide_11.6.1_8255/ide/plugins/com.nxp.mcuxpresso.tools.win32_11.6.1.202207200623/tools/bin/../lib/gcc/arm-none-eabi/10.3.1/../../../../arm-none-eabi/lib/thumb/v7e-m+dp/hard\libc_nano.a(lib_a-wbuf.o)
                                                  c:/nxp/mcuxpressoide_11.6.1_8255/ide/plugins/com.nxp.mcuxpresso.tools.win32_11.6.1.202207200623/tools/bin/../lib/gcc/arm-none-eabi/10.3.1/../../../../arm-none-eabi/lib/thumb/v7e-m+dp/hard\libc_nano.a(lib_a-nano-vfprintf.o)
                                                  c:/nxp/mcuxpressoide_11.6.1_8255/ide/plugins/com.nxp.mcuxpresso.tools.win32_11.6.1.202207200623/tools/bin/../lib/gcc/arm-none-eabi/10.3.1/../../../../arm-none-eabi/lib/thumb/v7e-m+dp/hard\libc_nano.a(lib_a-impure.o)
__sflush_r                                        c:/nxp/mcuxpressoide_11.6.1_8255/ide/plugins/com.nxp.mcuxpresso.tools.win32_11.6.1.202207200623/tools/bin/../lib/gcc/arm-none-eabi/10.3.1/../../../../arm-none-eabi/lib/thumb/v7e-m+dp/hard\libc_nano.a(lib_a-fflush.o)
__sfmoreglue                                      c:/nxp/mcuxpressoide_11.6.1_8255/ide/plugins/com.nxp.mcuxpresso.tools.win32_11.6.1.202207200623/tools/bin/../lib/gcc/arm-none-eabi/10.3.1/../../../../arm-none-eabi/lib/thumb/v7e-m+dp/hard\libc_nano.a(lib_a-findfp.o)
__sfp                                             c:/nxp/mcuxpressoide_11.6.1_8255/ide/plugins/com.nxp.mcuxpresso.tools.win32_11.6.1.202207200623/tools/bin/../lib/gcc/arm-none-eabi/10.3.1/../../../../arm-none-eabi/lib/thumb/v7e-m+dp/hard\libc_nano.a(lib_a-findfp.o)
__sfp_lock_acquire                                c:/nxp/mcuxpressoide_11.6.1_8255/ide/plugins/com.nxp.mcuxpresso.tools.win32_11.6.1.202207200623/tools/bin/../lib/gcc/arm-none-eabi/10.3.1/../../../../arm-none-eabi/lib/thumb/v7e-m+dp/hard\libc_nano.a(lib_a-findfp.o)
__sfp_lock_release                                c:/nxp/mcuxpressoide_11.6.1_8255/ide/plugins/com.nxp.mcuxpresso.tools.win32_11.6.1.202207200623/tools/bin/../lib/gcc/arm-none-eabi/10.3.1/../../../../arm-none-eabi/lib/thumb/v7e-m+dp/hard\libc_nano.a(lib_a-findfp.o)
__sfputs_r                                        c:/nxp/mcuxpressoide_11.6.1_8255/ide/plugins/com.nxp.mcuxpresso.tools.win32_11.6.1.202207200623/tools/bin/../lib/gcc/arm-none-eabi/10.3.1/../../../../arm-none-eabi/lib/thumb/v7e-m+dp/hard\libc_nano.a(lib_a-nano-vfprintf.o)
__sfvwrite_r                                      c:/nxp/mcuxpressoide_11.6.1_8255/ide/plugins/com.nxp.mcuxpresso.tools.win32_11.6.1.202207200623/tools/bin/../lib/gcc/arm-none-eabi/10.3.1/../../../../arm-none-eabi/lib/thumb/v7e-m+dp/hard\libc_nano.a(lib_a-fvwrite.o)
                                                  c:/nxp/mcuxpressoide_11.6.1_8255/ide/plugins/com.nxp.mcuxpresso.tools.win32_11.6.1.202207200623/tools/bin/../lib/gcc/arm-none-eabi/10.3.1/../../../../arm-none-eabi/lib/thumb/v7e-m+dp/hard\libc_nano.a(lib_a-nano-vfprintf.o)
__sigtramp                                        c:/nxp/mcuxpressoide_11.6.1_8255/ide/plugins/com.nxp.mcuxpresso.tools.win32_11.6.1.202207200623/tools/bin/../lib/gcc/arm-none-eabi/10.3.1/../../../../arm-none-eabi/lib/thumb/v7e-m+dp/hard\libc_nano.a(lib_a-signal.o)
__sigtramp_r                                      c:/nxp/mcuxpressoide_11.6.1_8255/ide/plugins/com.nxp.mcuxpresso.tools.win32_11.6.1.202207200623/tools/bin/../lib/gcc/arm-none-eabi/10.3.1/../../../../arm-none-eabi/lib/thumb/v7e-m+dp/hard\libc_nano.a(lib_a-signal.o)
__sinit                                           c:/nxp/mcuxpressoide_11.6.1_8255/ide/plugins/com.nxp.mcuxpresso.tools.win32_11.6.1.202207200623/tools/bin/../lib/gcc/arm-none-eabi/10.3.1/../../../../arm-none-eabi/lib/thumb/v7e-m+dp/hard\libc_nano.a(lib_a-findfp.o)
                                                  c:/nxp/mcuxpressoide_11.6.1_8255/ide/plugins/com.nxp.mcuxpresso.tools.win32_11.6.1.202207200623/tools/bin/../lib/gcc/arm-none-eabi/10.3.1/../../../../arm-none-eabi/lib/thumb/v7e-m+dp/hard\libc_nano.a(lib_a-fflush.o)
                                                  c:/nxp/mcuxpressoide_11.6.1_8255/ide/plugins/com.nxp.mcuxpresso.tools.win32_11.6.1.202207200623/tools/bin/../lib/gcc/arm-none-eabi/10.3.1/../../../../arm-none-eabi/lib/thumb/v7e-m+dp/hard\libc_nano.a(lib_a-wsetup.o)
                                                  c:/nxp/mcuxpressoide_11.6.1_8255/ide/plugins/com.nxp.mcuxpresso.tools.win32_11.6.1.202207200623/tools/bin/../lib/gcc/arm-none-eabi/10.3.1/../../../../arm-none-eabi/lib/thumb/v7e-m+dp/hard\libc_nano.a(lib_a-wbuf.o)
                                                  c:/nxp/mcuxpressoide_11.6.1_8255/ide/plugins/com.nxp.mcuxpresso.tools.win32_11.6.1.202207200623/tools/bin/../lib/gcc/arm-none-eabi/10.3.1/../../../../arm-none-eabi/lib/thumb/v7e-m+dp/hard\libc_nano.a(lib_a-nano-vfprintf.o)
__sinit_lock_acquire                              c:/nxp/mcuxpressoide_11.6.1_8255/ide/plugins/com.nxp.mcuxpresso.tools.win32_11.6.1.202207200623/tools/bin/../lib/gcc/arm-none-eabi/10.3.1/../../../../arm-none-eabi/lib/thumb/v7e-m+dp/hard\libc_nano.a(lib_a-findfp.o)
__sinit_lock_release                              c:/nxp/mcuxpressoide_11.6.1_8255/ide/plugins/com.nxp.mcuxpresso.tools.win32_11.6.1.202207200623/tools/bin/../lib/gcc/arm-none-eabi/10.3.1/../../../../arm-none-eabi/lib/thumb/v7e-m+dp/hard\libc_nano.a(lib_a-findfp.o)
__smakebuf_r                                      c:/nxp/mcuxpressoide_11.6.1_8255/ide/plugins/com.nxp.mcuxpresso.tools.win32_11.6.1.202207200623/tools/bin/../lib/gcc/arm-none-eabi/10.3.1/../../../../arm-none-eabi/lib/thumb/v7e-m+dp/hard\libc_nano.a(lib_a-makebuf.o)
                                                  c:/nxp/mcuxpressoide_11.6.1_8255/ide/plugins/com.nxp.mcuxpresso.tools.win32_11.6.1.202207200623/tools/bin/../lib/gcc/arm-none-eabi/10.3.1/../../../../arm-none-eabi/lib/thumb/v7e-m+dp/hard\libc_nano.a(lib_a-wsetup.o)
__sprint_r                                        c:/nxp/mcuxpressoide_11.6.1_8255/ide/plugins/com.nxp.mcuxpresso.tools.win32_11.6.1.202207200623/tools/bin/../lib/gcc/arm-none-eabi/10.3.1/../../../../arm-none-eabi/lib/thumb/v7e-m+dp/hard\libc_nano.a(lib_a-nano-vfprintf.o)
__sread                                           c:/nxp/mcuxpressoide_11.6.1_8255/ide/plugins/com.nxp.mcuxpresso.tools.win32_11.6.1.202207200623/tools/bin/../lib/gcc/arm-none-eabi/10.3.1/../../../../arm-none-eabi/lib/thumb/v7e-m+dp/hard\libc_nano.a(lib_a-stdio.o)
                                                  c:/nxp/mcuxpressoide_11.6.1_8255/ide/plugins/com.nxp.mcuxpresso.tools.win32_11.6.1.202207200623/tools/bin/../lib/gcc/arm-none-eabi/10.3.1/../../../../arm-none-eabi/lib/thumb/v7e-m+dp/hard\libc_nano.a(lib_a-findfp.o)
__sseek                                           c:/nxp/mcuxpressoide_11.6.1_8255/ide/plugins/com.nxp.mcuxpresso.tools.win32_11.6.1.202207200623/tools/bin/../lib/gcc/arm-none-eabi/10.3.1/../../../../arm-none-eabi/lib/thumb/v7e-m+dp/hard\libc_nano.a(lib_a-stdio.o)
                                                  c:/nxp/mcuxpressoide_11.6.1_8255/ide/plugins/com.nxp.mcuxpresso.tools.win32_11.6.1.202207200623/tools/bin/../lib/gcc/arm-none-eabi/10.3.1/../../../../arm-none-eabi/lib/thumb/v7e-m+dp/hard\libc_nano.a(lib_a-findfp.o)
__swbuf                                           c:/nxp/mcuxpressoide_11.6.1_8255/ide/plugins/com.nxp.mcuxpresso.tools.win32_11.6.1.202207200623/tools/bin/../lib/gcc/arm-none-eabi/10.3.1/../../../../arm-none-eabi/lib/thumb/v7e-m+dp/hard\libc_nano.a(lib_a-wbuf.o)
__swbuf_r                                         c:/nxp/mcuxpressoide_11.6.1_8255/ide/plugins/com.nxp.mcuxpresso.tools.win32_11.6.1.202207200623/tools/bin/../lib/gcc/arm-none-eabi/10.3.1/../../../../arm-none-eabi/lib/thumb/v7e-m+dp/hard\libc_nano.a(lib_a-wbuf.o)
                                                  c:/nxp/mcuxpressoide_11.6.1_8255/ide/plugins/com.nxp.mcuxpresso.tools.win32_11.6.1.202207200623/tools/bin/../lib/gcc/arm-none-eabi/10.3.1/../../../../arm-none-eabi/lib/thumb/v7e-m+dp/hard\libc_nano.a(lib_a-nano-vfprintf.o)
__swhatbuf_r                                      c:/nxp/mcuxpressoide_11.6.1_8255/ide/plugins/com.nxp.mcuxpresso.tools.win32_11.6.1.202207200623/tools/bin/../lib/gcc/arm-none-eabi/10.3.1/../../../../arm-none-eabi/lib/thumb/v7e-m+dp/hard\libc_nano.a(lib_a-makebuf.o)
__swrite                                          c:/nxp/mcuxpressoide_11.6.1_8255/ide/plugins/com.nxp.mcuxpresso.tools.win32_11.6.1.202207200623/tools/bin/../lib/gcc/arm-none-eabi/10.3.1/../../../../arm-none-eabi/lib/thumb/v7e-m+dp/hard\libc_nano.a(lib_a-stdio.o)
                                                  c:/nxp/mcuxpressoide_11.6.1_8255/ide/plugins/com.nxp.mcuxpresso.tools.win32_11.6.1.202207200623/tools/bin/../lib/gcc/arm-none-eabi/10.3.1/../../../../arm-none-eabi/lib/thumb/v7e-m+dp/hard\libc_nano.a(lib_a-findfp.o)
__swsetup_r                                       c:/nxp/mcuxpressoide_11.6.1_8255/ide/plugins/com.nxp.mcuxpresso.tools.win32_11.6.1.202207200623/tools/bin/../lib/gcc/arm-none-eabi/10.3.1/../../../../arm-none-eabi/lib/thumb/v7e-m+dp/hard\libc_nano.a(lib_a-wsetup.o)
                                                  c:/nxp/mcuxpressoide_11.6.1_8255/ide/plugins/com.nxp.mcuxpresso.tools.win32_11.6.1.202207200623/tools/bin/../lib/gcc/arm-none-eabi/10.3.1/../../../../arm-none-eabi/lib/thumb/v7e-m+dp/hard\libc_nano.a(lib_a-fvwrite.o)
                                                  c:/nxp/mcuxpressoide_11.6.1_8255/ide/plugins/com.nxp.mcuxpresso.tools.win32_11.6.1.202207200623/tools/bin/../lib/gcc/arm-none-eabi/10.3.1/../../../../arm-none-eabi/lib/thumb/v7e-m+dp/hard\libc_nano.a(lib_a-wbuf.o)
                                                  c:/nxp/mcuxpressoide_11.6.1_8255/ide/plugins/com.nxp.mcuxpresso.tools.win32_11.6.1.202207200623/tools/bin/../lib/gcc/arm-none-eabi/10.3.1/../../../../arm-none-eabi/lib/thumb/v7e-m+dp/hard\libc_nano.a(lib_a-nano-vfprintf.o)
__udivmoddi4                                      c:/nxp/mcuxpressoide_11.6.1_8255/ide/plugins/com.nxp.mcuxpresso.tools.win32_11.6.1.202207200623/tools/bin/../lib/gcc/arm-none-eabi/10.3.1/thumb/v7e-m+dp/hard\libgcc.a(_udivmoddi4.o)
                                                  c:/nxp/mcuxpressoide_11.6.1_8255/ide/plugins/com.nxp.mcuxpresso.tools.win32_11.6.1.202207200623/tools/bin/../lib/gcc/arm-none-eabi/10.3.1/thumb/v7e-m+dp/hard\libgcc.a(_aeabi_uldivmod.o)
                                                  c:/nxp/mcuxpressoide_11.6.1_8255/ide/plugins/com.nxp.mcuxpresso.tools.win32_11.6.1.202207200623/tools/bin/../lib/gcc/arm-none-eabi/10.3.1/thumb/v7e-m+dp/hard\libgcc.a(_aeabi_ldivmod.o)
_cleanup                                          c:/nxp/mcuxpressoide_11.6.1_8255/ide/plugins/com.nxp.mcuxpresso.tools.win32_11.6.1.202207200623/tools/bin/../lib/gcc/arm-none-eabi/10.3.1/../../../../arm-none-eabi/lib/thumb/v7e-m+dp/hard\libc_nano.a(lib_a-findfp.o)
_cleanup_r                                        c:/nxp/mcuxpressoide_11.6.1_8255/ide/plugins/com.nxp.mcuxpresso.tools.win32_11.6.1.202207200623/tools/bin/../lib/gcc/arm-none-eabi/10.3.1/../../../../arm-none-eabi/lib/thumb/v7e-m+dp/hard\libc_nano.a(lib_a-findfp.o)
                                                  c:/nxp/mcuxpressoide_11.6.1_8255/ide/plugins/com.nxp.mcuxpresso.tools.win32_11.6.1.202207200623/tools/bin/../lib/gcc/arm-none-eabi/10.3.1/../../../../arm-none-eabi/lib/thumb/v7e-m+dp/hard\libc_nano.a(lib_a-makebuf.o)
_close                                            c:/nxp/mcuxpressoide_11.6.1_8255/ide/plugins/com.nxp.mcuxpresso.tools.win32_11.6.1.202207200623/tools/bin/../lib/gcc/arm-none-eabi/10.3.1/../../../../arm-none-eabi/lib/thumb/v7e-m+dp/hard\libnosys.a(close.o)
                                                  c:/nxp/mcuxpressoide_11.6.1_8255/ide/plugins/com.nxp.mcuxpresso.tools.win32_11.6.1.202207200623/tools/bin/../lib/gcc/arm-none-eabi/10.3.1/../../../../arm-none-eabi/lib/thumb/v7e-m+dp/hard\libc_nano.a(lib_a-closer.o)
_close_r                                          c:/nxp/mcuxpressoide_11.6.1_8255/ide/plugins/com.nxp.mcuxpresso.tools.win32_11.6.1.202207200623/tools/bin/../lib/gcc/arm-none-eabi/10.3.1/../../../../arm-none-eabi/lib/thumb/v7e-m+dp/hard\libc_nano.a(lib_a-closer.o)
                                                  c:/nxp/mcuxpressoide_11.6.1_8255/ide/plugins/com.nxp.mcuxpresso.tools.win32_11.6.1.202207200623/tools/bin/../lib/gcc/arm-none-eabi/10.3.1/../../../../arm-none-eabi/lib/thumb/v7e-m+dp/hard\libc_nano.a(lib_a-stdio.o)
_exit                                             c:/nxp/mcuxpressoide_11.6.1_8255/ide/plugins/com.nxp.mcuxpresso.tools.win32_11.6.1.202207200623/tools/bin/../lib/gcc/arm-none-eabi/10.3.1/../../../../arm-none-eabi/lib/thumb/v7e-m+dp/hard\libnosys.a(_exit.o)
                                                  c:/nxp/mcuxpressoide_11.6.1_8255/ide/plugins/com.nxp.mcuxpresso.tools.win32_11.6.1.202207200623/tools/bin/../lib/gcc/arm-none-eabi/10.3.1/../../../../arm-none-eabi/lib/thumb/v7e-m+dp/hard\libc_nano.a(lib_a-abort.o)
_fflush_r                                         c:/nxp/mcuxpressoide_11.6.1_8255/ide/plugins/com.nxp.mcuxpresso.tools.win32_11.6.1.202207200623/tools/bin/../lib/gcc/arm-none-eabi/10.3.1/../../../../arm-none-eabi/lib/thumb/v7e-m+dp/hard\libc_nano.a(lib_a-fflush.o)
                                                  c:/nxp/mcuxpressoide_11.6.1_8255/ide/plugins/com.nxp.mcuxpresso.tools.win32_11.6.1.202207200623/tools/bin/../lib/gcc/arm-none-eabi/10.3.1/../../../../arm-none-eabi/lib/thumb/v7e-m+dp/hard\libc_nano.a(lib_a-fvwrite.o)
                                                  c:/nxp/mcuxpressoide_11.6.1_8255/ide/plugins/com.nxp.mcuxpresso.tools.win32_11.6.1.202207200623/tools/bin/../lib/gcc/arm-none-eabi/10.3.1/../../../../arm-none-eabi/lib/thumb/v7e-m+dp/hard\libc_nano.a(lib_a-findfp.o)
                                                  c:/nxp/mcuxpressoide_11.6.1_8255/ide/plugins/com.nxp.mcuxpresso.tools.win32_11.6.1.202207200623/tools/bin/../lib/gcc/arm-none-eabi/10.3.1/../../../../arm-none-eabi/lib/thumb/v7e-m+dp/hard\libc_nano.a(lib_a-wbuf.o)
_fiprintf_r                                       c:/nxp/mcuxpressoide_11.6.1_8255/ide/plugins/com.nxp.mcuxpresso.tools.win32_11.6.1.202207200623/tools/bin/../lib/gcc/arm-none-eabi/10.3.1/../../../../arm-none-eabi/lib/thumb/v7e-m+dp/hard\libc_nano.a(lib_a-fprintf.o)
_fprintf_r                                        c:/nxp/mcuxpressoide_11.6.1_8255/ide/plugins/com.nxp.mcuxpresso.tools.win32_11.6.1.202207200623/tools/bin/../lib/gcc/arm-none-eabi/10.3.1/../../../../arm-none-eabi/lib/thumb/v7e-m+dp/hard\libc_nano.a(lib_a-fprintf.o)
_free_r                                           c:/nxp/mcuxpressoide_11.6.1_8255/ide/plugins/com.nxp.mcuxpresso.tools.win32_11.6.1.202207200623/tools/bin/../lib/gcc/arm-none-eabi/10.3.1/../../../../arm-none-eabi/lib/thumb/v7e-m+dp/hard\libc_nano.a(lib_a-nano-freer.o)
                                                  c:/nxp/mcuxpressoide_11.6.1_8255/ide/plugins/com.nxp.mcuxpresso.tools.win32_11.6.1.202207200623/tools/bin/../lib/gcc/arm-none-eabi/10.3.1/../../../../arm-none-eabi/lib/thumb/v7e-m+dp/hard\libc_nano.a(lib_a-reent.o)
                                                  c:/nxp/mcuxpressoide_11.6.1_8255/ide/plugins/com.nxp.mcuxpresso.tools.win32_11.6.1.202207200623/tools/bin/../lib/gcc/arm-none-eabi/10.3.1/../../../../arm-none-eabi/lib/thumb/v7e-m+dp/hard\libc_nano.a(lib_a-nano-reallocr.o)
                                                  c:/nxp/mcuxpressoide_11.6.1_8255/ide/plugins/com.nxp.mcuxpresso.tools.win32_11.6.1.202207200623/tools/bin/../lib/gcc/arm-none-eabi/10.3.1/../../../../arm-none-eabi/lib/thumb/v7e-m+dp/hard\libc_nano.a(lib_a-fvwrite.o)
                                                  c:/nxp/mcuxpressoide_11.6.1_8255/ide/plugins/com.nxp.mcuxpresso.tools.win32_11.6.1.202207200623/tools/bin/../lib/gcc/arm-none-eabi/10.3.1/../../../../arm-none-eabi/lib/thumb/v7e-m+dp/hard\libc_nano.a(lib_a-fflush.o)
                                                  c:/nxp/mcuxpressoide_11.6.1_8255/ide/plugins/com.nxp.mcuxpresso.tools.win32_11.6.1.202207200623/tools/bin/../lib/gcc/arm-none-eabi/10.3.1/../../../../arm-none-eabi/lib/thumb/v7e-m+dp/hard\libc_nano.a(lib_a-wsetup.o)
                                                  c:/nxp/mcuxpressoide_11.6.1_8255/ide/plugins/com.nxp.mcuxpresso.tools.win32_11.6.1.202207200623/tools/bin/../lib/gcc/arm-none-eabi/10.3.1/../../../../arm-none-eabi/lib/thumb/v7e-m+dp/hard\libc_nano.a(lib_a-malloc.o)
_fstat                                            c:/nxp/mcuxpressoide_11.6.1_8255/ide/plugins/com.nxp.mcuxpresso.tools.win32_11.6.1.202207200623/tools/bin/../lib/gcc/arm-none-eabi/10.3.1/../../../../arm-none-eabi/lib/thumb/v7e-m+dp/hard\libnosys.a(fstat.o)
                                                  c:/nxp/mcuxpressoide_11.6.1_8255/ide/plugins/com.nxp.mcuxpresso.tools.win32_11.6.1.202207200623/tools/bin/../lib/gcc/arm-none-eabi/10.3.1/../../../../arm-none-eabi/lib/thumb/v7e-m+dp/hard\libc_nano.a(lib_a-fstatr.o)
_fstat_r                                          c:/nxp/mcuxpressoide_11.6.1_8255/ide/plugins/com.nxp.mcuxpresso.tools.win32_11.6.1.202207200623/tools/bin/../lib/gcc/arm-none-eabi/10.3.1/../../../../arm-none-eabi/lib/thumb/v7e-m+dp/hard\libc_nano.a(lib_a-fstatr.o)
                                                  c:/nxp/mcuxpressoide_11.6.1_8255/ide/plugins/com.nxp.mcuxpresso.tools.win32_11.6.1.202207200623/tools/bin/../lib/gcc/arm-none-eabi/10.3.1/../../../../arm-none-eabi/lib/thumb/v7e-m+dp/hard\libc_nano.a(lib_a-makebuf.o)
_fwalk                                            c:/nxp/mcuxpressoide_11.6.1_8255/ide/plugins/com.nxp.mcuxpresso.tools.win32_11.6.1.202207200623/tools/bin/../lib/gcc/arm-none-eabi/10.3.1/../../../../arm-none-eabi/lib/thumb/v7e-m+dp/hard\libc_nano.a(lib_a-fwalk.o)
                                                  c:/nxp/mcuxpressoide_11.6.1_8255/ide/plugins/com.nxp.mcuxpresso.tools.win32_11.6.1.202207200623/tools/bin/../lib/gcc/arm-none-eabi/10.3.1/../../../../arm-none-eabi/lib/thumb/v7e-m+dp/hard\libc_nano.a(lib_a-findfp.o)
_fwalk_reent                                      c:/nxp/mcuxpressoide_11.6.1_8255/ide/plugins/com.nxp.mcuxpresso.tools.win32_11.6.1.202207200623/tools/bin/../lib/gcc/arm-none-eabi/10.3.1/../../../../arm-none-eabi/lib/thumb/v7e-m+dp/hard\libc_nano.a(lib_a-fwalk.o)
                                                  c:/nxp/mcuxpressoide_11.6.1_8255/ide/plugins/com.nxp.mcuxpresso.tools.win32_11.6.1.202207200623/tools/bin/../lib/gcc/arm-none-eabi/10.3.1/../../../../arm-none-eabi/lib/thumb/v7e-m+dp/hard\libc_nano.a(lib_a-findfp.o)
                                                  c:/nxp/mcuxpressoide_11.6.1_8255/ide/plugins/com.nxp.mcuxpresso.tools.win32_11.6.1.202207200623/tools/bin/../lib/gcc/arm-none-eabi/10.3.1/../../../../arm-none-eabi/lib/thumb/v7e-m+dp/hard\libc_nano.a(lib_a-fflush.o)
_getpid                                           c:/nxp/mcuxpressoide_11.6.1_8255/ide/plugins/com.nxp.mcuxpresso.tools.win32_11.6.1.202207200623/tools/bin/../lib/gcc/arm-none-eabi/10.3.1/../../../../arm-none-eabi/lib/thumb/v7e-m+dp/hard\libnosys.a(getpid.o)
                                                  c:/nxp/mcuxpressoide_11.6.1_8255/ide/plugins/com.nxp.mcuxpresso.tools.win32_11.6.1.202207200623/tools/bin/../lib/gcc/arm-none-eabi/10.3.1/../../../../arm-none-eabi/lib/thumb/v7e-m+dp/hard\libc_nano.a(lib_a-signalr.o)
_getpid_r                                         c:/nxp/mcuxpressoide_11.6.1_8255/ide/plugins/com.nxp.mcuxpresso.tools.win32_11.6.1.202207200623/tools/bin/../lib/gcc/arm-none-eabi/10.3.1/../../../../arm-none-eabi/lib/thumb/v7e-m+dp/hard\libc_nano.a(lib_a-signalr.o)
                                                  c:/nxp/mcuxpressoide_11.6.1_8255/ide/plugins/com.nxp.mcuxpresso.tools.win32_11.6.1.202207200623/tools/bin/../lib/gcc/arm-none-eabi/10.3.1/../../../../arm-none-eabi/lib/thumb/v7e-m+dp/hard\libc_nano.a(lib_a-signal.o)
_global_impure_ptr                                c:/nxp/mcuxpressoide_11.6.1_8255/ide/plugins/com.nxp.mcuxpresso.tools.win32_11.6.1.202207200623/tools/bin/../lib/gcc/arm-none-eabi/10.3.1/../../../../arm-none-eabi/lib/thumb/v7e-m+dp/hard\libc_nano.a(lib_a-impure.o)
                                                  c:/nxp/mcuxpressoide_11.6.1_8255/ide/plugins/com.nxp.mcuxpresso.tools.win32_11.6.1.202207200623/tools/bin/../lib/gcc/arm-none-eabi/10.3.1/../../../../arm-none-eabi/lib/thumb/v7e-m+dp/hard\libc_nano.a(lib_a-findfp.o)
                                                  c:/nxp/mcuxpressoide_11.6.1_8255/ide/plugins/com.nxp.mcuxpresso.tools.win32_11.6.1.202207200623/tools/bin/../lib/gcc/arm-none-eabi/10.3.1/../../../../arm-none-eabi/lib/thumb/v7e-m+dp/hard\libc_nano.a(lib_a-fflush.o)
_impure_ptr                                       c:/nxp/mcuxpressoide_11.6.1_8255/ide/plugins/com.nxp.mcuxpresso.tools.win32_11.6.1.202207200623/tools/bin/../lib/gcc/arm-none-eabi/10.3.1/../../../../arm-none-eabi/lib/thumb/v7e-m+dp/hard\libc_nano.a(lib_a-impure.o)
                                                  c:/nxp/mcuxpressoide_11.6.1_8255/ide/plugins/com.nxp.mcuxpresso.tools.win32_11.6.1.202207200623/tools/bin/../lib/gcc/arm-none-eabi/10.3.1/../../../../arm-none-eabi/lib/thumb/v7e-m+dp/hard\libc_nano.a(lib_a-errno.o)
                                                  c:/nxp/mcuxpressoide_11.6.1_8255/ide/plugins/com.nxp.mcuxpresso.tools.win32_11.6.1.202207200623/tools/bin/../lib/gcc/arm-none-eabi/10.3.1/../../../../arm-none-eabi/lib/thumb/v7e-m+dp/hard\libc_nano.a(lib_a-signal.o)
                                                  c:/nxp/mcuxpressoide_11.6.1_8255/ide/plugins/com.nxp.mcuxpresso.tools.win32_11.6.1.202207200623/tools/bin/../lib/gcc/arm-none-eabi/10.3.1/../../../../arm-none-eabi/lib/thumb/v7e-m+dp/hard\libc_nano.a(lib_a-reent.o)
                                                  c:/nxp/mcuxpressoide_11.6.1_8255/ide/plugins/com.nxp.mcuxpresso.tools.win32_11.6.1.202207200623/tools/bin/../lib/gcc/arm-none-eabi/10.3.1/../../../../arm-none-eabi/lib/thumb/v7e-m+dp/hard\libc_nano.a(lib_a-findfp.o)
                                                  c:/nxp/mcuxpressoide_11.6.1_8255/ide/plugins/com.nxp.mcuxpresso.tools.win32_11.6.1.202207200623/tools/bin/../lib/gcc/arm-none-eabi/10.3.1/../../../../arm-none-eabi/lib/thumb/v7e-m+dp/hard\libc_nano.a(lib_a-fflush.o)
                                                  c:/nxp/mcuxpressoide_11.6.1_8255/ide/plugins/com.nxp.mcuxpresso.tools.win32_11.6.1.202207200623/tools/bin/../lib/gcc/arm-none-eabi/10.3.1/../../../../arm-none-eabi/lib/thumb/v7e-m+dp/hard\libc_nano.a(lib_a-wsetup.o)
                                                  c:/nxp/mcuxpressoide_11.6.1_8255/ide/plugins/com.nxp.mcuxpresso.tools.win32_11.6.1.202207200623/tools/bin/../lib/gcc/arm-none-eabi/10.3.1/../../../../arm-none-eabi/lib/thumb/v7e-m+dp/hard\libc_nano.a(lib_a-wbuf.o)
                                                  c:/nxp/mcuxpressoide_11.6.1_8255/ide/plugins/com.nxp.mcuxpresso.tools.win32_11.6.1.202207200623/tools/bin/../lib/gcc/arm-none-eabi/10.3.1/../../../../arm-none-eabi/lib/thumb/v7e-m+dp/hard\libc_nano.a(lib_a-nano-vfprintf.o)
                                                  c:/nxp/mcuxpressoide_11.6.1_8255/ide/plugins/com.nxp.mcuxpresso.tools.win32_11.6.1.202207200623/tools/bin/../lib/gcc/arm-none-eabi/10.3.1/../../../../arm-none-eabi/lib/thumb/v7e-m+dp/hard\libc_nano.a(lib_a-malloc.o)
                                                  c:/nxp/mcuxpressoide_11.6.1_8255/ide/plugins/com.nxp.mcuxpresso.tools.win32_11.6.1.202207200623/tools/bin/../lib/gcc/arm-none-eabi/10.3.1/../../../../arm-none-eabi/lib/thumb/v7e-m+dp/hard\libc_nano.a(lib_a-fprintf.o)
                                                  c:/nxp/mcuxpressoide_11.6.1_8255/ide/plugins/com.nxp.mcuxpresso.tools.win32_11.6.1.202207200623/tools/bin/../lib/gcc/arm-none-eabi/10.3.1/../../../../arm-none-eabi/lib/thumb/v7e-m+dp/hard\libc_nano.a(lib_a-assert.o)
_init_signal                                      c:/nxp/mcuxpressoide_11.6.1_8255/ide/plugins/com.nxp.mcuxpresso.tools.win32_11.6.1.202207200623/tools/bin/../lib/gcc/arm-none-eabi/10.3.1/../../../../arm-none-eabi/lib/thumb/v7e-m+dp/hard\libc_nano.a(lib_a-signal.o)
_init_signal_r                                    c:/nxp/mcuxpressoide_11.6.1_8255/ide/plugins/com.nxp.mcuxpresso.tools.win32_11.6.1.202207200623/tools/bin/../lib/gcc/arm-none-eabi/10.3.1/../../../../arm-none-eabi/lib/thumb/v7e-m+dp/hard\libc_nano.a(lib_a-signal.o)
_isatty                                           c:/nxp/mcuxpressoide_11.6.1_8255/ide/plugins/com.nxp.mcuxpresso.tools.win32_11.6.1.202207200623/tools/bin/../lib/gcc/arm-none-eabi/10.3.1/../../../../arm-none-eabi/lib/thumb/v7e-m+dp/hard\libnosys.a(isatty.o)
                                                  c:/nxp/mcuxpressoide_11.6.1_8255/ide/plugins/com.nxp.mcuxpresso.tools.win32_11.6.1.202207200623/tools/bin/../lib/gcc/arm-none-eabi/10.3.1/../../../../arm-none-eabi/lib/thumb/v7e-m+dp/hard\libc_nano.a(lib_a-isattyr.o)
_isatty_r                                         c:/nxp/mcuxpressoide_11.6.1_8255/ide/plugins/com.nxp.mcuxpresso.tools.win32_11.6.1.202207200623/tools/bin/../lib/gcc/arm-none-eabi/10.3.1/../../../../arm-none-eabi/lib/thumb/v7e-m+dp/hard\libc_nano.a(lib_a-isattyr.o)
                                                  c:/nxp/mcuxpressoide_11.6.1_8255/ide/plugins/com.nxp.mcuxpresso.tools.win32_11.6.1.202207200623/tools/bin/../lib/gcc/arm-none-eabi/10.3.1/../../../../arm-none-eabi/lib/thumb/v7e-m+dp/hard\libc_nano.a(lib_a-makebuf.o)
_kill                                             c:/nxp/mcuxpressoide_11.6.1_8255/ide/plugins/com.nxp.mcuxpresso.tools.win32_11.6.1.202207200623/tools/bin/../lib/gcc/arm-none-eabi/10.3.1/../../../../arm-none-eabi/lib/thumb/v7e-m+dp/hard\libnosys.a(kill.o)
                                                  c:/nxp/mcuxpressoide_11.6.1_8255/ide/plugins/com.nxp.mcuxpresso.tools.win32_11.6.1.202207200623/tools/bin/../lib/gcc/arm-none-eabi/10.3.1/../../../../arm-none-eabi/lib/thumb/v7e-m+dp/hard\libc_nano.a(lib_a-signalr.o)
_kill_r                                           c:/nxp/mcuxpressoide_11.6.1_8255/ide/plugins/com.nxp.mcuxpresso.tools.win32_11.6.1.202207200623/tools/bin/../lib/gcc/arm-none-eabi/10.3.1/../../../../arm-none-eabi/lib/thumb/v7e-m+dp/hard\libc_nano.a(lib_a-signalr.o)
                                                  c:/nxp/mcuxpressoide_11.6.1_8255/ide/plugins/com.nxp.mcuxpresso.tools.win32_11.6.1.202207200623/tools/bin/../lib/gcc/arm-none-eabi/10.3.1/../../../../arm-none-eabi/lib/thumb/v7e-m+dp/hard\libc_nano.a(lib_a-signal.o)
_lseek                                            c:/nxp/mcuxpressoide_11.6.1_8255/ide/plugins/com.nxp.mcuxpresso.tools.win32_11.6.1.202207200623/tools/bin/../lib/gcc/arm-none-eabi/10.3.1/../../../../arm-none-eabi/lib/thumb/v7e-m+dp/hard\libnosys.a(lseek.o)
                                                  c:/nxp/mcuxpressoide_11.6.1_8255/ide/plugins/com.nxp.mcuxpresso.tools.win32_11.6.1.202207200623/tools/bin/../lib/gcc/arm-none-eabi/10.3.1/../../../../arm-none-eabi/lib/thumb/v7e-m+dp/hard\libc_nano.a(lib_a-lseekr.o)
_lseek_r                                          c:/nxp/mcuxpressoide_11.6.1_8255/ide/plugins/com.nxp.mcuxpresso.tools.win32_11.6.1.202207200623/tools/bin/../lib/gcc/arm-none-eabi/10.3.1/../../../../arm-none-eabi/lib/thumb/v7e-m+dp/hard\libc_nano.a(lib_a-lseekr.o)
                                                  c:/nxp/mcuxpressoide_11.6.1_8255/ide/plugins/com.nxp.mcuxpresso.tools.win32_11.6.1.202207200623/tools/bin/../lib/gcc/arm-none-eabi/10.3.1/../../../../arm-none-eabi/lib/thumb/v7e-m+dp/hard\libc_nano.a(lib_a-stdio.o)
_malloc_r                                         c:/nxp/mcuxpressoide_11.6.1_8255/ide/plugins/com.nxp.mcuxpresso.tools.win32_11.6.1.202207200623/tools/bin/../lib/gcc/arm-none-eabi/10.3.1/../../../../arm-none-eabi/lib/thumb/v7e-m+dp/hard\libc_nano.a(lib_a-nano-mallocr.o)
                                                  c:/nxp/mcuxpressoide_11.6.1_8255/ide/plugins/com.nxp.mcuxpresso.tools.win32_11.6.1.202207200623/tools/bin/../lib/gcc/arm-none-eabi/10.3.1/../../../../arm-none-eabi/lib/thumb/v7e-m+dp/hard\libc_nano.a(lib_a-signal.o)
                                                  c:/nxp/mcuxpressoide_11.6.1_8255/ide/plugins/com.nxp.mcuxpresso.tools.win32_11.6.1.202207200623/tools/bin/../lib/gcc/arm-none-eabi/10.3.1/../../../../arm-none-eabi/lib/thumb/v7e-m+dp/hard\libc_nano.a(lib_a-nano-reallocr.o)
                                                  c:/nxp/mcuxpressoide_11.6.1_8255/ide/plugins/com.nxp.mcuxpresso.tools.win32_11.6.1.202207200623/tools/bin/../lib/gcc/arm-none-eabi/10.3.1/../../../../arm-none-eabi/lib/thumb/v7e-m+dp/hard\libc_nano.a(lib_a-makebuf.o)
                                                  c:/nxp/mcuxpressoide_11.6.1_8255/ide/plugins/com.nxp.mcuxpresso.tools.win32_11.6.1.202207200623/tools/bin/../lib/gcc/arm-none-eabi/10.3.1/../../../../arm-none-eabi/lib/thumb/v7e-m+dp/hard\libc_nano.a(lib_a-fvwrite.o)
                                                  c:/nxp/mcuxpressoide_11.6.1_8255/ide/plugins/com.nxp.mcuxpresso.tools.win32_11.6.1.202207200623/tools/bin/../lib/gcc/arm-none-eabi/10.3.1/../../../../arm-none-eabi/lib/thumb/v7e-m+dp/hard\libc_nano.a(lib_a-findfp.o)
                                                  c:/nxp/mcuxpressoide_11.6.1_8255/ide/plugins/com.nxp.mcuxpresso.tools.win32_11.6.1.202207200623/tools/bin/../lib/gcc/arm-none-eabi/10.3.1/../../../../arm-none-eabi/lib/thumb/v7e-m+dp/hard\libc_nano.a(lib_a-malloc.o)
_malloc_usable_size_r                             c:/nxp/mcuxpressoide_11.6.1_8255/ide/plugins/com.nxp.mcuxpresso.tools.win32_11.6.1.202207200623/tools/bin/../lib/gcc/arm-none-eabi/10.3.1/../../../../arm-none-eabi/lib/thumb/v7e-m+dp/hard\libc_nano.a(lib_a-nano-msizer.o)
                                                  c:/nxp/mcuxpressoide_11.6.1_8255/ide/plugins/com.nxp.mcuxpresso.tools.win32_11.6.1.202207200623/tools/bin/../lib/gcc/arm-none-eabi/10.3.1/../../../../arm-none-eabi/lib/thumb/v7e-m+dp/hard\libc_nano.a(lib_a-nano-reallocr.o)
_printf_common                                    c:/nxp/mcuxpressoide_11.6.1_8255/ide/plugins/com.nxp.mcuxpresso.tools.win32_11.6.1.202207200623/tools/bin/../lib/gcc/arm-none-eabi/10.3.1/../../../../arm-none-eabi/lib/thumb/v7e-m+dp/hard\libc_nano.a(lib_a-nano-vfprintf_i.o)
_printf_float                                     c:/nxp/mcuxpressoide_11.6.1_8255/ide/plugins/com.nxp.mcuxpresso.tools.win32_11.6.1.202207200623/tools/bin/../lib/gcc/arm-none-eabi/10.3.1/../../../../arm-none-eabi/lib/thumb/v7e-m+dp/hard\libc_nano.a(lib_a-nano-vfprintf.o)
_printf_i                                         c:/nxp/mcuxpressoide_11.6.1_8255/ide/plugins/com.nxp.mcuxpresso.tools.win32_11.6.1.202207200623/tools/bin/../lib/gcc/arm-none-eabi/10.3.1/../../../../arm-none-eabi/lib/thumb/v7e-m+dp/hard\libc_nano.a(lib_a-nano-vfprintf_i.o)
                                                  c:/nxp/mcuxpressoide_11.6.1_8255/ide/plugins/com.nxp.mcuxpresso.tools.win32_11.6.1.202207200623/tools/bin/../lib/gcc/arm-none-eabi/10.3.1/../../../../arm-none-eabi/lib/thumb/v7e-m+dp/hard\libc_nano.a(lib_a-nano-vfprintf.o)
_pvHeapLimit                                      c:/nxp/mcuxpressoide_11.6.1_8255/ide/plugins/com.nxp.mcuxpresso.tools.win32_11.6.1.202207200623/tools/bin/../lib/gcc/arm-none-eabi/10.3.1/../../../../arm-none-eabi/lib/thumb/v7e-m+dp/hard\libcr_newlib_none.a(_cr_check_heap.o)
_pvHeapStart                                      c:/nxp/mcuxpressoide_11.6.1_8255/ide/plugins/com.nxp.mcuxpresso.tools.win32_11.6.1.202207200623/tools/bin/../lib/gcc/arm-none-eabi/10.3.1/../../../../arm-none-eabi/lib/thumb/v7e-m+dp/hard\libcr_newlib_none.a(_cr_sbrk.o)
_raise_r                                          c:/nxp/mcuxpressoide_11.6.1_8255/ide/plugins/com.nxp.mcuxpresso.tools.win32_11.6.1.202207200623/tools/bin/../lib/gcc/arm-none-eabi/10.3.1/../../../../arm-none-eabi/lib/thumb/v7e-m+dp/hard\libc_nano.a(lib_a-signal.o)
_read                                             c:/nxp/mcuxpressoide_11.6.1_8255/ide/plugins/com.nxp.mcuxpresso.tools.win32_11.6.1.202207200623/tools/bin/../lib/gcc/arm-none-eabi/10.3.1/../../../../arm-none-eabi/lib/thumb/v7e-m+dp/hard\libnosys.a(read.o)
                                                  c:/nxp/mcuxpressoide_11.6.1_8255/ide/plugins/com.nxp.mcuxpresso.tools.win32_11.6.1.202207200623/tools/bin/../lib/gcc/arm-none-eabi/10.3.1/../../../../arm-none-eabi/lib/thumb/v7e-m+dp/hard\libc_nano.a(lib_a-readr.o)
_read_r                                           c:/nxp/mcuxpressoide_11.6.1_8255/ide/plugins/com.nxp.mcuxpresso.tools.win32_11.6.1.202207200623/tools/bin/../lib/gcc/arm-none-eabi/10.3.1/../../../../arm-none-eabi/lib/thumb/v7e-m+dp/hard\libc_nano.a(lib_a-readr.o)
                                                  c:/nxp/mcuxpressoide_11.6.1_8255/ide/plugins/com.nxp.mcuxpresso.tools.win32_11.6.1.202207200623/tools/bin/../lib/gcc/arm-none-eabi/10.3.1/../../../../arm-none-eabi/lib/thumb/v7e-m+dp/hard\libc_nano.a(lib_a-stdio.o)
_realloc_r                                        c:/nxp/mcuxpressoide_11.6.1_8255/ide/plugins/com.nxp.mcuxpresso.tools.win32_11.6.1.202207200623/tools/bin/../lib/gcc/arm-none-eabi/10.3.1/../../../../arm-none-eabi/lib/thumb/v7e-m+dp/hard\libc_nano.a(lib_a-nano-reallocr.o)
                                                  c:/nxp/mcuxpressoide_11.6.1_8255/ide/plugins/com.nxp.mcuxpresso.tools.win32_11.6.1.202207200623/tools/bin/../lib/gcc/arm-none-eabi/10.3.1/../../../../arm-none-eabi/lib/thumb/v7e-m+dp/hard\libc_nano.a(lib_a-fvwrite.o)
_reclaim_reent                                    c:/nxp/mcuxpressoide_11.6.1_8255/ide/plugins/com.nxp.mcuxpresso.tools.win32_11.6.1.202207200623/tools/bin/../lib/gcc/arm-none-eabi/10.3.1/../../../../arm-none-eabi/lib/thumb/v7e-m+dp/hard\libc_nano.a(lib_a-reent.o)
_sbrk                                             c:/nxp/mcuxpressoide_11.6.1_8255/ide/plugins/com.nxp.mcuxpresso.tools.win32_11.6.1.202207200623/tools/bin/../lib/gcc/arm-none-eabi/10.3.1/../../../../arm-none-eabi/lib/thumb/v7e-m+dp/hard\libcr_newlib_none.a(_cr_sbrk.o)
                                                  c:/nxp/mcuxpressoide_11.6.1_8255/ide/plugins/com.nxp.mcuxpresso.tools.win32_11.6.1.202207200623/tools/bin/../lib/gcc/arm-none-eabi/10.3.1/../../../../arm-none-eabi/lib/thumb/v7e-m+dp/hard\libc_nano.a(lib_a-sbrkr.o)
_sbrk_r                                           c:/nxp/mcuxpressoide_11.6.1_8255/ide/plugins/com.nxp.mcuxpresso.tools.win32_11.6.1.202207200623/tools/bin/../lib/gcc/arm-none-eabi/10.3.1/../../../../arm-none-eabi/lib/thumb/v7e-m+dp/hard\libc_nano.a(lib_a-sbrkr.o)
                                                  c:/nxp/mcuxpressoide_11.6.1_8255/ide/plugins/com.nxp.mcuxpresso.tools.win32_11.6.1.202207200623/tools/bin/../lib/gcc/arm-none-eabi/10.3.1/../../../../arm-none-eabi/lib/thumb/v7e-m+dp/hard\libc_nano.a(lib_a-nano-mallocr.o)
_signal_r                                         c:/nxp/mcuxpressoide_11.6.1_8255/ide/plugins/com.nxp.mcuxpresso.tools.win32_11.6.1.202207200623/tools/bin/../lib/gcc/arm-none-eabi/10.3.1/../../../../arm-none-eabi/lib/thumb/v7e-m+dp/hard\libc_nano.a(lib_a-signal.o)
_vfiprintf_r                                      c:/nxp/mcuxpressoide_11.6.1_8255/ide/plugins/com.nxp.mcuxpresso.tools.win32_11.6.1.202207200623/tools/bin/../lib/gcc/arm-none-eabi/10.3.1/../../../../arm-none-eabi/lib/thumb/v7e-m+dp/hard\libc_nano.a(lib_a-nano-vfprintf.o)
_vfprintf_r                                       c:/nxp/mcuxpressoide_11.6.1_8255/ide/plugins/com.nxp.mcuxpresso.tools.win32_11.6.1.202207200623/tools/bin/../lib/gcc/arm-none-eabi/10.3.1/../../../../arm-none-eabi/lib/thumb/v7e-m+dp/hard\libc_nano.a(lib_a-nano-vfprintf.o)
                                                  c:/nxp/mcuxpressoide_11.6.1_8255/ide/plugins/com.nxp.mcuxpresso.tools.win32_11.6.1.202207200623/tools/bin/../lib/gcc/arm-none-eabi/10.3.1/../../../../arm-none-eabi/lib/thumb/v7e-m+dp/hard\libc_nano.a(lib_a-fprintf.o)
_write                                            c:/nxp/mcuxpressoide_11.6.1_8255/ide/plugins/com.nxp.mcuxpresso.tools.win32_11.6.1.202207200623/tools/bin/../lib/gcc/arm-none-eabi/10.3.1/../../../../arm-none-eabi/lib/thumb/v7e-m+dp/hard\libnosys.a(write.o)
                                                  c:/nxp/mcuxpressoide_11.6.1_8255/ide/plugins/com.nxp.mcuxpresso.tools.win32_11.6.1.202207200623/tools/bin/../lib/gcc/arm-none-eabi/10.3.1/../../../../arm-none-eabi/lib/thumb/v7e-m+dp/hard\libc_nano.a(lib_a-writer.o)
_write_r                                          c:/nxp/mcuxpressoide_11.6.1_8255/ide/plugins/com.nxp.mcuxpresso.tools.win32_11.6.1.202207200623/tools/bin/../lib/gcc/arm-none-eabi/10.3.1/../../../../arm-none-eabi/lib/thumb/v7e-m+dp/hard\libc_nano.a(lib_a-writer.o)
                                                  c:/nxp/mcuxpressoide_11.6.1_8255/ide/plugins/com.nxp.mcuxpresso.tools.win32_11.6.1.202207200623/tools/bin/../lib/gcc/arm-none-eabi/10.3.1/../../../../arm-none-eabi/lib/thumb/v7e-m+dp/hard\libc_nano.a(lib_a-stdio.o)
abort                                             c:/nxp/mcuxpressoide_11.6.1_8255/ide/plugins/com.nxp.mcuxpresso.tools.win32_11.6.1.202207200623/tools/bin/../lib/gcc/arm-none-eabi/10.3.1/../../../../arm-none-eabi/lib/thumb/v7e-m+dp/hard\libc_nano.a(lib_a-abort.o)
                                                  c:/nxp/mcuxpressoide_11.6.1_8255/ide/plugins/com.nxp.mcuxpresso.tools.win32_11.6.1.202207200623/tools/bin/../lib/gcc/arm-none-eabi/10.3.1/../../../../arm-none-eabi/lib/thumb/v7e-m+dp/hard\libc_nano.a(lib_a-assert.o)
autobaud_deinit                                   ./source/autobaud/autobaud_irq.o
                                                  ./source/bootloader/src/lpuart_peripheral_interface.o
autobaud_get_rate                                 ./source/autobaud/autobaud_irq.o
                                                  ./source/bootloader/src/lpuart_peripheral_interface.o
autobaud_init                                     ./source/autobaud/autobaud_irq.o
                                                  ./source/bootloader/src/lpuart_peripheral_interface.o
bl_nor_encrypt_data                               ./source/bootloader/src/bl_nor_encrypt_bee.o
                                                  ./source/memory/src/flexspi_nor_memory.o
bl_nor_encrypt_get_config_block                   ./source/bootloader/src/bl_nor_encrypt_bee.o
                                                  ./source/memory/src/flexspi_nor_memory.o
bl_nor_encrypt_has_encrypted_region               ./source/bootloader/src/bl_nor_encrypt_bee.o
                                                  ./source/memory/src/flexspi_nor_memory.o
bl_nor_encrypt_init                               ./source/bootloader/src/bl_nor_encrypt_bee.o
                                                  ./source/memory/src/flexspi_nor_memory.o
bl_nor_encrypt_region_info_valid                  ./source/bootloader/src/bl_nor_encrypt_bee.o
                                                  ./source/memory/src/flexspi_nor_memory.o
bl_nor_encrypt_region_refresh                     ./source/bootloader/src/bl_nor_encrypt_bee.o
                                                  ./source/memory/src/flexspi_nor_memory.o
bl_nor_in_encrypted_region                        ./source/bootloader/src/bl_nor_encrypt_bee.o
                                                  ./source/memory/src/flexspi_nor_memory.o
bootloaderCopyright                               ./source/bootloader/src/bl_tree_root.o
bootloader_command_init                           ./source/bootloader/src/bl_command.o
bootloader_command_pump                           ./source/bootloader/src/bl_command.o
bootloader_get_external_memory_properties         ./source/property/src/property_imx.o
bootloader_property_get                           ./source/property/src/property_imx.o
bootloader_property_init                          ./source/property/src/property_imx.o
bootloader_property_load_user_config              ./source/property/src/property_imx.o
bootloader_property_set_uint32                    ./source/property/src/property_imx.o
bootloader_user_entry                             ./source/bootloader/src/bl_user_entry.o
                                                  ./source/bootloader/src/bl_tree_root.o
calculate_application_crc32                       ./source/bootloader/src/bl_app_crc_check.o
cleanup_glue                                      c:/nxp/mcuxpressoide_11.6.1_8255/ide/plugins/com.nxp.mcuxpresso.tools.win32_11.6.1.202207200623/tools/bin/../lib/gcc/arm-none-eabi/10.3.1/../../../../arm-none-eabi/lib/thumb/v7e-m+dp/hard\libc_nano.a(lib_a-reent.o)
clock_setup                                       ./MIMXRT1052/bl_clock_config_MIMXRT1052.o
configure_clocks                                  ./MIMXRT1052/bl_clock_config_MIMXRT1052.o
                                                  ./source/bootloader/src/bl_shutdown_cleanup.o
                                                  ./source/bootloader/src/bl_main.o
crc16_finalize                                    ./source/crc/crc16.o
                                                  ./source/drivers/semc_nand/semc_nand_flash.o
                                                  ./source/packet/src/serial_packet.o
crc16_init                                        ./source/crc/crc16.o
                                                  ./source/packet/src/serial_packet.o
crc16_onfi_init                                   ./source/crc/crc16.o
                                                  ./source/drivers/semc_nand/semc_nand_flash.o
crc16_onfi_update                                 ./source/crc/crc16.o
                                                  ./source/drivers/semc_nand/semc_nand_flash.o
crc16_update                                      ./source/crc/crc16.o
                                                  ./source/packet/src/serial_packet.o
crc32_finalize                                    ./source/crc/crc32.o
                                                  ./source/bootloader/src/bl_app_crc_check.o
                                                  ./source/memory/src/spinand_memory.o
                                                  ./source/memory/src/semc_nand_memory.o
                                                  ./source/sbloader/src/sbloader.o
crc32_init                                        ./source/crc/crc32.o
                                                  ./source/bootloader/src/bl_app_crc_check.o
                                                  ./source/memory/src/spinand_memory.o
                                                  ./source/memory/src/semc_nand_memory.o
                                                  ./source/sbloader/src/sbloader.o
crc32_update                                      ./source/crc/crc32.o
                                                  ./source/bootloader/src/bl_app_crc_check.o
                                                  ./source/memory/src/spinand_memory.o
                                                  ./source/memory/src/semc_nand_memory.o
                                                  ./source/sbloader/src/sbloader.o
dcp_aes_cbc_crypt                                 ./source/drivers/dcp/bl_dcp.o
                                                  ./source/bootloader/src/bl_nor_encrypt_bee.o
dcp_aes_ccm_auth_decrypt                          ./source/drivers/dcp/bl_dcp.o
dcp_aes_ccm_encrypt_and_mac                       ./source/drivers/dcp/bl_dcp.o
                                                  ./source/bootloader/src/bl_keyblob_dcp.o
dcp_aes_ctr_crypt                                 ./source/drivers/dcp/bl_dcp.o
                                                  ./source/bootloader/src/bl_nor_encrypt_bee.o
dcp_aes_ecb_crypt                                 ./source/drivers/dcp/bl_dcp.o
                                                  ./source/bootloader/src/bl_nor_encrypt_bee.o
                                                  ./source/bootloader/src/bl_keyblob_dcp.o
dcp_aes_exit                                      ./source/drivers/dcp/bl_dcp.o
dcp_aes_init                                      ./source/drivers/dcp/bl_dcp.o
                                                  ./source/bootloader/src/bl_nor_encrypt_bee.o
                                                  ./source/bootloader/src/bl_keyblob_dcp.o
dcp_aes_restore                                   ./source/drivers/dcp/bl_dcp.o
dcp_aes_set_key                                   ./source/drivers/dcp/bl_dcp.o
                                                  ./source/bootloader/src/bl_nor_encrypt_bee.o
                                                  ./source/bootloader/src/bl_keyblob_dcp.o
dcp_entry                                         ./source/drivers/dcp/bl_dcp.o
dcp_exit                                          ./source/drivers/dcp/bl_dcp.o
debug_init                                        ./MIMXRT1052/hardware_init_MIMXRT1052.o
debug_printf                                      ./source/utilities/src/debug_util.o
                                                  ./source/bootloader/src/usb_hid_msc_peripheral_interface.o
                                                  ./source/bootloader/src/bl_main.o
                                                  ./source/bootloader/src/bl_command.o
                                                  ./source/drivers/semc/bl_semc.o
                                                  ./source/drivers/semc_nand/semc_nand_flash.o
                                                  ./source/packet/src/serial_packet.o
                                                  ./source/sbloader/src/sbloader.o
deinit_hardware                                   ./MIMXRT1052/hardware_init_MIMXRT1052.o
                                                  ./source/bootloader/src/bl_shutdown_cleanup.o
disable_autobaud_pin_irq                          ./MIMXRT1052/pinmux_utility_imxrt_series.o
                                                  ./source/autobaud/autobaud_irq.o
dummy_byte_callback                               ./MIMXRT1052/hardware_init_MIMXRT1052.o
enable_autobaud_pin_irq                           ./MIMXRT1052/pinmux_utility_imxrt_series.o
                                                  ./source/autobaud/autobaud_irq.o
errno                                             c:/nxp/mcuxpressoide_11.6.1_8255/ide/plugins/com.nxp.mcuxpresso.tools.win32_11.6.1.202207200623/tools/bin/../lib/gcc/arm-none-eabi/10.3.1/../../../../arm-none-eabi/lib/thumb/v7e-m+dp/hard\libc_nano.a(lib_a-reent.o)
                                                  c:/nxp/mcuxpressoide_11.6.1_8255/ide/plugins/com.nxp.mcuxpresso.tools.win32_11.6.1.202207200623/tools/bin/../lib/gcc/arm-none-eabi/10.3.1/../../../../arm-none-eabi/lib/thumb/v7e-m+dp/hard\libnosys.a(write.o)
                                                  c:/nxp/mcuxpressoide_11.6.1_8255/ide/plugins/com.nxp.mcuxpresso.tools.win32_11.6.1.202207200623/tools/bin/../lib/gcc/arm-none-eabi/10.3.1/../../../../arm-none-eabi/lib/thumb/v7e-m+dp/hard\libnosys.a(read.o)
                                                  c:/nxp/mcuxpressoide_11.6.1_8255/ide/plugins/com.nxp.mcuxpresso.tools.win32_11.6.1.202207200623/tools/bin/../lib/gcc/arm-none-eabi/10.3.1/../../../../arm-none-eabi/lib/thumb/v7e-m+dp/hard\libnosys.a(lseek.o)
                                                  c:/nxp/mcuxpressoide_11.6.1_8255/ide/plugins/com.nxp.mcuxpresso.tools.win32_11.6.1.202207200623/tools/bin/../lib/gcc/arm-none-eabi/10.3.1/../../../../arm-none-eabi/lib/thumb/v7e-m+dp/hard\libnosys.a(kill.o)
                                                  c:/nxp/mcuxpressoide_11.6.1_8255/ide/plugins/com.nxp.mcuxpresso.tools.win32_11.6.1.202207200623/tools/bin/../lib/gcc/arm-none-eabi/10.3.1/../../../../arm-none-eabi/lib/thumb/v7e-m+dp/hard\libnosys.a(isatty.o)
                                                  c:/nxp/mcuxpressoide_11.6.1_8255/ide/plugins/com.nxp.mcuxpresso.tools.win32_11.6.1.202207200623/tools/bin/../lib/gcc/arm-none-eabi/10.3.1/../../../../arm-none-eabi/lib/thumb/v7e-m+dp/hard\libnosys.a(getpid.o)
                                                  c:/nxp/mcuxpressoide_11.6.1_8255/ide/plugins/com.nxp.mcuxpresso.tools.win32_11.6.1.202207200623/tools/bin/../lib/gcc/arm-none-eabi/10.3.1/../../../../arm-none-eabi/lib/thumb/v7e-m+dp/hard\libnosys.a(fstat.o)
                                                  c:/nxp/mcuxpressoide_11.6.1_8255/ide/plugins/com.nxp.mcuxpresso.tools.win32_11.6.1.202207200623/tools/bin/../lib/gcc/arm-none-eabi/10.3.1/../../../../arm-none-eabi/lib/thumb/v7e-m+dp/hard\libnosys.a(close.o)
                                                  c:/nxp/mcuxpressoide_11.6.1_8255/ide/plugins/com.nxp.mcuxpresso.tools.win32_11.6.1.202207200623/tools/bin/../lib/gcc/arm-none-eabi/10.3.1/../../../../arm-none-eabi/lib/thumb/v7e-m+dp/hard\libc_nano.a(lib_a-readr.o)
                                                  c:/nxp/mcuxpressoide_11.6.1_8255/ide/plugins/com.nxp.mcuxpresso.tools.win32_11.6.1.202207200623/tools/bin/../lib/gcc/arm-none-eabi/10.3.1/../../../../arm-none-eabi/lib/thumb/v7e-m+dp/hard\libc_nano.a(lib_a-lseekr.o)
                                                  c:/nxp/mcuxpressoide_11.6.1_8255/ide/plugins/com.nxp.mcuxpresso.tools.win32_11.6.1.202207200623/tools/bin/../lib/gcc/arm-none-eabi/10.3.1/../../../../arm-none-eabi/lib/thumb/v7e-m+dp/hard\libc_nano.a(lib_a-isattyr.o)
                                                  c:/nxp/mcuxpressoide_11.6.1_8255/ide/plugins/com.nxp.mcuxpresso.tools.win32_11.6.1.202207200623/tools/bin/../lib/gcc/arm-none-eabi/10.3.1/../../../../arm-none-eabi/lib/thumb/v7e-m+dp/hard\libc_nano.a(lib_a-fstatr.o)
                                                  c:/nxp/mcuxpressoide_11.6.1_8255/ide/plugins/com.nxp.mcuxpresso.tools.win32_11.6.1.202207200623/tools/bin/../lib/gcc/arm-none-eabi/10.3.1/../../../../arm-none-eabi/lib/thumb/v7e-m+dp/hard\libc_nano.a(lib_a-closer.o)
                                                  c:/nxp/mcuxpressoide_11.6.1_8255/ide/plugins/com.nxp.mcuxpresso.tools.win32_11.6.1.202207200623/tools/bin/../lib/gcc/arm-none-eabi/10.3.1/../../../../arm-none-eabi/lib/thumb/v7e-m+dp/hard\libc_nano.a(lib_a-writer.o)
                                                  c:/nxp/mcuxpressoide_11.6.1_8255/ide/plugins/com.nxp.mcuxpresso.tools.win32_11.6.1.202207200623/tools/bin/../lib/gcc/arm-none-eabi/10.3.1/../../../../arm-none-eabi/lib/thumb/v7e-m+dp/hard\libc_nano.a(lib_a-signalr.o)
                                                  c:/nxp/mcuxpressoide_11.6.1_8255/ide/plugins/com.nxp.mcuxpresso.tools.win32_11.6.1.202207200623/tools/bin/../lib/gcc/arm-none-eabi/10.3.1/../../../../arm-none-eabi/lib/thumb/v7e-m+dp/hard\libc_nano.a(lib_a-sbrkr.o)
exit                                              ./source/bootloader/src/bl_main.o
fflush                                            c:/nxp/mcuxpressoide_11.6.1_8255/ide/plugins/com.nxp.mcuxpresso.tools.win32_11.6.1.202207200623/tools/bin/../lib/gcc/arm-none-eabi/10.3.1/../../../../arm-none-eabi/lib/thumb/v7e-m+dp/hard\libc_nano.a(lib_a-fflush.o)
finalize_data_phase                               ./source/bootloader/src/bl_command.o
find_external_map_entry                           ./source/memory/src/memory.o
find_external_map_index                           ./source/memory/src/memory.o
                                                  ./source/memory/src/spinand_memory.o
                                                  ./source/memory/src/semc_nand_memory.o
                                                  ./source/memory/src/sd_memory.o
                                                  ./source/memory/src/mmc_memory.o
                                                  ./source/sbloader/src/sbloader.o
find_map_entry                                    ./source/memory/src/memory.o
                                                  ./source/bootloader/src/bl_main.o
fiprintf                                          c:/nxp/mcuxpressoide_11.6.1_8255/ide/plugins/com.nxp.mcuxpresso.tools.win32_11.6.1.202207200623/tools/bin/../lib/gcc/arm-none-eabi/10.3.1/../../../../arm-none-eabi/lib/thumb/v7e-m+dp/hard\libc_nano.a(lib_a-fprintf.o)
                                                  c:/nxp/mcuxpressoide_11.6.1_8255/ide/plugins/com.nxp.mcuxpresso.tools.win32_11.6.1.202207200623/tools/bin/../lib/gcc/arm-none-eabi/10.3.1/../../../../arm-none-eabi/lib/thumb/v7e-m+dp/hard\libc_nano.a(lib_a-assert.o)
flexspi_clear_cache                               ./source/drivers/flexspi/bl_flexspi.o
                                                  ./source/drivers/flexspi_nand/flexspi_nand_flash.o
                                                  ./source/drivers/flexspi_nor/flexspi_nor_flash.o
                                                  ./source/memory/src/flexspi_nor_memory.o
flexspi_clear_sequence_pointer                    ./source/drivers/flexspi/bl_flexspi.o
flexspi_clock_config                              ./MIMXRT1052/bl_clock_config_MIMXRT1052.o
                                                  ./source/drivers/flexspi/bl_flexspi.o
                                                  ./source/drivers/flexspi_nor/flexspi_nor_flash.o
flexspi_clock_gate_disable                        ./MIMXRT1052/bl_clock_config_MIMXRT1052.o
                                                  ./source/drivers/flexspi/bl_flexspi.o
flexspi_clock_gate_enable                         ./MIMXRT1052/bl_clock_config_MIMXRT1052.o
                                                  ./source/drivers/flexspi/bl_flexspi.o
flexspi_command_xfer                              ./source/drivers/flexspi/bl_flexspi.o
                                                  ./source/drivers/flexspi_nand/flexspi_nand_flash.o
                                                  ./source/drivers/flexspi_nor/flexspi_nor_flash.o
flexspi_config_ahb_buffers                        ./source/drivers/flexspi/bl_flexspi.o
flexspi_config_flash_control_registers            ./source/drivers/flexspi/bl_flexspi.o
flexspi_config_mcr1                               ./source/drivers/flexspi/bl_flexspi.o
flexspi_configure_dll                             ./source/drivers/flexspi/bl_flexspi.o
                                                  ./source/drivers/flexspi_nor/flexspi_nor_flash.o
flexspi_device_wait_busy                          ./source/drivers/flexspi/bl_flexspi.o
                                                  ./source/drivers/flexspi_nand/flexspi_nand_flash.o
                                                  ./source/drivers/flexspi_nor/flexspi_nor_flash.o
flexspi_device_write_enable                       ./source/drivers/flexspi/bl_flexspi.o
                                                  ./source/drivers/flexspi_nand/flexspi_nand_flash.o
                                                  ./source/drivers/flexspi_nor/flexspi_nor_flash.o
flexspi_get_clock                                 ./MIMXRT1052/bl_clock_config_MIMXRT1052.o
                                                  ./source/drivers/flexspi/bl_flexspi.o
                                                  ./source/drivers/flexspi_nor/flexspi_nor_flash.o
flexspi_get_max_supported_freq                    ./MIMXRT1052/bl_clock_config_MIMXRT1052.o
                                                  ./source/drivers/flexspi/bl_flexspi.o
flexspi_get_ticks                                 ./source/drivers/flexspi/bl_flexspi.o
flexspi_half_clock_control                        ./source/drivers/flexspi/bl_flexspi.o
                                                  ./source/drivers/flexspi_nor/flexspi_nor_flash.o
flexspi_init                                      ./source/drivers/flexspi/bl_flexspi.o
                                                  ./source/drivers/flexspi_nand/flexspi_nand_flash.o
                                                  ./source/drivers/flexspi_nor/flexspi_nor_flash.o
flexspi_iomux_config                              ./MIMXRT1052/hardware_init_MIMXRT1052.o
                                                  ./source/drivers/flexspi/bl_flexspi.o
flexspi_is_ck2_enabled                            ./source/drivers/flexspi/bl_flexspi.o
flexspi_is_ddr_mode_enable                        ./source/drivers/flexspi/bl_flexspi.o
flexspi_is_differential_clock_enable              ./source/drivers/flexspi/bl_flexspi.o
                                                  ./MIMXRT1052/hardware_init_MIMXRT1052.o
flexspi_is_padsetting_override_enable             ./source/drivers/flexspi/bl_flexspi.o
                                                  ./MIMXRT1052/hardware_init_MIMXRT1052.o
flexspi_is_parallel_mode                          ./source/drivers/flexspi/bl_flexspi.o
                                                  ./source/drivers/flexspi_nor/flexspi_nor_flash.o
                                                  ./source/memory/src/flexspi_nor_memory.o
flexspi_is_word_addressable                       ./source/drivers/flexspi/bl_flexspi.o
flexspi_nand_erase                                ./source/drivers/flexspi_nand/flexspi_nand_flash.o
flexspi_nand_erase_block                          ./source/drivers/flexspi_nand/flexspi_nand_flash.o
                                                  ./source/memory/src/spinand_memory.o
flexspi_nand_get_config                           ./source/drivers/flexspi_nand/flexspi_nand_flash.o
                                                  ./source/memory/src/spinand_memory.o
flexspi_nand_get_default_cfg_blk                  ./MIMXRT1052/flexspi_nand_config_MIMXRT1052.o
                                                  ./source/memory/src/spinand_memory.o
flexspi_nand_get_fcb_search_cfg                   ./MIMXRT1052/flexspi_nand_config_MIMXRT1052.o
                                                  ./source/memory/src/spinand_memory.o
flexspi_nand_init                                 ./source/drivers/flexspi_nand/flexspi_nand_flash.o
                                                  ./source/memory/src/spinand_memory.o
flexspi_nand_program_page                         ./source/drivers/flexspi_nand/flexspi_nand_flash.o
                                                  ./source/memory/src/spinand_memory.o
flexspi_nand_read_page                            ./source/drivers/flexspi_nand/flexspi_nand_flash.o
                                                  ./source/memory/src/spinand_memory.o
flexspi_nor_flash_erase                           ./source/drivers/flexspi_nor/flexspi_nor_flash.o
                                                  ./source/memory/src/flexspi_nor_memory.o
flexspi_nor_flash_erase_all                       ./source/drivers/flexspi_nor/flexspi_nor_flash.o
                                                  ./source/memory/src/flexspi_nor_memory.o
flexspi_nor_flash_erase_block                     ./source/drivers/flexspi_nor/flexspi_nor_flash.o
flexspi_nor_flash_erase_sector                    ./source/drivers/flexspi_nor/flexspi_nor_flash.o
flexspi_nor_flash_init                            ./source/drivers/flexspi_nor/flexspi_nor_flash.o
                                                  ./source/memory/src/flexspi_nor_memory.o
flexspi_nor_flash_page_program                    ./source/drivers/flexspi_nor/flexspi_nor_flash.o
                                                  ./source/memory/src/flexspi_nor_memory.o
flexspi_nor_flash_read                            ./source/drivers/flexspi_nor/flexspi_nor_flash.o
                                                  ./source/memory/src/flexspi_nor_memory.o
flexspi_nor_get_amba_addr                         ./source/memory/src/flexspi_nor_memory.o
flexspi_nor_get_config                            ./source/drivers/flexspi_nor/flexspi_nor_flash.o
                                                  ./source/memory/src/flexspi_nor_memory.o
flexspi_nor_get_default_cfg_blk                   ./MIMXRT1052/flexspi_nor_config_MIMXRT1052.o
flexspi_nor_get_property                          ./source/memory/src/flexspi_nor_memory.o
                                                  ./MIMXRT1052/external_memory_property_map_MIMXRT1052.o
flexspi_nor_mem_config                            ./source/memory/src/flexspi_nor_memory.o
                                                  ./source/sbloader/src/sbloader.o
flexspi_nor_mem_erase                             ./source/memory/src/flexspi_nor_memory.o
flexspi_nor_mem_erase_all                         ./source/memory/src/flexspi_nor_memory.o
                                                  ./source/bootloader/src/bl_command.o
                                                  ./source/sbloader/src/sbloader.o
flexspi_nor_mem_fill                              ./source/memory/src/flexspi_nor_memory.o
flexspi_nor_mem_flush                             ./source/memory/src/flexspi_nor_memory.o
flexspi_nor_mem_init                              ./source/memory/src/flexspi_nor_memory.o
flexspi_nor_mem_read                              ./source/memory/src/flexspi_nor_memory.o
flexspi_nor_mem_write                             ./source/memory/src/flexspi_nor_memory.o
flexspi_nor_read_persistent                       ./MIMXRT1052/hardware_init_MIMXRT1052.o
                                                  ./source/drivers/flexspi_nor/flexspi_nor_flash.o
flexspi_nor_restore_spi_protocol                  ./source/drivers/flexspi_nor/flexspi_nor_flash.o
flexspi_nor_write_persistent                      ./MIMXRT1052/hardware_init_MIMXRT1052.o
                                                  ./source/drivers/flexspi_nor/flexspi_nor_flash.o
flexspi_set_failsafe_setting                      ./MIMXRT1052/hardware_init_MIMXRT1052.o
                                                  ./source/drivers/flexspi_nand/flexspi_nand_flash.o
                                                  ./source/drivers/flexspi_nor/flexspi_nor_flash.o
flexspi_sw_delay_us                               ./MIMXRT1052/bl_clock_config_MIMXRT1052.o
                                                  ./source/drivers/flexspi/bl_flexspi.o
                                                  ./source/drivers/flexspi_nand/flexspi_nand_flash.o
flexspi_update_lut                                ./source/drivers/flexspi/bl_flexspi.o
                                                  ./source/drivers/flexspi_nand/flexspi_nand_flash.o
                                                  ./source/drivers/flexspi_nor/flexspi_nor_flash.o
flexspi_update_padsetting                         ./MIMXRT1052/hardware_init_MIMXRT1052.o
                                                  ./source/drivers/flexspi_nor/flexspi_nor_flash.o
flexspi_wait_idle                                 ./source/drivers/flexspi/bl_flexspi.o
                                                  ./source/drivers/flexspi_nor/flexspi_nor_flash.o
fprintf                                           c:/nxp/mcuxpressoide_11.6.1_8255/ide/plugins/com.nxp.mcuxpresso.tools.win32_11.6.1.202207200623/tools/bin/../lib/gcc/arm-none-eabi/10.3.1/../../../../arm-none-eabi/lib/thumb/v7e-m+dp/hard\libc_nano.a(lib_a-fprintf.o)
free                                              c:/nxp/mcuxpressoide_11.6.1_8255/ide/plugins/com.nxp.mcuxpresso.tools.win32_11.6.1.202207200623/tools/bin/../lib/gcc/arm-none-eabi/10.3.1/../../../../arm-none-eabi/lib/thumb/v7e-m+dp/hard\libc_nano.a(lib_a-malloc.o)
                                                  ./component/osa/fsl_os_abstraction_bm.o
                                                  ./drivers/fsl_common.o
fsl_assert                                        ./source/utilities/src/fsl_assert.o
gUseRtos_c                                        ./component/osa/fsl_os_abstraction_bm.o
g_aesInterface                                    ./source/bootloader/src/bl_tree_root.o
g_bootloaderContext                               ./source/bootloader/src/bl_context.o
                                                  ./source/bootloader/src/usb_hid_msc_peripheral_interface.o
                                                  ./source/bootloader/src/bl_tree_root.o
                                                  ./source/bootloader/src/bl_main.o
                                                  ./source/bootloader/src/bl_command.o
                                                  ./source/bootloader/src/bl_app_crc_check.o
                                                  ./source/memory/src/memory.o
                                                  ./source/memory/src/flexspi_nor_memory.o
                                                  ./source/packet/src/serial_packet.o
                                                  ./source/property/src/property_imx.o
                                                  ./source/sbloader/src/sbloader.o
g_bootloaderTree                                  ./source/bootloader/src/bl_tree_root.o
g_commandData                                     ./source/bootloader/src/bl_command.o
g_commandHandlerTable                             ./source/bootloader/src/bl_command.o
g_commandInterface                                ./source/bootloader/src/bl_command.o
                                                  ./source/bootloader/src/bl_context.o
g_composite_device                                ./source/usb/bm_composite/composite.o
g_composite_device_config_list                    ./source/usb/bm_composite/composite.o
                                                  ./source/bootloader/src/usb_hid_msc_peripheral_interface.o
g_config_descriptor                               ./source/usb/bm_composite/usb_descriptor.o
g_device_descriptor                               ./source/usb/bm_composite/usb_descriptor.o
                                                  ./source/bootloader/src/usb_hid_msc_peripheral_interface.o
g_externalMemPropertyInterfaceMap                 ./MIMXRT1052/external_memory_property_map_MIMXRT1052.o
                                                  ./source/property/src/property_imx.o
g_externalMemoryMap                               ./MIMXRT1052/memory_map_MIMXRT1052.o
                                                  ./source/bootloader/src/bl_context.o
                                                  ./source/memory/src/spinand_memory.o
                                                  ./source/memory/src/semc_nand_memory.o
                                                  ./source/memory/src/sd_memory.o
                                                  ./source/memory/src/mmc_memory.o
g_flexspiMemoryInterface                          ./source/memory/src/flexspi_nor_memory.o
                                                  ./MIMXRT1052/memory_map_MIMXRT1052.o
g_framingPacketInterface                          ./source/packet/src/serial_packet.o
                                                  ./MIMXRT1052/bl_peripherals_MIMXRT1052.o
g_hid_generic_class                               ./source/usb/bm_composite/usb_descriptor.o
                                                  ./source/usb/bm_composite/composite.o
g_hid_generic_endpoints                           ./source/usb/bm_composite/usb_descriptor.o
g_hid_generic_interface                           ./source/usb/bm_composite/usb_descriptor.o
g_hid_generic_interface_list                      ./source/usb/bm_composite/usb_descriptor.o
g_hid_generic_interfaces                          ./source/usb/bm_composite/usb_descriptor.o
g_hid_generic_report_descriptor                   ./source/usb/bm_composite/usb_descriptor.o
g_language_list                                   ./source/usb/bm_composite/usb_descriptor.o
                                                  ./source/bootloader/src/usb_hid_msc_peripheral_interface.o
g_language_ptr                                    ./source/usb/bm_composite/usb_descriptor.o
                                                  ./source/bootloader/src/usb_hid_msc_peripheral_interface.o
g_lpspiDummyData                                  ./drivers/fsl_lpspi.o
g_lpuartByteInterface                             ./source/bootloader/src/lpuart_peripheral_interface.o
                                                  ./MIMXRT1052/bl_peripherals_MIMXRT1052.o
g_lpuartControlInterface                          ./source/bootloader/src/lpuart_peripheral_interface.o
                                                  ./MIMXRT1052/bl_peripherals_MIMXRT1052.o
g_memoryInterface                                 ./source/memory/src/memory.o
                                                  ./source/bootloader/src/bl_context.o
g_memoryMap                                       ./MIMXRT1052/memory_map_MIMXRT1052.o
                                                  ./MIMXRT1052/hardware_init_MIMXRT1052.o
                                                  ./source/bootloader/src/bl_context.o
                                                  ./source/memory/src/semc_nor_memory.o
                                                  ./source/memory/src/flexspi_nor_memory.o
g_mmcContext                                      ./source/memory/src/mmc_memory.o
                                                  ./source/memory/src/sd_memory.o
g_mmcMemoryInterface                              ./source/memory/src/mmc_memory.o
                                                  ./MIMXRT1052/memory_map_MIMXRT1052.o
g_msc_class                                       ./source/usb/bm_composite/usb_descriptor.o
g_msc_disk_endpoints                              ./source/usb/bm_composite/usb_descriptor.o
g_msc_disk_interface                              ./source/usb/bm_composite/usb_descriptor.o
g_msc_disk_interface_list                         ./source/usb/bm_composite/usb_descriptor.o
g_msc_disk_interfaces                             ./source/usb/bm_composite/usb_descriptor.o
g_normalDTCMInterface                             ./source/memory/src/normal_memory.o
g_normalMemoryInterface                           ./source/memory/src/normal_memory.o
                                                  ./MIMXRT1052/memory_map_MIMXRT1052.o
g_normalOCRAMInterface                            ./source/memory/src/normal_memory.o
g_peripherals                                     ./MIMXRT1052/bl_peripherals_MIMXRT1052.o
                                                  ./source/bootloader/src/bl_shutdown_cleanup.o
                                                  ./source/bootloader/src/bl_main.o
                                                  ./source/bootloader/src/bl_context.o
g_propertyInterface                               ./source/property/src/property_imx.o
                                                  ./source/bootloader/src/bl_context.o
g_propertyStore                                   ./source/property/src/property_imx.o
g_rtcXtalFreq                                     ./drivers/fsl_clock.o
g_sdContext                                       ./source/memory/src/sd_memory.o
                                                  ./source/memory/src/mmc_memory.o
g_sdMemoryInterface                               ./source/memory/src/sd_memory.o
                                                  ./MIMXRT1052/memory_map_MIMXRT1052.o
g_sdmmc                                           ./source/drivers/sdmmc/fsl_sdmmc_common.o
                                                  ./source/drivers/sdmmc/fsl_sd.o
                                                  ./source/drivers/sdmmc/fsl_mmc.o
g_semcNandMemoryInterface                         ./source/memory/src/semc_nand_memory.o
                                                  ./MIMXRT1052/memory_map_MIMXRT1052.o
g_semcNorMemoryInterface                          ./source/memory/src/semc_nor_memory.o
                                                  ./MIMXRT1052/memory_map_MIMXRT1052.o
g_spiNandMemoryInterface                          ./source/memory/src/spinand_memory.o
                                                  ./MIMXRT1052/memory_map_MIMXRT1052.o
g_spiNorEepromMemoryInterface                     ./source/memory/src/spi_nor_eeprom_memory.o
                                                  ./MIMXRT1052/memory_map_MIMXRT1052.o
g_string_desc_size                                ./source/usb/bm_composite/usb_descriptor.o
g_string_descriptors                              ./source/usb/bm_composite/usb_descriptor.o
g_usbHidControlInterface                          ./source/bootloader/src/usb_hid_msc_peripheral_interface.o
                                                  ./MIMXRT1052/bl_peripherals_MIMXRT1052.o
g_usbHidPacketInterface                           ./source/bootloader/src/usb_hid_msc_peripheral_interface.o
                                                  ./MIMXRT1052/bl_peripherals_MIMXRT1052.o
g_usb_lang                                        ./source/usb/bm_composite/usb_descriptor.o
g_usb_str_0                                       ./source/usb/bm_composite/usb_descriptor.o
g_usb_str_1                                       ./source/usb/bm_composite/usb_descriptor.o
g_usb_str_2                                       ./source/usb/bm_composite/usb_descriptor.o
g_usb_str_3                                       ./source/usb/bm_composite/usb_descriptor.o
g_usb_str_n                                       ./source/usb/bm_composite/usb_descriptor.o
g_usdhcAdma2Table                                 ./source/drivers/sdmmc/fsl_sdmmc_host.o
g_xtalFreq                                        ./drivers/fsl_clock.o
                                                  ./MIMXRT1052/bl_clock_config_MIMXRT1052.o
generate_key_blob                                 ./source/bootloader/src/bl_keyblob_dcp.o
                                                  ./source/bootloader/src/bl_keyblob.o
                                                  ./source/bootloader/src/bl_command.o
get_bus_clock                                     ./MIMXRT1052/bl_clock_config_MIMXRT1052.o
                                                  ./source/drivers/microseconds/microseconds_pit.o
get_hab_status                                    ./MIMXRT1052/hardware_init_MIMXRT1052.o
                                                  ./source/property/src/property_imx.o
get_mmc_default_configuration                     ./MIMXRT1052/sdmmc_config_MIMXRT1052.o
                                                  ./source/memory/src/mmc_memory.o
get_ocotp_clock                                   ./MIMXRT1052/bl_clock_config_MIMXRT1052.o
                                                  ./source/drivers/ocotp/bl_ocotp.o
get_page_sector_block_size_from_sfdp              ./source/drivers/flexspi_nor/flexspi_nor_flash.o
get_primary_boot_device                           ./MIMXRT1052/hardware_init_MIMXRT1052.o
                                                  ./MIMXRT1052/flexspi_nor_config_MIMXRT1052.o
                                                  ./MIMXRT1052/flexspi_nand_config_MIMXRT1052.o
                                                  ./source/memory/src/spinand_memory.o
                                                  ./source/memory/src/semc_nor_memory.o
                                                  ./source/memory/src/semc_nand_memory.o
get_sd_default_configuration                      ./MIMXRT1052/sdmmc_config_MIMXRT1052.o
                                                  ./source/memory/src/sd_memory.o
get_uart_clock                                    ./MIMXRT1052/hardware_init_MIMXRT1052.o
                                                  ./source/bootloader/src/lpuart_peripheral_interface.o
handle_call                                       ./source/bootloader/src/bl_command.o
handle_configure_memory                           ./source/bootloader/src/bl_command.o
handle_data_bidirection                           ./source/bootloader/src/bl_command.o
handle_data_consumer                              ./source/bootloader/src/bl_command.o
handle_data_producer                              ./source/bootloader/src/bl_command.o
handle_execute                                    ./source/bootloader/src/bl_command.o
handle_fill_memory                                ./source/bootloader/src/bl_command.o
handle_flash_erase_all                            ./source/bootloader/src/bl_command.o
handle_flash_erase_all_unsecure                   ./source/bootloader/src/bl_command.o
handle_flash_erase_region                         ./source/bootloader/src/bl_command.o
handle_flash_program_once                         ./source/bootloader/src/bl_command.o
handle_flash_read_once                            ./source/bootloader/src/bl_command.o
handle_flash_read_resource                        ./source/bootloader/src/bl_command.o
handle_generate_key_blob                          ./source/bootloader/src/bl_command.o
handle_get_property                               ./source/bootloader/src/bl_command.o
handle_key_blob_data                              ./source/bootloader/src/bl_command.o
handle_read_memory                                ./source/bootloader/src/bl_command.o
handle_receive_sb_file                            ./source/bootloader/src/bl_command.o
handle_reset                                      ./source/bootloader/src/bl_command.o
handle_set_property                               ./source/bootloader/src/bl_command.o
handle_write_memory                               ./source/bootloader/src/bl_command.o
init_crc_check_status                             ./source/bootloader/src/bl_app_crc_check.o
init_data_bss                                     ./startup/startup.o
                                                  ./startup/crt0_gcc.o
init_hardware                                     ./MIMXRT1052/hardware_init_MIMXRT1052.o
                                                  ./source/bootloader/src/bl_main.o
init_interrupts                                   ./startup/startup.o
                                                  ./source/bootloader/src/bl_shutdown_cleanup.o
                                                  ./startup/crt0_gcc.o
instance_transition_callback                      ./source/autobaud/autobaud_irq.o
is_application_crc_check_pass                     ./source/bootloader/src/bl_app_crc_check.o
is_boot_pin_asserted                              ./MIMXRT1052/hardware_init_MIMXRT1052.o
                                                  ./source/bootloader/src/bl_main.o
is_flexspi_nor_configured                         ./source/memory/src/flexspi_nor_memory.o
                                                  ./source/bootloader/src/bl_misc.o
is_flexspi_nor_present                            ./source/bootloader/src/bl_misc.o
                                                  ./source/bootloader/src/bl_app_crc_check.o
is_in_execute_only_region                         ./source/bootloader/src/bl_misc.o
is_ltc_present                                    ./source/bootloader/src/bl_misc.o
is_otfad_present                                  ./source/bootloader/src/bl_misc.o
is_qspi_present                                   ./source/bootloader/src/bl_misc.o
is_semc_nor_configured                            ./source/memory/src/semc_nor_memory.o
                                                  ./source/bootloader/src/bl_misc.o
is_semc_nor_present                               ./source/bootloader/src/bl_misc.o
                                                  ./source/bootloader/src/bl_app_crc_check.o
is_valid_application_location                     ./source/bootloader/src/bl_main.o
                                                  ./source/bootloader/src/bl_keyblob.o
                                                  ./source/bootloader/src/bl_command.o
                                                  ./source/memory/src/spinand_memory.o
                                                  ./source/memory/src/spi_nor_eeprom_memory.o
                                                  ./source/memory/src/semc_nor_memory.o
                                                  ./source/memory/src/semc_nand_memory.o
                                                  ./source/memory/src/sd_memory.o
                                                  ./source/memory/src/mmc_memory.o
                                                  ./source/memory/src/flexspi_nor_memory.o
                                                  ./source/sbloader/src/sbloader.o
is_valid_stackpointer_location                    ./source/bootloader/src/bl_main.o
                                                  ./source/bootloader/src/bl_command.o
k_PingResponse                                    ./source/packet/src/serial_packet.o
keyblob_get                                       ./source/bootloader/src/bl_keyblob.o
                                                  ./source/memory/src/spinand_memory.o
                                                  ./source/memory/src/spi_nor_eeprom_memory.o
                                                  ./source/memory/src/semc_nor_memory.o
                                                  ./source/memory/src/semc_nand_memory.o
                                                  ./source/memory/src/sd_memory.o
                                                  ./source/memory/src/mmc_memory.o
                                                  ./source/memory/src/flexspi_nor_memory.o
keyblob_update                                    ./source/bootloader/src/bl_keyblob.o
                                                  ./source/memory/src/spinand_memory.o
                                                  ./source/memory/src/spi_nor_eeprom_memory.o
                                                  ./source/memory/src/semc_nor_memory.o
                                                  ./source/memory/src/semc_nand_memory.o
                                                  ./source/memory/src/sd_memory.o
                                                  ./source/memory/src/mmc_memory.o
                                                  ./source/memory/src/flexspi_nor_memory.o
ldr_DoCallCmd                                     ./source/sbloader/src/sbloader.o
ldr_DoCommand                                     ./source/sbloader/src/sbloader.o
ldr_DoEraseCmd                                    ./source/sbloader/src/sbloader.o
ldr_DoFillCmd                                     ./source/sbloader/src/sbloader.o
ldr_DoGetDek                                      ./source/sbloader/src/sbloader.o
ldr_DoHeader                                      ./source/sbloader/src/sbloader.o
ldr_DoHeader1                                     ./source/sbloader/src/sbloader.o
ldr_DoHeader2                                     ./source/sbloader/src/sbloader.o
ldr_DoHeaderMac                                   ./source/sbloader/src/sbloader.o
ldr_DoJumpCmd                                     ./source/sbloader/src/sbloader.o
ldr_DoKeyTest                                     ./source/sbloader/src/sbloader.o
ldr_DoLoadBytes                                   ./source/sbloader/src/sbloader.o
ldr_DoLoadChunks                                  ./source/sbloader/src/sbloader.o
ldr_DoLoadCmd                                     ./source/sbloader/src/sbloader.o
ldr_DoMemEnableCmd                                ./source/sbloader/src/sbloader.o
ldr_DoProgramCmd                                  ./source/sbloader/src/sbloader.o
ldr_DoResetCmd                                    ./source/sbloader/src/sbloader.o
ldr_DoTagCmd                                      ./source/sbloader/src/sbloader.o
ldr_GoToNextSection                               ./source/sbloader/src/sbloader.o
lock_acquire                                      ./source/utilities/src/fsl_rtos_abstraction.o
                                                  ./source/bootloader/src/usb_hid_msc_peripheral_interface.o
                                                  ./source/bootloader/src/bl_shutdown_cleanup.o
                                                  ./source/bootloader/src/bl_command.o
lock_init                                         ./source/utilities/src/fsl_rtos_abstraction.o
                                                  ./source/bootloader/src/bl_main.o
lock_release                                      ./source/utilities/src/fsl_rtos_abstraction.o
                                                  ./source/bootloader/src/usb_hid_msc_peripheral_interface.o
                                                  ./source/bootloader/src/bl_command.o
main                                              ./source/bootloader/src/bl_main.o
                                                  ./startup/startup_MIMXRT1052.o
                                                  ./startup/crt0_gcc.o
main_task                                         ./component/osa/fsl_os_abstraction_bm.o
malloc                                            c:/nxp/mcuxpressoide_11.6.1_8255/ide/plugins/com.nxp.mcuxpresso.tools.win32_11.6.1.202207200623/tools/bin/../lib/gcc/arm-none-eabi/10.3.1/../../../../arm-none-eabi/lib/thumb/v7e-m+dp/hard\libc_nano.a(lib_a-malloc.o)
                                                  ./component/osa/fsl_os_abstraction_bm.o
                                                  ./drivers/fsl_common.o
mem_config                                        ./source/memory/src/memory.o
                                                  ./source/bootloader/src/bl_command.o
mem_erase                                         ./source/memory/src/memory.o
mem_fill                                          ./source/memory/src/memory.o
mem_finalize                                      ./source/memory/src/memory.o
mem_flush                                         ./source/memory/src/memory.o
mem_init                                          ./source/memory/src/memory.o
mem_is_block_reserved                             ./source/memory/src/memory.o
mem_is_erased                                     ./source/memory/src/memory.o
mem_read                                          ./source/memory/src/memory.o
mem_write                                         ./source/memory/src/memory.o
mem_write_check                                   ./source/memory/src/memory.o
                                                  ./source/bootloader/src/bl_command.o
memchr                                            c:/nxp/mcuxpressoide_11.6.1_8255/ide/plugins/com.nxp.mcuxpresso.tools.win32_11.6.1.202207200623/tools/bin/../lib/gcc/arm-none-eabi/10.3.1/../../../../arm-none-eabi/lib/thumb/v7e-m+dp/hard\libc_nano.a(lib_a-memchr.o)
                                                  c:/nxp/mcuxpressoide_11.6.1_8255/ide/plugins/com.nxp.mcuxpresso.tools.win32_11.6.1.202207200623/tools/bin/../lib/gcc/arm-none-eabi/10.3.1/../../../../arm-none-eabi/lib/thumb/v7e-m+dp/hard\libc_nano.a(lib_a-fvwrite.o)
                                                  c:/nxp/mcuxpressoide_11.6.1_8255/ide/plugins/com.nxp.mcuxpresso.tools.win32_11.6.1.202207200623/tools/bin/../lib/gcc/arm-none-eabi/10.3.1/../../../../arm-none-eabi/lib/thumb/v7e-m+dp/hard\libc_nano.a(lib_a-nano-vfprintf_i.o)
                                                  c:/nxp/mcuxpressoide_11.6.1_8255/ide/plugins/com.nxp.mcuxpresso.tools.win32_11.6.1.202207200623/tools/bin/../lib/gcc/arm-none-eabi/10.3.1/../../../../arm-none-eabi/lib/thumb/v7e-m+dp/hard\libc_nano.a(lib_a-nano-vfprintf.o)
memcmp                                            c:/nxp/mcuxpressoide_11.6.1_8255/ide/plugins/com.nxp.mcuxpresso.tools.win32_11.6.1.202207200623/tools/bin/../lib/gcc/arm-none-eabi/10.3.1/../../../../arm-none-eabi/lib/thumb/v7e-m+dp/hard\libc_nano.a(lib_a-memcmp.o)
                                                  ./source/drivers/dcp/bl_dcp.o
                                                  ./source/drivers/flexspi_nor/flexspi_nor_flash.o
                                                  ./source/drivers/semc_nand/semc_nand_flash.o
                                                  ./source/memory/src/spinand_memory.o
                                                  ./source/memory/src/spi_nor_eeprom_memory.o
                                                  ./source/memory/src/semc_nand_memory.o
                                                  ./source/memory/src/sd_memory.o
                                                  ./source/memory/src/mmc_memory.o
                                                  ./source/memory/src/flexspi_nor_memory.o
                                                  ./source/sbloader/src/sbloader.o
memcpy                                            c:/nxp/mcuxpressoide_11.6.1_8255/ide/plugins/com.nxp.mcuxpresso.tools.win32_11.6.1.202207200623/tools/bin/../lib/gcc/arm-none-eabi/10.3.1/../../../../arm-none-eabi/lib/thumb/v7e-m+dp/hard\libc_nano.a(lib_a-memcpy-stub.o)
                                                  c:/nxp/mcuxpressoide_11.6.1_8255/ide/plugins/com.nxp.mcuxpresso.tools.win32_11.6.1.202207200623/tools/bin/../lib/gcc/arm-none-eabi/10.3.1/../../../../arm-none-eabi/lib/thumb/v7e-m+dp/hard\libc_nano.a(lib_a-nano-reallocr.o)
                                                  c:/nxp/mcuxpressoide_11.6.1_8255/ide/plugins/com.nxp.mcuxpresso.tools.win32_11.6.1.202207200623/tools/bin/../lib/gcc/arm-none-eabi/10.3.1/../../../../arm-none-eabi/lib/thumb/v7e-m+dp/hard\libc_nano.a(lib_a-fvwrite.o)
                                                  ./MIMXRT1052/hardware_init_MIMXRT1052.o
                                                  ./MIMXRT1052/flexspi_nor_config_MIMXRT1052.o
                                                  ./MIMXRT1052/flexspi_nand_config_MIMXRT1052.o
                                                  ./source/bootloader/src/usb_hid_msc_peripheral_interface.o
                                                  ./source/bootloader/src/bl_nor_encrypt_bee.o
                                                  ./source/bootloader/src/bl_keyblob.o
                                                  ./source/bootloader/src/bl_command.o
                                                  ./source/drivers/dcp/bl_dcp.o
                                                  ./source/drivers/flexspi_nand/flexspi_nand_flash.o
                                                  ./source/drivers/flexspi_nor/flexspi_nor_flash.o
                                                  ./source/drivers/sdmmc/fsl_sd.o
                                                  ./source/drivers/sdmmc/fsl_mmc.o
                                                  ./source/drivers/semc/bl_semc.o
                                                  ./source/drivers/semc_nand/semc_nand_flash.o
                                                  ./source/drivers/serial_nor_eeprom/serial_nor_eeprom.o
                                                  ./source/memory/src/spinand_memory.o
                                                  ./source/memory/src/spi_nor_eeprom_memory.o
                                                  ./source/memory/src/semc_nor_memory.o
                                                  ./source/memory/src/semc_nand_memory.o
                                                  ./source/memory/src/sd_memory.o
                                                  ./source/memory/src/normal_memory.o
                                                  ./source/memory/src/mmc_memory.o
                                                  ./source/memory/src/flexspi_nor_memory.o
                                                  ./source/packet/src/serial_packet.o
                                                  ./source/property/src/property_imx.o
memmove                                           c:/nxp/mcuxpressoide_11.6.1_8255/ide/plugins/com.nxp.mcuxpresso.tools.win32_11.6.1.202207200623/tools/bin/../lib/gcc/arm-none-eabi/10.3.1/../../../../arm-none-eabi/lib/thumb/v7e-m+dp/hard\libc_nano.a(lib_a-memmove.o)
                                                  c:/nxp/mcuxpressoide_11.6.1_8255/ide/plugins/com.nxp.mcuxpresso.tools.win32_11.6.1.202207200623/tools/bin/../lib/gcc/arm-none-eabi/10.3.1/../../../../arm-none-eabi/lib/thumb/v7e-m+dp/hard\libc_nano.a(lib_a-fvwrite.o)
memset                                            c:/nxp/mcuxpressoide_11.6.1_8255/ide/plugins/com.nxp.mcuxpresso.tools.win32_11.6.1.202207200623/tools/bin/../lib/gcc/arm-none-eabi/10.3.1/../../../../arm-none-eabi/lib/thumb/v7e-m+dp/hard\libc_nano.a(lib_a-memset.o)
                                                  c:/nxp/mcuxpressoide_11.6.1_8255/ide/plugins/com.nxp.mcuxpresso.tools.win32_11.6.1.202207200623/tools/bin/../lib/gcc/arm-none-eabi/10.3.1/../../../../arm-none-eabi/lib/thumb/v7e-m+dp/hard\libc_nano.a(lib_a-findfp.o)
                                                  ./MIMXRT1052/semc_nor_config_MIMXRT1052.o
                                                  ./MIMXRT1052/semc_nand_config_MIMXRT1052.o
                                                  ./MIMXRT1052/flexspi_nor_config_MIMXRT1052.o
                                                  ./MIMXRT1052/flexspi_nand_config_MIMXRT1052.o
                                                  ./component/osa/fsl_os_abstraction_bm.o
                                                  ./drivers/fsl_lpuart.o
                                                  ./drivers/fsl_lpspi.o
                                                  ./source/bootloader/src/usb_hid_msc_peripheral_interface.o
                                                  ./source/bootloader/src/bl_nor_encrypt_bee.o
                                                  ./source/bootloader/src/bl_keyblob_dcp.o
                                                  ./source/bootloader/src/bl_keyblob.o
                                                  ./source/bootloader/src/bl_command.o
                                                  ./source/drivers/dcp/bl_dcp.o
                                                  ./source/drivers/flexspi_nand/flexspi_nand_flash.o
                                                  ./source/drivers/flexspi_nor/flexspi_nor_flash.o
                                                  ./source/drivers/nand_ecc/nand_ecc.o
                                                  ./source/drivers/sdmmc/fsl_sdmmc_host.o
                                                  ./source/drivers/sdmmc/fsl_sdmmc_common.o
                                                  ./source/drivers/sdmmc/fsl_sd.o
                                                  ./source/drivers/sdmmc/fsl_mmc.o
                                                  ./source/drivers/semc_nand/semc_nand_flash.o
                                                  ./source/drivers/semc_nor/semc_nor_flash.o
                                                  ./source/drivers/serial_nor_eeprom/serial_nor_eeprom.o
                                                  ./source/drivers/usdhc/bl_usdhc.o
                                                  ./source/memory/src/spinand_memory.o
                                                  ./source/memory/src/spi_nor_eeprom_memory.o
                                                  ./source/memory/src/semc_nand_memory.o
                                                  ./source/memory/src/sd_memory.o
                                                  ./source/memory/src/mmc_memory.o
                                                  ./source/memory/src/flexspi_nor_memory.o
                                                  ./source/packet/src/serial_packet.o
                                                  ./source/property/src/property_imx.o
                                                  ./source/sbloader/src/sbloader.o
microseconds_convert_to_microseconds              ./source/drivers/microseconds/microseconds_pit.o
microseconds_convert_to_ticks                     ./source/drivers/microseconds/microseconds_pit.o
                                                  ./source/autobaud/autobaud_irq.o
                                                  ./source/bootloader/src/bl_main.o
                                                  ./source/drivers/ocotp/bl_ocotp.o
                                                  ./source/drivers/sdmmc/fsl_sd.o
                                                  ./source/drivers/sdmmc/fsl_mmc.o
                                                  ./source/drivers/semc_nand/semc_nand_flash.o
                                                  ./source/drivers/semc_nor/semc_nor_flash.o
                                                  ./source/packet/src/serial_packet.o
                                                  ./source/utilities/src/fsl_rtos_abstraction.o
microseconds_delay                                ./source/drivers/microseconds/microseconds_pit.o
                                                  ./MIMXRT1052/hardware_init_MIMXRT1052.o
                                                  ./MIMXRT1052/bl_clock_config_MIMXRT1052.o
                                                  ./source/drivers/sdmmc/fsl_sdmmc_host.o
                                                  ./source/drivers/sdmmc/fsl_sdmmc_common.o
                                                  ./source/drivers/sdmmc/fsl_sd.o
                                                  ./source/drivers/sdmmc/fsl_mmc.o
                                                  ./source/drivers/semc_nand/semc_nand_flash.o
microseconds_get_clock                            ./MIMXRT1052/bl_clock_config_MIMXRT1052.o
                                                  ./source/drivers/microseconds/microseconds_pit.o
                                                  ./source/autobaud/autobaud_irq.o
microseconds_get_ticks                            ./source/drivers/microseconds/microseconds_pit.o
                                                  ./source/autobaud/autobaud_irq.o
                                                  ./source/drivers/ocotp/bl_ocotp.o
                                                  ./source/drivers/sdmmc/fsl_sd.o
                                                  ./source/drivers/sdmmc/fsl_mmc.o
                                                  ./source/drivers/semc_nand/semc_nand_flash.o
                                                  ./source/drivers/semc_nor/semc_nor_flash.o
                                                  ./source/packet/src/serial_packet.o
                                                  ./source/utilities/src/fsl_rtos_abstraction.o
microseconds_init                                 ./source/drivers/microseconds/microseconds_pit.o
                                                  ./source/bootloader/src/bl_main.o
microseconds_set_delay                            ./source/drivers/microseconds/microseconds_pit.o
microseconds_shutdown                             ./source/drivers/microseconds/microseconds_pit.o
                                                  ./source/bootloader/src/bl_shutdown_cleanup.o
microseconds_timeout                              ./source/drivers/microseconds/microseconds_pit.o
mmc_get_property                                  ./source/memory/src/mmc_memory.o
                                                  ./MIMXRT1052/external_memory_property_map_MIMXRT1052.o
mmc_mem_config                                    ./source/memory/src/mmc_memory.o
mmc_mem_erase                                     ./source/memory/src/mmc_memory.o
mmc_mem_erase_all                                 ./source/memory/src/mmc_memory.o
                                                  ./source/bootloader/src/bl_command.o
mmc_mem_finalize                                  ./source/memory/src/mmc_memory.o
mmc_mem_flush                                     ./source/memory/src/mmc_memory.o
mmc_mem_init                                      ./source/memory/src/mmc_memory.o
mmc_mem_read                                      ./source/memory/src/mmc_memory.o
mmc_mem_write                                     ./source/memory/src/mmc_memory.o
nand_ecc_count_bit1                               ./source/drivers/nand_ecc/nand_ecc.o
nand_ecc_sec_calculate_encode                     ./source/drivers/nand_ecc/nand_ecc.o
                                                  ./source/drivers/semc_nand/semc_nand_flash.o
nand_ecc_sec_verify_correct                       ./source/drivers/nand_ecc/nand_ecc.o
                                                  ./source/drivers/semc_nand/semc_nand_flash.o
normal_mem_fill                                   ./source/memory/src/normal_memory.o
normal_mem_init                                   ./MIMXRT1052/hardware_init_MIMXRT1052.o
                                                  ./source/memory/src/normal_memory.o
normal_mem_read                                   ./source/memory/src/normal_memory.o
                                                  ./source/memory/src/semc_nor_memory.o
normal_mem_write                                  ./source/memory/src/normal_memory.o
ocotp_init                                        ./source/drivers/ocotp/bl_ocotp.o
ocotp_program_once                                ./source/drivers/ocotp/bl_ocotp.o
                                                  ./source/bootloader/src/bl_command.o
                                                  ./source/sbloader/src/sbloader.o
ocotp_read_once                                   ./source/drivers/ocotp/bl_ocotp.o
                                                  ./source/bootloader/src/bl_command.o
pattern_fill                                      ./source/memory/src/pattern_fill_gcc.o
                                                  ./source/memory/src/normal_memory.o
qspi_need_configure                               ./source/bootloader/src/bl_misc.o
raise                                             c:/nxp/mcuxpressoide_11.6.1_8255/ide/plugins/com.nxp.mcuxpresso.tools.win32_11.6.1.202207200623/tools/bin/../lib/gcc/arm-none-eabi/10.3.1/../../../../arm-none-eabi/lib/thumb/v7e-m+dp/hard\libc_nano.a(lib_a-signal.o)
                                                  c:/nxp/mcuxpressoide_11.6.1_8255/ide/plugins/com.nxp.mcuxpresso.tools.win32_11.6.1.202207200623/tools/bin/../lib/gcc/arm-none-eabi/10.3.1/../../../../arm-none-eabi/lib/thumb/v7e-m+dp/hard\libc_nano.a(lib_a-abort.o)
s_lpuartHandle                                    ./drivers/fsl_lpuart.o
s_lpuartIRQ                                       ./drivers/fsl_lpuart.o
s_lpuartIsr                                       ./drivers/fsl_lpuart.o
s_nandAcTimingParameterTable                      ./source/drivers/semc_nand/semc_nand_flash.o
s_nandDeviceManufacturerList                      ./source/drivers/semc_nand/semc_nand_flash.o
s_norAcTimingParameterTable                       ./source/drivers/semc_nor/semc_nor_flash.o
s_semcAxiQueueWeightConfig                        ./source/drivers/semc/bl_semc.o
s_stack_frame                                     ./source/bootloader/src/bl_exception_handler.o
s_tickPerMicrosecondMul8                          ./source/drivers/microseconds/microseconds_pit.o
s_timeoutTicks                                    ./source/drivers/microseconds/microseconds_pit.o
sbloader_finalize                                 ./source/sbloader/src/sbloader.o
                                                  ./source/bootloader/src/bl_command.o
sbloader_handle_chunk                             ./source/sbloader/src/sbloader.o
sbloader_init                                     ./source/sbloader/src/sbloader.o
                                                  ./source/bootloader/src/bl_command.o
sbloader_pump                                     ./source/sbloader/src/sbloader.o
                                                  ./source/bootloader/src/bl_command.o
sd_get_property                                   ./source/memory/src/sd_memory.o
                                                  ./MIMXRT1052/external_memory_property_map_MIMXRT1052.o
sd_mem_config                                     ./source/memory/src/sd_memory.o
sd_mem_erase                                      ./source/memory/src/sd_memory.o
sd_mem_erase_all                                  ./source/memory/src/sd_memory.o
                                                  ./source/bootloader/src/bl_command.o
sd_mem_finalize                                   ./source/memory/src/sd_memory.o
sd_mem_flush                                      ./source/memory/src/sd_memory.o
sd_mem_init                                       ./source/memory/src/sd_memory.o
sd_mem_read                                       ./source/memory/src/sd_memory.o
sd_mem_write                                      ./source/memory/src/sd_memory.o
semc_axi_clock_config                             ./MIMXRT1052/bl_clock_config_MIMXRT1052.o
                                                  ./source/drivers/semc/bl_semc.o
semc_axi_memory_read                              ./source/drivers/semc/bl_semc.o
                                                  ./source/drivers/semc_nand/semc_nand_flash.o
                                                  ./source/drivers/semc_nor/semc_nor_flash.o
semc_axi_memory_write                             ./source/drivers/semc/bl_semc.o
                                                  ./source/drivers/semc_nand/semc_nand_flash.o
semc_clock_gate_disable                           ./MIMXRT1052/bl_clock_config_MIMXRT1052.o
                                                  ./source/drivers/semc/bl_semc.o
semc_clock_gate_enable                            ./MIMXRT1052/bl_clock_config_MIMXRT1052.o
                                                  ./source/drivers/semc/bl_semc.o
semc_get_clock                                    ./MIMXRT1052/bl_clock_config_MIMXRT1052.o
semc_init                                         ./source/drivers/semc/bl_semc.o
                                                  ./source/drivers/semc_nand/semc_nand_flash.o
                                                  ./source/drivers/semc_nor/semc_nor_flash.o
semc_iomux_config                                 ./MIMXRT1052/hardware_init_MIMXRT1052.o
                                                  ./source/drivers/semc/bl_semc.o
semc_ipg_command_convert_nand_address             ./source/drivers/semc/bl_semc.o
                                                  ./source/drivers/semc_nand/semc_nand_flash.o
semc_ipg_command_convert_nor_address              ./source/drivers/semc/bl_semc.o
                                                  ./source/drivers/semc_nor/semc_nor_flash.o
semc_ipg_command_device_read                      ./source/drivers/semc/bl_semc.o
                                                  ./source/drivers/semc_nor/semc_nor_flash.o
semc_ipg_command_device_write                     ./source/drivers/semc/bl_semc.o
                                                  ./source/drivers/semc_nor/semc_nor_flash.o
semc_ipg_command_get_data_size                    ./source/drivers/semc/bl_semc.o
                                                  ./source/drivers/semc_nor/semc_nor_flash.o
semc_ipg_command_get_nand_code                    ./source/drivers/semc/bl_semc.o
                                                  ./source/drivers/semc_nand/semc_nand_flash.o
semc_ipg_command_nand_access                      ./source/drivers/semc/bl_semc.o
                                                  ./source/drivers/semc_nand/semc_nand_flash.o
semc_ipg_command_set_data_size                    ./source/drivers/semc/bl_semc.o
                                                  ./source/drivers/semc_nor/semc_nor_flash.o
semc_ipg_memory_read                              ./source/drivers/semc/bl_semc.o
                                                  ./source/drivers/semc_nand/semc_nand_flash.o
semc_ipg_memory_write                             ./source/drivers/semc/bl_semc.o
                                                  ./source/drivers/semc_nand/semc_nand_flash.o
semc_is_nand_ready                                ./source/drivers/semc/bl_semc.o
                                                  ./source/drivers/semc_nand/semc_nand_flash.o
semc_nand_flash_erase_block                       ./source/drivers/semc_nand/semc_nand_flash.o
                                                  ./source/memory/src/semc_nand_memory.o
semc_nand_flash_init                              ./source/drivers/semc_nand/semc_nand_flash.o
                                                  ./source/memory/src/semc_nand_memory.o
semc_nand_flash_page_program                      ./source/drivers/semc_nand/semc_nand_flash.o
                                                  ./source/memory/src/semc_nand_memory.o
semc_nand_flash_read_page                         ./source/drivers/semc_nand/semc_nand_flash.o
                                                  ./source/memory/src/semc_nand_memory.o
semc_nand_flash_verify_erase                      ./source/drivers/semc_nand/semc_nand_flash.o
                                                  ./source/memory/src/semc_nand_memory.o
semc_nand_flash_verify_page_program               ./source/drivers/semc_nand/semc_nand_flash.o
semc_nand_get_config_data_from_fuse               ./MIMXRT1052/semc_nand_config_MIMXRT1052.o
semc_nand_get_default_config_block                ./MIMXRT1052/semc_nand_config_MIMXRT1052.o
                                                  ./source/memory/src/semc_nand_memory.o
semc_nand_get_fcb_search_cfg                      ./MIMXRT1052/semc_nand_config_MIMXRT1052.o
                                                  ./source/memory/src/semc_nand_memory.o
semc_nand_get_property                            ./source/memory/src/semc_nand_memory.o
                                                  ./MIMXRT1052/external_memory_property_map_MIMXRT1052.o
semc_nand_issue_read_id                           ./source/drivers/semc_nand/semc_nand_flash.o
semc_nand_mem_config                              ./source/memory/src/semc_nand_memory.o
semc_nand_mem_erase                               ./source/memory/src/semc_nand_memory.o
semc_nand_mem_erase_all                           ./source/memory/src/semc_nand_memory.o
                                                  ./source/bootloader/src/bl_command.o
                                                  ./source/sbloader/src/sbloader.o
semc_nand_mem_finalize                            ./source/memory/src/semc_nand_memory.o
semc_nand_mem_flush                               ./source/memory/src/semc_nand_memory.o
semc_nand_mem_init                                ./source/memory/src/semc_nand_memory.o
semc_nand_mem_read                                ./source/memory/src/semc_nand_memory.o
semc_nand_mem_write                               ./source/memory/src/semc_nand_memory.o
semc_nand_wait_for_device_ready                   ./source/drivers/semc_nand/semc_nand_flash.o
semc_nor_flash_erase_block                        ./source/drivers/semc_nor/semc_nor_flash.o
                                                  ./source/memory/src/semc_nor_memory.o
semc_nor_flash_init                               ./source/drivers/semc_nor/semc_nor_flash.o
                                                  ./source/memory/src/semc_nor_memory.o
semc_nor_flash_page_program                       ./source/drivers/semc_nor/semc_nor_flash.o
                                                  ./source/memory/src/semc_nor_memory.o
semc_nor_flash_verify_erase                       ./source/drivers/semc_nor/semc_nor_flash.o
                                                  ./source/memory/src/semc_nor_memory.o
semc_nor_flash_verify_program                     ./source/drivers/semc_nor/semc_nor_flash.o
semc_nor_get_config_data_from_fuse                ./MIMXRT1052/semc_nor_config_MIMXRT1052.o
semc_nor_get_default_config_block                 ./MIMXRT1052/semc_nor_config_MIMXRT1052.o
                                                  ./source/memory/src/semc_nor_memory.o
semc_nor_get_property                             ./source/memory/src/semc_nor_memory.o
                                                  ./MIMXRT1052/external_memory_property_map_MIMXRT1052.o
semc_nor_get_specific_ac_cycles                   ./source/drivers/semc_nor/semc_nor_flash.o
                                                  ./source/memory/src/semc_nor_memory.o
semc_nor_mem_config                               ./source/memory/src/semc_nor_memory.o
                                                  ./source/sbloader/src/sbloader.o
semc_nor_mem_erase                                ./source/memory/src/semc_nor_memory.o
semc_nor_mem_erase_all                            ./source/memory/src/semc_nor_memory.o
                                                  ./source/bootloader/src/bl_command.o
                                                  ./source/sbloader/src/sbloader.o
semc_nor_mem_fill                                 ./source/memory/src/semc_nor_memory.o
semc_nor_mem_flush                                ./source/memory/src/semc_nor_memory.o
semc_nor_mem_init                                 ./source/memory/src/semc_nor_memory.o
semc_nor_mem_read                                 ./source/memory/src/semc_nor_memory.o
semc_nor_mem_write                                ./source/memory/src/semc_nor_memory.o
semc_wait_for_idle                                ./source/drivers/semc/bl_semc.o
send_flash_read_once_response                     ./source/bootloader/src/bl_command.o
send_flash_read_resource_response                 ./source/bootloader/src/bl_command.o
send_generate_key_blob_response                   ./source/bootloader/src/bl_command.o
send_generic_response                             ./source/bootloader/src/bl_command.o
send_get_property_response                        ./source/bootloader/src/bl_command.o
send_read_memory_response                         ./source/bootloader/src/bl_command.o
serial_nor_eeprom_erase                           ./source/drivers/serial_nor_eeprom/serial_nor_eeprom.o
                                                  ./source/memory/src/spi_nor_eeprom_memory.o
serial_nor_eeprom_erase_all                       ./source/drivers/serial_nor_eeprom/serial_nor_eeprom.o
                                                  ./source/memory/src/spi_nor_eeprom_memory.o
serial_nor_eeprom_init                            ./source/drivers/serial_nor_eeprom/serial_nor_eeprom.o
                                                  ./source/memory/src/spi_nor_eeprom_memory.o
serial_nor_eeprom_read                            ./source/drivers/serial_nor_eeprom/serial_nor_eeprom.o
                                                  ./source/memory/src/spi_nor_eeprom_memory.o
serial_nor_eeprom_write                           ./source/drivers/serial_nor_eeprom/serial_nor_eeprom.o
                                                  ./source/memory/src/spi_nor_eeprom_memory.o
serial_packet_abort                               ./source/packet/src/serial_packet.o
serial_packet_finalize                            ./source/packet/src/serial_packet.o
serial_packet_get_max_packet_size                 ./source/packet/src/serial_packet.o
serial_packet_init                                ./source/packet/src/serial_packet.o
serial_packet_queue_byte                          ./source/packet/src/serial_packet.o
serial_packet_read                                ./source/packet/src/serial_packet.o
serial_packet_send_sync                           ./source/packet/src/serial_packet.o
serial_packet_write                               ./source/packet/src/serial_packet.o
serial_send_ping_response                         ./source/packet/src/serial_packet.o
shutdown_cleanup                                  ./source/bootloader/src/bl_shutdown_cleanup.o
                                                  ./source/bootloader/src/bl_main.o
                                                  ./source/bootloader/src/bl_command.o
                                                  ./source/sbloader/src/sbloader.o
signal                                            c:/nxp/mcuxpressoide_11.6.1_8255/ide/plugins/com.nxp.mcuxpresso.tools.win32_11.6.1.202207200623/tools/bin/../lib/gcc/arm-none-eabi/10.3.1/../../../../arm-none-eabi/lib/thumb/v7e-m+dp/hard\libc_nano.a(lib_a-signal.o)
spi_clock_config                                  ./MIMXRT1052/hardware_init_MIMXRT1052.o
                                                  ./source/memory/src/spi_nor_eeprom_memory.o
spi_clock_gate_enable                             ./MIMXRT1052/hardware_init_MIMXRT1052.o
                                                  ./source/memory/src/spi_nor_eeprom_memory.o
spi_iomux_config                                  ./MIMXRT1052/hardware_init_MIMXRT1052.o
                                                  ./source/memory/src/spi_nor_eeprom_memory.o
spi_nor_eeprom_get_property                       ./source/memory/src/spi_nor_eeprom_memory.o
                                                  ./MIMXRT1052/external_memory_property_map_MIMXRT1052.o
spi_nor_eeprom_mem_config                         ./source/memory/src/spi_nor_eeprom_memory.o
spi_nor_eeprom_mem_erase                          ./source/memory/src/spi_nor_eeprom_memory.o
spi_nor_eeprom_mem_erase_all                      ./source/memory/src/spi_nor_eeprom_memory.o
                                                  ./source/bootloader/src/bl_command.o
spi_nor_eeprom_mem_flush                          ./source/memory/src/spi_nor_eeprom_memory.o
spi_nor_eeprom_mem_init                           ./source/memory/src/spi_nor_eeprom_memory.o
spi_nor_eeprom_mem_read                           ./source/memory/src/spi_nor_eeprom_memory.o
spi_nor_eeprom_mem_write                          ./source/memory/src/spi_nor_eeprom_memory.o
spi_nor_eeprom_memorySizeOption                   ./source/memory/src/spi_nor_eeprom_memory.o
spi_nor_eeprom_pageSizeOption                     ./source/memory/src/spi_nor_eeprom_memory.o
spi_nor_eeprom_sectorSizeOption                   ./source/memory/src/spi_nor_eeprom_memory.o
spi_pcs_pin_control                               ./MIMXRT1052/hardware_init_MIMXRT1052.o
                                                  ./source/memory/src/spi_nor_eeprom_memory.o
spinand_get_property                              ./source/memory/src/spinand_memory.o
                                                  ./MIMXRT1052/external_memory_property_map_MIMXRT1052.o
spinand_mem_config                                ./source/memory/src/spinand_memory.o
spinand_mem_erase                                 ./source/memory/src/spinand_memory.o
spinand_mem_erase_all                             ./source/memory/src/spinand_memory.o
                                                  ./source/bootloader/src/bl_command.o
                                                  ./source/sbloader/src/sbloader.o
spinand_mem_finalize                              ./source/memory/src/spinand_memory.o
spinand_mem_flush                                 ./source/memory/src/spinand_memory.o
spinand_mem_init                                  ./source/memory/src/spinand_memory.o
spinand_mem_read                                  ./source/memory/src/spinand_memory.o
spinand_mem_write                                 ./source/memory/src/spinand_memory.o
sram_init                                         ./source/memory/src/sram_init_MIMXRT1052.o
                                                  ./source/memory/src/normal_memory.o
sync_init                                         ./source/utilities/src/fsl_rtos_abstraction.o
                                                  ./source/bootloader/src/usb_hid_msc_peripheral_interface.o
                                                  ./source/usb/bm_composite/hid_bootloader.o
sync_reset                                        ./source/utilities/src/fsl_rtos_abstraction.o
sync_signal                                       ./source/utilities/src/fsl_rtos_abstraction.o
                                                  ./source/bootloader/src/usb_hid_msc_peripheral_interface.o
                                                  ./source/usb/bm_composite/hid_bootloader.o
sync_wait                                         ./source/utilities/src/fsl_rtos_abstraction.o
                                                  ./source/bootloader/src/usb_hid_msc_peripheral_interface.o
target_load_bootloader_config_area                ./source/property/src/property_imx.o
uart_pinmux_config                                ./MIMXRT1052/pinmux_utility_imxrt_series.o
                                                  ./MIMXRT1052/bl_peripherals_MIMXRT1052.o
update_available_peripherals                      ./MIMXRT1052/hardware_init_MIMXRT1052.o
                                                  ./source/property/src/property_imx.o
usb_clock_init                                    ./MIMXRT1052/bl_clock_config_MIMXRT1052.o
                                                  ./source/bootloader/src/usb_hid_msc_peripheral_interface.o
usb_device_callback                               ./source/bootloader/src/usb_hid_msc_peripheral_interface.o
                                                  ./source/usb/bm_composite/composite.o
usb_device_get_configuration_descriptor           ./source/usb/bm_composite/usb_descriptor.o
                                                  ./source/bootloader/src/usb_hid_msc_peripheral_interface.o
usb_device_get_device_descriptor                  ./source/usb/bm_composite/usb_descriptor.o
                                                  ./source/bootloader/src/usb_hid_msc_peripheral_interface.o
usb_device_get_hid_descriptor                     ./source/usb/bm_composite/usb_descriptor.o
                                                  ./source/bootloader/src/usb_hid_msc_peripheral_interface.o
usb_device_get_hid_physical_descriptor            ./source/usb/bm_composite/usb_descriptor.o
                                                  ./source/bootloader/src/usb_hid_msc_peripheral_interface.o
usb_device_get_hid_report_descriptor              ./source/usb/bm_composite/usb_descriptor.o
                                                  ./source/bootloader/src/usb_hid_msc_peripheral_interface.o
usb_device_get_string_descriptor                  ./source/usb/bm_composite/usb_descriptor.o
                                                  ./source/bootloader/src/usb_hid_msc_peripheral_interface.o
usb_device_hid_generic_callback                   ./source/usb/bm_composite/hid_bootloader.o
                                                  ./source/usb/bm_composite/composite.o
usb_device_hid_generic_deinit                     ./source/usb/bm_composite/hid_bootloader.o
                                                  ./source/bootloader/src/usb_hid_msc_peripheral_interface.o
usb_device_hid_generic_init                       ./source/usb/bm_composite/hid_bootloader.o
                                                  ./source/bootloader/src/usb_hid_msc_peripheral_interface.o
usb_device_hid_generic_set_configure              ./source/usb/bm_composite/hid_bootloader.o
                                                  ./source/bootloader/src/usb_hid_msc_peripheral_interface.o
usb_device_hid_generic_set_interface              ./source/usb/bm_composite/hid_bootloader.o
                                                  ./source/bootloader/src/usb_hid_msc_peripheral_interface.o
usb_device_set_speed                              ./source/usb/bm_composite/usb_descriptor.o
                                                  ./source/bootloader/src/usb_hid_msc_peripheral_interface.o
usdhc_power_control                               ./MIMXRT1052/sdmmc_config_MIMXRT1052.o
                                                  ./source/drivers/sdmmc/fsl_sd.o
                                                  ./source/drivers/sdmmc/fsl_mmc.o
usdhc_power_control_init                          ./MIMXRT1052/sdmmc_config_MIMXRT1052.o
                                                  ./source/drivers/sdmmc/fsl_sd.o
                                                  ./source/drivers/sdmmc/fsl_mmc.o
usdhc_vselect_init                                ./MIMXRT1052/sdmmc_config_MIMXRT1052.o
                                                  ./source/drivers/sdmmc/fsl_sd.o
                                                  ./source/drivers/sdmmc/fsl_mmc.o
usdhc_vselect_pin_settings                        ./MIMXRT1052/sdmmc_config_MIMXRT1052.o
vfiprintf                                         c:/nxp/mcuxpressoide_11.6.1_8255/ide/plugins/com.nxp.mcuxpresso.tools.win32_11.6.1.202207200623/tools/bin/../lib/gcc/arm-none-eabi/10.3.1/../../../../arm-none-eabi/lib/thumb/v7e-m+dp/hard\libc_nano.a(lib_a-nano-vfprintf.o)
vfprintf                                          c:/nxp/mcuxpressoide_11.6.1_8255/ide/plugins/com.nxp.mcuxpresso.tools.win32_11.6.1.202207200623/tools/bin/../lib/gcc/arm-none-eabi/10.3.1/../../../../arm-none-eabi/lib/thumb/v7e-m+dp/hard\libc_nano.a(lib_a-nano-vfprintf.o)
