Archive member included to satisfy reference by file (symbol)

c:/nxp/mcuxpressoide_11.6.1_8255/ide/plugins/com.nxp.mcuxpresso.tools.win32_11.6.1.202207200623/tools/bin/../lib/gcc/arm-none-eabi/10.3.1/../../../../arm-none-eabi/lib/thumb/v7e-m+dp/hard\libcr_nohost_nf.a(_cr__main.o)
                              ./startup/startup_mimxrt1052.o (__main)
c:/nxp/mcuxpressoide_11.6.1_8255/ide/plugins/com.nxp.mcuxpresso.tools.win32_11.6.1.202207200623/tools/bin/../lib/gcc/arm-none-eabi/10.3.1/../../../../arm-none-eabi/lib/thumb/v7e-m+dp/hard\libcr_c.a(memcpy.o)
                              ./utilities/fsl_debug_console.o (memcpy)
c:/nxp/mcuxpressoide_11.6.1_8255/ide/plugins/com.nxp.mcuxpresso.tools.win32_11.6.1.202207200623/tools/bin/../lib/gcc/arm-none-eabi/10.3.1/../../../../arm-none-eabi/lib/thumb/v7e-m+dp/hard\libcr_c.a(memset.o)
                              ./source/flexspi_romapi.o (memset)
c:/nxp/mcuxpressoide_11.6.1_8255/ide/plugins/com.nxp.mcuxpresso.tools.win32_11.6.1.202207200623/tools/bin/../lib/gcc/arm-none-eabi/10.3.1/../../../../arm-none-eabi/lib/thumb/v7e-m+dp/hard\libcr_c.a(alloc.o)
                              ./drivers/fsl_common.o (malloc)
c:/nxp/mcuxpressoide_11.6.1_8255/ide/plugins/com.nxp.mcuxpresso.tools.win32_11.6.1.202207200623/tools/bin/../lib/gcc/arm-none-eabi/10.3.1/../../../../arm-none-eabi/lib/thumb/v7e-m+dp/hard\libcr_c.a(initio.o)
                              c:/nxp/mcuxpressoide_11.6.1_8255/ide/plugins/com.nxp.mcuxpresso.tools.win32_11.6.1.202207200623/tools/bin/../lib/gcc/arm-none-eabi/10.3.1/../../../../arm-none-eabi/lib/thumb/v7e-m+dp/hard\libcr_nohost_nf.a(_cr__main.o) (_initio)
c:/nxp/mcuxpressoide_11.6.1_8255/ide/plugins/com.nxp.mcuxpresso.tools.win32_11.6.1.202207200623/tools/bin/../lib/gcc/arm-none-eabi/10.3.1/../../../../arm-none-eabi/lib/thumb/v7e-m+dp/hard\libcr_c.a(memcmp.o)
                              ./source/flexspi_romapi.o (memcmp)
c:/nxp/mcuxpressoide_11.6.1_8255/ide/plugins/com.nxp.mcuxpresso.tools.win32_11.6.1.202207200623/tools/bin/../lib/gcc/arm-none-eabi/10.3.1/../../../../arm-none-eabi/lib/thumb/v7e-m+dp/hard\libcr_c.a(setvbuf.o)
                              c:/nxp/mcuxpressoide_11.6.1_8255/ide/plugins/com.nxp.mcuxpresso.tools.win32_11.6.1.202207200623/tools/bin/../lib/gcc/arm-none-eabi/10.3.1/../../../../arm-none-eabi/lib/thumb/v7e-m+dp/hard\libcr_c.a(initio.o) (setvbuf)
c:/nxp/mcuxpressoide_11.6.1_8255/ide/plugins/com.nxp.mcuxpresso.tools.win32_11.6.1.202207200623/tools/bin/../lib/gcc/arm-none-eabi/10.3.1/../../../../arm-none-eabi/lib/thumb/v7e-m+dp/hard\libcr_c.a(strlen.o)
                              ./utilities/fsl_debug_console.o (strlen)
c:/nxp/mcuxpressoide_11.6.1_8255/ide/plugins/com.nxp.mcuxpresso.tools.win32_11.6.1.202207200623/tools/bin/../lib/gcc/arm-none-eabi/10.3.1/../../../../arm-none-eabi/lib/thumb/v7e-m+dp/hard\libcr_c.a(__init_alloc.o)
                              c:/nxp/mcuxpressoide_11.6.1_8255/ide/plugins/com.nxp.mcuxpresso.tools.win32_11.6.1.202207200623/tools/bin/../lib/gcc/arm-none-eabi/10.3.1/../../../../arm-none-eabi/lib/thumb/v7e-m+dp/hard\libcr_c.a(alloc.o) (__heaps)
c:/nxp/mcuxpressoide_11.6.1_8255/ide/plugins/com.nxp.mcuxpresso.tools.win32_11.6.1.202207200623/tools/bin/../lib/gcc/arm-none-eabi/10.3.1/../../../../arm-none-eabi/lib/thumb/v7e-m+dp/hard\libcr_c.a(_cr_sbrk.o)
                              c:/nxp/mcuxpressoide_11.6.1_8255/ide/plugins/com.nxp.mcuxpresso.tools.win32_11.6.1.202207200623/tools/bin/../lib/gcc/arm-none-eabi/10.3.1/../../../../arm-none-eabi/lib/thumb/v7e-m+dp/hard\libcr_c.a(alloc.o) (_sbrk)
c:/nxp/mcuxpressoide_11.6.1_8255/ide/plugins/com.nxp.mcuxpresso.tools.win32_11.6.1.202207200623/tools/bin/../lib/gcc/arm-none-eabi/10.3.1/../../../../arm-none-eabi/lib/thumb/v7e-m+dp/hard\libcr_c.a(_fdopen.o)
                              c:/nxp/mcuxpressoide_11.6.1_8255/ide/plugins/com.nxp.mcuxpresso.tools.win32_11.6.1.202207200623/tools/bin/../lib/gcc/arm-none-eabi/10.3.1/../../../../arm-none-eabi/lib/thumb/v7e-m+dp/hard\libcr_c.a(initio.o) (_fdopen)
c:/nxp/mcuxpressoide_11.6.1_8255/ide/plugins/com.nxp.mcuxpresso.tools.win32_11.6.1.202207200623/tools/bin/../lib/gcc/arm-none-eabi/10.3.1/../../../../arm-none-eabi/lib/thumb/v7e-m+dp/hard\libcr_c.a(errno.o)
                              c:/nxp/mcuxpressoide_11.6.1_8255/ide/plugins/com.nxp.mcuxpresso.tools.win32_11.6.1.202207200623/tools/bin/../lib/gcc/arm-none-eabi/10.3.1/../../../../arm-none-eabi/lib/thumb/v7e-m+dp/hard\libcr_c.a(_cr_sbrk.o) (errno)
c:/nxp/mcuxpressoide_11.6.1_8255/ide/plugins/com.nxp.mcuxpresso.tools.win32_11.6.1.202207200623/tools/bin/../lib/gcc/arm-none-eabi/10.3.1/../../../../arm-none-eabi/lib/thumb/v7e-m+dp/hard\libcr_c.a(fclose.o)
                              c:/nxp/mcuxpressoide_11.6.1_8255/ide/plugins/com.nxp.mcuxpresso.tools.win32_11.6.1.202207200623/tools/bin/../lib/gcc/arm-none-eabi/10.3.1/../../../../arm-none-eabi/lib/thumb/v7e-m+dp/hard\libcr_c.a(initio.o) (fclose)
c:/nxp/mcuxpressoide_11.6.1_8255/ide/plugins/com.nxp.mcuxpresso.tools.win32_11.6.1.202207200623/tools/bin/../lib/gcc/arm-none-eabi/10.3.1/../../../../arm-none-eabi/lib/thumb/v7e-m+dp/hard\libcr_c.a(fflush.o)
                              c:/nxp/mcuxpressoide_11.6.1_8255/ide/plugins/com.nxp.mcuxpresso.tools.win32_11.6.1.202207200623/tools/bin/../lib/gcc/arm-none-eabi/10.3.1/../../../../arm-none-eabi/lib/thumb/v7e-m+dp/hard\libcr_c.a(fclose.o) (fflush)
c:/nxp/mcuxpressoide_11.6.1_8255/ide/plugins/com.nxp.mcuxpresso.tools.win32_11.6.1.202207200623/tools/bin/../lib/gcc/arm-none-eabi/10.3.1/../../../../arm-none-eabi/lib/thumb/v7e-m+dp/hard\libcr_c.a(fseek.o)
                              c:/nxp/mcuxpressoide_11.6.1_8255/ide/plugins/com.nxp.mcuxpresso.tools.win32_11.6.1.202207200623/tools/bin/../lib/gcc/arm-none-eabi/10.3.1/../../../../arm-none-eabi/lib/thumb/v7e-m+dp/hard\libcr_c.a(_fdopen.o) (fseek)
c:/nxp/mcuxpressoide_11.6.1_8255/ide/plugins/com.nxp.mcuxpresso.tools.win32_11.6.1.202207200623/tools/bin/../lib/gcc/arm-none-eabi/10.3.1/../../../../arm-none-eabi/lib/thumb/v7e-m+dp/hard\libcr_c.a(ftell.o)
                              c:/nxp/mcuxpressoide_11.6.1_8255/ide/plugins/com.nxp.mcuxpresso.tools.win32_11.6.1.202207200623/tools/bin/../lib/gcc/arm-none-eabi/10.3.1/../../../../arm-none-eabi/lib/thumb/v7e-m+dp/hard\libcr_c.a(fseek.o) (ftell)
c:/nxp/mcuxpressoide_11.6.1_8255/ide/plugins/com.nxp.mcuxpresso.tools.win32_11.6.1.202207200623/tools/bin/../lib/gcc/arm-none-eabi/10.3.1/../../../../arm-none-eabi/lib/thumb/v7e-m+dp/hard\libcr_c.a(remove.o)
                              c:/nxp/mcuxpressoide_11.6.1_8255/ide/plugins/com.nxp.mcuxpresso.tools.win32_11.6.1.202207200623/tools/bin/../lib/gcc/arm-none-eabi/10.3.1/../../../../arm-none-eabi/lib/thumb/v7e-m+dp/hard\libcr_c.a(fclose.o) (remove)
c:/nxp/mcuxpressoide_11.6.1_8255/ide/plugins/com.nxp.mcuxpresso.tools.win32_11.6.1.202207200623/tools/bin/../lib/gcc/arm-none-eabi/10.3.1/../../../../arm-none-eabi/lib/thumb/v7e-m+dp/hard\libcr_c.a(_cr_check_heap.o)
                              c:/nxp/mcuxpressoide_11.6.1_8255/ide/plugins/com.nxp.mcuxpresso.tools.win32_11.6.1.202207200623/tools/bin/../lib/gcc/arm-none-eabi/10.3.1/../../../../arm-none-eabi/lib/thumb/v7e-m+dp/hard\libcr_c.a(_cr_sbrk.o) (__check_heap_overflow)
c:/nxp/mcuxpressoide_11.6.1_8255/ide/plugins/com.nxp.mcuxpresso.tools.win32_11.6.1.202207200623/tools/bin/../lib/gcc/arm-none-eabi/10.3.1/../../../../arm-none-eabi/lib/thumb/v7e-m+dp/hard\libcr_c.a(_do_fflush.o)
                              c:/nxp/mcuxpressoide_11.6.1_8255/ide/plugins/com.nxp.mcuxpresso.tools.win32_11.6.1.202207200623/tools/bin/../lib/gcc/arm-none-eabi/10.3.1/../../../../arm-none-eabi/lib/thumb/v7e-m+dp/hard\libcr_c.a(fflush.o) (_do_fflush)
c:/nxp/mcuxpressoide_11.6.1_8255/ide/plugins/com.nxp.mcuxpresso.tools.win32_11.6.1.202207200623/tools/bin/../lib/gcc/arm-none-eabi/10.3.1/../../../../arm-none-eabi/lib/thumb/v7e-m+dp/hard\libcr_c.a(_fflush.o)
                              c:/nxp/mcuxpressoide_11.6.1_8255/ide/plugins/com.nxp.mcuxpresso.tools.win32_11.6.1.202207200623/tools/bin/../lib/gcc/arm-none-eabi/10.3.1/../../../../arm-none-eabi/lib/thumb/v7e-m+dp/hard\libcr_c.a(_do_fflush.o) (_fflush)
c:/nxp/mcuxpressoide_11.6.1_8255/ide/plugins/com.nxp.mcuxpresso.tools.win32_11.6.1.202207200623/tools/bin/../lib/gcc/arm-none-eabi/10.3.1/../../../../arm-none-eabi/lib/thumb/v7e-m+dp/hard\libcr_c.a(_writebuf.o)
                              c:/nxp/mcuxpressoide_11.6.1_8255/ide/plugins/com.nxp.mcuxpresso.tools.win32_11.6.1.202207200623/tools/bin/../lib/gcc/arm-none-eabi/10.3.1/../../../../arm-none-eabi/lib/thumb/v7e-m+dp/hard\libcr_c.a(_fflush.o) (_Cwritebuf)
c:/nxp/mcuxpressoide_11.6.1_8255/ide/plugins/com.nxp.mcuxpresso.tools.win32_11.6.1.202207200623/tools/bin/../lib/gcc/arm-none-eabi/10.3.1/../../../../arm-none-eabi/lib/thumb/v7e-m+dp/hard\libcr_c.a(_deferredlazyseek.o)
                              c:/nxp/mcuxpressoide_11.6.1_8255/ide/plugins/com.nxp.mcuxpresso.tools.win32_11.6.1.202207200623/tools/bin/../lib/gcc/arm-none-eabi/10.3.1/../../../../arm-none-eabi/lib/thumb/v7e-m+dp/hard\libcr_c.a(_do_fflush.o) (_deferredlazyseek)
c:/nxp/mcuxpressoide_11.6.1_8255/ide/plugins/com.nxp.mcuxpresso.tools.win32_11.6.1.202207200623/tools/bin/../lib/gcc/arm-none-eabi/10.3.1/thumb/v7e-m+dp/hard\libcr_eabihelpers.a(division_64.o)
                              ./drivers/fsl_common_arm.o (__aeabi_uldivmod)
c:/nxp/mcuxpressoide_11.6.1_8255/ide/plugins/com.nxp.mcuxpresso.tools.win32_11.6.1.202207200623/tools/bin/../lib/gcc/arm-none-eabi/10.3.1/thumb/v7e-m+dp/hard\libcr_eabihelpers.a(division_idiv0.o)
                              c:/nxp/mcuxpressoide_11.6.1_8255/ide/plugins/com.nxp.mcuxpresso.tools.win32_11.6.1.202207200623/tools/bin/../lib/gcc/arm-none-eabi/10.3.1/thumb/v7e-m+dp/hard\libcr_eabihelpers.a(division_64.o) (__aeabi_idiv0)
c:/nxp/mcuxpressoide_11.6.1_8255/ide/plugins/com.nxp.mcuxpresso.tools.win32_11.6.1.202207200623/tools/bin/../lib/gcc/arm-none-eabi/10.3.1/thumb/v7e-m+dp/hard\libcr_eabihelpers.a(memcpy.o)
                              c:/nxp/mcuxpressoide_11.6.1_8255/ide/plugins/com.nxp.mcuxpresso.tools.win32_11.6.1.202207200623/tools/bin/../lib/gcc/arm-none-eabi/10.3.1/../../../../arm-none-eabi/lib/thumb/v7e-m+dp/hard\libcr_c.a(memcpy.o) (__aeabi_memcpy)
c:/nxp/mcuxpressoide_11.6.1_8255/ide/plugins/com.nxp.mcuxpresso.tools.win32_11.6.1.202207200623/tools/bin/../lib/gcc/arm-none-eabi/10.3.1/../../../../arm-none-eabi/lib/thumb/v7e-m+dp/hard\libcr_nohost_nf.a(__ciob.o)
                              c:/nxp/mcuxpressoide_11.6.1_8255/ide/plugins/com.nxp.mcuxpresso.tools.win32_11.6.1.202207200623/tools/bin/../lib/gcc/arm-none-eabi/10.3.1/../../../../arm-none-eabi/lib/thumb/v7e-m+dp/hard\libcr_c.a(initio.o) (__Ciob)
c:/nxp/mcuxpressoide_11.6.1_8255/ide/plugins/com.nxp.mcuxpresso.tools.win32_11.6.1.202207200623/tools/bin/../lib/gcc/arm-none-eabi/10.3.1/../../../../arm-none-eabi/lib/thumb/v7e-m+dp/hard\libcr_nohost_nf.a(__sys_appexit.o)
                              c:/nxp/mcuxpressoide_11.6.1_8255/ide/plugins/com.nxp.mcuxpresso.tools.win32_11.6.1.202207200623/tools/bin/../lib/gcc/arm-none-eabi/10.3.1/../../../../arm-none-eabi/lib/thumb/v7e-m+dp/hard\libcr_c.a(alloc.o) (__sys_appexit)
c:/nxp/mcuxpressoide_11.6.1_8255/ide/plugins/com.nxp.mcuxpresso.tools.win32_11.6.1.202207200623/tools/bin/../lib/gcc/arm-none-eabi/10.3.1/../../../../arm-none-eabi/lib/thumb/v7e-m+dp/hard\libcr_nohost_nf.a(__sys_close.o)
                              c:/nxp/mcuxpressoide_11.6.1_8255/ide/plugins/com.nxp.mcuxpresso.tools.win32_11.6.1.202207200623/tools/bin/../lib/gcc/arm-none-eabi/10.3.1/../../../../arm-none-eabi/lib/thumb/v7e-m+dp/hard\libcr_c.a(fclose.o) (__sys_close)
c:/nxp/mcuxpressoide_11.6.1_8255/ide/plugins/com.nxp.mcuxpresso.tools.win32_11.6.1.202207200623/tools/bin/../lib/gcc/arm-none-eabi/10.3.1/../../../../arm-none-eabi/lib/thumb/v7e-m+dp/hard\libcr_nohost_nf.a(__sys_flen.o)
                              c:/nxp/mcuxpressoide_11.6.1_8255/ide/plugins/com.nxp.mcuxpresso.tools.win32_11.6.1.202207200623/tools/bin/../lib/gcc/arm-none-eabi/10.3.1/../../../../arm-none-eabi/lib/thumb/v7e-m+dp/hard\libcr_c.a(fseek.o) (__sys_flen)
c:/nxp/mcuxpressoide_11.6.1_8255/ide/plugins/com.nxp.mcuxpresso.tools.win32_11.6.1.202207200623/tools/bin/../lib/gcc/arm-none-eabi/10.3.1/../../../../arm-none-eabi/lib/thumb/v7e-m+dp/hard\libcr_nohost_nf.a(__sys_istty.o)
                              c:/nxp/mcuxpressoide_11.6.1_8255/ide/plugins/com.nxp.mcuxpresso.tools.win32_11.6.1.202207200623/tools/bin/../lib/gcc/arm-none-eabi/10.3.1/../../../../arm-none-eabi/lib/thumb/v7e-m+dp/hard\libcr_c.a(fseek.o) (__sys_istty)
c:/nxp/mcuxpressoide_11.6.1_8255/ide/plugins/com.nxp.mcuxpresso.tools.win32_11.6.1.202207200623/tools/bin/../lib/gcc/arm-none-eabi/10.3.1/../../../../arm-none-eabi/lib/thumb/v7e-m+dp/hard\libcr_nohost_nf.a(__sys_remove.o)
                              c:/nxp/mcuxpressoide_11.6.1_8255/ide/plugins/com.nxp.mcuxpresso.tools.win32_11.6.1.202207200623/tools/bin/../lib/gcc/arm-none-eabi/10.3.1/../../../../arm-none-eabi/lib/thumb/v7e-m+dp/hard\libcr_c.a(remove.o) (__sys_remove)
c:/nxp/mcuxpressoide_11.6.1_8255/ide/plugins/com.nxp.mcuxpresso.tools.win32_11.6.1.202207200623/tools/bin/../lib/gcc/arm-none-eabi/10.3.1/../../../../arm-none-eabi/lib/thumb/v7e-m+dp/hard\libcr_nohost_nf.a(__sys_rename.o)
                              c:/nxp/mcuxpressoide_11.6.1_8255/ide/plugins/com.nxp.mcuxpresso.tools.win32_11.6.1.202207200623/tools/bin/../lib/gcc/arm-none-eabi/10.3.1/../../../../arm-none-eabi/lib/thumb/v7e-m+dp/hard\libcr_c.a(remove.o) (__sys_rename)
c:/nxp/mcuxpressoide_11.6.1_8255/ide/plugins/com.nxp.mcuxpresso.tools.win32_11.6.1.202207200623/tools/bin/../lib/gcc/arm-none-eabi/10.3.1/../../../../arm-none-eabi/lib/thumb/v7e-m+dp/hard\libcr_nohost_nf.a(__sys_seek.o)
                              c:/nxp/mcuxpressoide_11.6.1_8255/ide/plugins/com.nxp.mcuxpresso.tools.win32_11.6.1.202207200623/tools/bin/../lib/gcc/arm-none-eabi/10.3.1/../../../../arm-none-eabi/lib/thumb/v7e-m+dp/hard\libcr_c.a(_writebuf.o) (__sys_seek)
c:/nxp/mcuxpressoide_11.6.1_8255/ide/plugins/com.nxp.mcuxpresso.tools.win32_11.6.1.202207200623/tools/bin/../lib/gcc/arm-none-eabi/10.3.1/../../../../arm-none-eabi/lib/thumb/v7e-m+dp/hard\libcr_nohost_nf.a(__sys_tmpnam.o)
                              c:/nxp/mcuxpressoide_11.6.1_8255/ide/plugins/com.nxp.mcuxpresso.tools.win32_11.6.1.202207200623/tools/bin/../lib/gcc/arm-none-eabi/10.3.1/../../../../arm-none-eabi/lib/thumb/v7e-m+dp/hard\libcr_c.a(fclose.o) (__sys_tmpnam)
c:/nxp/mcuxpressoide_11.6.1_8255/ide/plugins/com.nxp.mcuxpresso.tools.win32_11.6.1.202207200623/tools/bin/../lib/gcc/arm-none-eabi/10.3.1/../../../../arm-none-eabi/lib/thumb/v7e-m+dp/hard\libcr_nohost_nf.a(__sys_write.o)
                              c:/nxp/mcuxpressoide_11.6.1_8255/ide/plugins/com.nxp.mcuxpresso.tools.win32_11.6.1.202207200623/tools/bin/../lib/gcc/arm-none-eabi/10.3.1/../../../../arm-none-eabi/lib/thumb/v7e-m+dp/hard\libcr_c.a(alloc.o) (__sys_write)

Discarded input sections

 .group         0x00000000        0xc ./xip/evkbimxrt1050_flexspi_nor_config.o
 .group         0x00000000        0xc ./xip/evkbimxrt1050_flexspi_nor_config.o
 .group         0x00000000        0xc ./xip/evkbimxrt1050_flexspi_nor_config.o
 .group         0x00000000        0xc ./xip/evkbimxrt1050_flexspi_nor_config.o
 .group         0x00000000        0xc ./xip/evkbimxrt1050_flexspi_nor_config.o
 .group         0x00000000        0xc ./xip/evkbimxrt1050_flexspi_nor_config.o
 .group         0x00000000        0xc ./xip/evkbimxrt1050_flexspi_nor_config.o
 .group         0x00000000        0xc ./xip/evkbimxrt1050_flexspi_nor_config.o
 .group         0x00000000        0xc ./xip/evkbimxrt1050_flexspi_nor_config.o
 .group         0x00000000        0xc ./xip/evkbimxrt1050_flexspi_nor_config.o
 .group         0x00000000        0xc ./xip/evkbimxrt1050_flexspi_nor_config.o
 .group         0x00000000        0xc ./xip/evkbimxrt1050_flexspi_nor_config.o
 .group         0x00000000        0xc ./xip/evkbimxrt1050_flexspi_nor_config.o
 .group         0x00000000        0xc ./xip/evkbimxrt1050_flexspi_nor_config.o
 .group         0x00000000        0xc ./xip/evkbimxrt1050_flexspi_nor_config.o
 .group         0x00000000        0xc ./xip/evkbimxrt1050_flexspi_nor_config.o
 .group         0x00000000        0xc ./xip/evkbimxrt1050_flexspi_nor_config.o
 .group         0x00000000        0xc ./xip/evkbimxrt1050_flexspi_nor_config.o
 .group         0x00000000        0xc ./xip/evkbimxrt1050_flexspi_nor_config.o
 .group         0x00000000        0xc ./xip/evkbimxrt1050_flexspi_nor_config.o
 .group         0x00000000        0xc ./xip/evkbimxrt1050_flexspi_nor_config.o
 .group         0x00000000        0xc ./xip/evkbimxrt1050_flexspi_nor_config.o
 .text          0x00000000        0x0 ./xip/evkbimxrt1050_flexspi_nor_config.o
 .data          0x00000000        0x0 ./xip/evkbimxrt1050_flexspi_nor_config.o
 .bss           0x00000000        0x0 ./xip/evkbimxrt1050_flexspi_nor_config.o
 .group         0x00000000        0xc ./xip/fsl_flexspi_nor_boot.o
 .group         0x00000000        0xc ./xip/fsl_flexspi_nor_boot.o
 .group         0x00000000        0xc ./xip/fsl_flexspi_nor_boot.o
 .group         0x00000000        0xc ./xip/fsl_flexspi_nor_boot.o
 .group         0x00000000        0xc ./xip/fsl_flexspi_nor_boot.o
 .group         0x00000000        0xc ./xip/fsl_flexspi_nor_boot.o
 .group         0x00000000        0xc ./xip/fsl_flexspi_nor_boot.o
 .group         0x00000000        0xc ./xip/fsl_flexspi_nor_boot.o
 .group         0x00000000        0xc ./xip/fsl_flexspi_nor_boot.o
 .group         0x00000000        0xc ./xip/fsl_flexspi_nor_boot.o
 .group         0x00000000        0xc ./xip/fsl_flexspi_nor_boot.o
 .group         0x00000000        0xc ./xip/fsl_flexspi_nor_boot.o
 .group         0x00000000        0xc ./xip/fsl_flexspi_nor_boot.o
 .group         0x00000000        0xc ./xip/fsl_flexspi_nor_boot.o
 .group         0x00000000        0xc ./xip/fsl_flexspi_nor_boot.o
 .group         0x00000000        0xc ./xip/fsl_flexspi_nor_boot.o
 .group         0x00000000        0xc ./xip/fsl_flexspi_nor_boot.o
 .group         0x00000000        0xc ./xip/fsl_flexspi_nor_boot.o
 .group         0x00000000        0xc ./xip/fsl_flexspi_nor_boot.o
 .group         0x00000000        0xc ./xip/fsl_flexspi_nor_boot.o
 .group         0x00000000        0xc ./xip/fsl_flexspi_nor_boot.o
 .group         0x00000000        0xc ./xip/fsl_flexspi_nor_boot.o
 .group         0x00000000        0xc ./xip/fsl_flexspi_nor_boot.o
 .group         0x00000000        0xc ./xip/fsl_flexspi_nor_boot.o
 .group         0x00000000        0xc ./xip/fsl_flexspi_nor_boot.o
 .text          0x00000000        0x0 ./xip/fsl_flexspi_nor_boot.o
 .data          0x00000000        0x0 ./xip/fsl_flexspi_nor_boot.o
 .bss           0x00000000        0x0 ./xip/fsl_flexspi_nor_boot.o
 .debug_macro   0x00000000      0xacc ./xip/fsl_flexspi_nor_boot.o
 .debug_macro   0x00000000       0x10 ./xip/fsl_flexspi_nor_boot.o
 .debug_macro   0x00000000      0x12e ./xip/fsl_flexspi_nor_boot.o
 .debug_macro   0x00000000      0x5b4 ./xip/fsl_flexspi_nor_boot.o
 .debug_macro   0x00000000       0x16 ./xip/fsl_flexspi_nor_boot.o
 .debug_macro   0x00000000       0x22 ./xip/fsl_flexspi_nor_boot.o
 .debug_macro   0x00000000       0x22 ./xip/fsl_flexspi_nor_boot.o
 .debug_macro   0x00000000       0x10 ./xip/fsl_flexspi_nor_boot.o
 .debug_macro   0x00000000       0x4d ./xip/fsl_flexspi_nor_boot.o
 .debug_macro   0x00000000       0x1c ./xip/fsl_flexspi_nor_boot.o
 .debug_macro   0x00000000       0x22 ./xip/fsl_flexspi_nor_boot.o
 .debug_macro   0x00000000       0xfb ./xip/fsl_flexspi_nor_boot.o
 .debug_macro   0x00000000     0x1313 ./xip/fsl_flexspi_nor_boot.o
 .debug_macro   0x00000000      0x11f ./xip/fsl_flexspi_nor_boot.o
 .debug_macro   0x00000000       0x22 ./xip/fsl_flexspi_nor_boot.o
 .debug_macro   0x00000000       0x22 ./xip/fsl_flexspi_nor_boot.o
 .debug_macro   0x00000000    0x24b4f ./xip/fsl_flexspi_nor_boot.o
 .debug_macro   0x00000000      0x86b ./xip/fsl_flexspi_nor_boot.o
 .debug_macro   0x00000000       0x7a ./xip/fsl_flexspi_nor_boot.o
 .debug_macro   0x00000000       0xaf ./xip/fsl_flexspi_nor_boot.o
 .debug_macro   0x00000000      0x24e ./xip/fsl_flexspi_nor_boot.o
 .group         0x00000000        0xc ./utilities/fsl_assert.o
 .group         0x00000000        0xc ./utilities/fsl_assert.o
 .group         0x00000000        0xc ./utilities/fsl_assert.o
 .group         0x00000000        0xc ./utilities/fsl_assert.o
 .group         0x00000000        0xc ./utilities/fsl_assert.o
 .group         0x00000000        0xc ./utilities/fsl_assert.o
 .group         0x00000000        0xc ./utilities/fsl_assert.o
 .group         0x00000000        0xc ./utilities/fsl_assert.o
 .group         0x00000000        0xc ./utilities/fsl_assert.o
 .group         0x00000000        0xc ./utilities/fsl_assert.o
 .group         0x00000000        0xc ./utilities/fsl_assert.o
 .group         0x00000000        0xc ./utilities/fsl_assert.o
 .group         0x00000000        0xc ./utilities/fsl_assert.o
 .group         0x00000000        0xc ./utilities/fsl_assert.o
 .group         0x00000000        0xc ./utilities/fsl_assert.o
 .group         0x00000000        0xc ./utilities/fsl_assert.o
 .group         0x00000000        0xc ./utilities/fsl_assert.o
 .group         0x00000000        0xc ./utilities/fsl_assert.o
 .group         0x00000000        0xc ./utilities/fsl_assert.o
 .group         0x00000000        0xc ./utilities/fsl_assert.o
 .group         0x00000000        0xc ./utilities/fsl_assert.o
 .group         0x00000000        0xc ./utilities/fsl_assert.o
 .group         0x00000000        0xc ./utilities/fsl_assert.o
 .group         0x00000000        0xc ./utilities/fsl_assert.o
 .text          0x00000000        0x0 ./utilities/fsl_assert.o
 .data          0x00000000        0x0 ./utilities/fsl_assert.o
 .bss           0x00000000        0x0 ./utilities/fsl_assert.o
 .debug_macro   0x00000000      0xacc ./utilities/fsl_assert.o
 .debug_macro   0x00000000       0x10 ./utilities/fsl_assert.o
 .debug_macro   0x00000000       0x22 ./utilities/fsl_assert.o
 .debug_macro   0x00000000      0x12e ./utilities/fsl_assert.o
 .debug_macro   0x00000000      0x5b4 ./utilities/fsl_assert.o
 .debug_macro   0x00000000       0x22 ./utilities/fsl_assert.o
 .debug_macro   0x00000000       0x10 ./utilities/fsl_assert.o
 .debug_macro   0x00000000       0x4d ./utilities/fsl_assert.o
 .debug_macro   0x00000000       0x1c ./utilities/fsl_assert.o
 .debug_macro   0x00000000       0x22 ./utilities/fsl_assert.o
 .debug_macro   0x00000000       0xfb ./utilities/fsl_assert.o
 .debug_macro   0x00000000     0x1313 ./utilities/fsl_assert.o
 .debug_macro   0x00000000      0x11f ./utilities/fsl_assert.o
 .debug_macro   0x00000000       0x22 ./utilities/fsl_assert.o
 .debug_macro   0x00000000       0x22 ./utilities/fsl_assert.o
 .debug_macro   0x00000000    0x24b4f ./utilities/fsl_assert.o
 .debug_macro   0x00000000      0x86b ./utilities/fsl_assert.o
 .debug_macro   0x00000000       0x7a ./utilities/fsl_assert.o
 .debug_macro   0x00000000       0xaf ./utilities/fsl_assert.o
 .debug_macro   0x00000000      0x24e ./utilities/fsl_assert.o
 .group         0x00000000        0xc ./utilities/fsl_debug_console.o
 .group         0x00000000        0xc ./utilities/fsl_debug_console.o
 .group         0x00000000        0xc ./utilities/fsl_debug_console.o
 .group         0x00000000        0xc ./utilities/fsl_debug_console.o
 .group         0x00000000        0xc ./utilities/fsl_debug_console.o
 .group         0x00000000        0xc ./utilities/fsl_debug_console.o
 .group         0x00000000        0xc ./utilities/fsl_debug_console.o
 .group         0x00000000        0xc ./utilities/fsl_debug_console.o
 .group         0x00000000        0xc ./utilities/fsl_debug_console.o
 .group         0x00000000        0xc ./utilities/fsl_debug_console.o
 .group         0x00000000        0xc ./utilities/fsl_debug_console.o
 .group         0x00000000        0xc ./utilities/fsl_debug_console.o
 .group         0x00000000        0xc ./utilities/fsl_debug_console.o
 .group         0x00000000        0xc ./utilities/fsl_debug_console.o
 .group         0x00000000        0xc ./utilities/fsl_debug_console.o
 .group         0x00000000        0xc ./utilities/fsl_debug_console.o
 .group         0x00000000        0xc ./utilities/fsl_debug_console.o
 .group         0x00000000        0xc ./utilities/fsl_debug_console.o
 .group         0x00000000        0xc ./utilities/fsl_debug_console.o
 .group         0x00000000        0xc ./utilities/fsl_debug_console.o
 .group         0x00000000        0xc ./utilities/fsl_debug_console.o
 .group         0x00000000        0xc ./utilities/fsl_debug_console.o
 .group         0x00000000        0xc ./utilities/fsl_debug_console.o
 .group         0x00000000        0xc ./utilities/fsl_debug_console.o
 .group         0x00000000        0xc ./utilities/fsl_debug_console.o
 .group         0x00000000        0xc ./utilities/fsl_debug_console.o
 .group         0x00000000        0xc ./utilities/fsl_debug_console.o
 .text          0x00000000        0x0 ./utilities/fsl_debug_console.o
 .data          0x00000000        0x0 ./utilities/fsl_debug_console.o
 .bss           0x00000000        0x0 ./utilities/fsl_debug_console.o
 .text.DbgConsole_Deinit
                0x00000000       0x28 ./utilities/fsl_debug_console.o
 .text.DbgConsole_Scanf
                0x00000000       0xb0 ./utilities/fsl_debug_console.o
 .text.DbgConsole_Getchar
                0x00000000       0x3c ./utilities/fsl_debug_console.o
 .text.DbgConsole_ScanIgnoreWhiteSpace
                0x00000000       0x60 ./utilities/fsl_debug_console.o
 .text.DbgConsole_ScanfFormattedData
                0x00000000      0x624 ./utilities/fsl_debug_console.o
 .debug_macro   0x00000000      0xacc ./utilities/fsl_debug_console.o
 .debug_macro   0x00000000       0x10 ./utilities/fsl_debug_console.o
 .debug_macro   0x00000000      0x12e ./utilities/fsl_debug_console.o
 .debug_macro   0x00000000       0x16 ./utilities/fsl_debug_console.o
 .debug_macro   0x00000000       0x22 ./utilities/fsl_debug_console.o
 .debug_macro   0x00000000      0x5b4 ./utilities/fsl_debug_console.o
 .debug_macro   0x00000000       0x10 ./utilities/fsl_debug_console.o
 .debug_macro   0x00000000       0x4d ./utilities/fsl_debug_console.o
 .debug_macro   0x00000000       0x1c ./utilities/fsl_debug_console.o
 .debug_macro   0x00000000       0x22 ./utilities/fsl_debug_console.o
 .debug_macro   0x00000000       0xfb ./utilities/fsl_debug_console.o
 .debug_macro   0x00000000     0x1313 ./utilities/fsl_debug_console.o
 .debug_macro   0x00000000      0x11f ./utilities/fsl_debug_console.o
 .debug_macro   0x00000000       0x22 ./utilities/fsl_debug_console.o
 .debug_macro   0x00000000       0x22 ./utilities/fsl_debug_console.o
 .debug_macro   0x00000000    0x24b4f ./utilities/fsl_debug_console.o
 .debug_macro   0x00000000      0x86b ./utilities/fsl_debug_console.o
 .debug_macro   0x00000000       0x7a ./utilities/fsl_debug_console.o
 .debug_macro   0x00000000       0xaf ./utilities/fsl_debug_console.o
 .debug_macro   0x00000000      0x24e ./utilities/fsl_debug_console.o
 .debug_macro   0x00000000       0x34 ./utilities/fsl_debug_console.o
 .group         0x00000000        0xc ./startup/startup_mimxrt1052.o
 .text          0x00000000        0x0 ./startup/startup_mimxrt1052.o
 .data          0x00000000        0x0 ./startup/startup_mimxrt1052.o
 .bss           0x00000000        0x0 ./startup/startup_mimxrt1052.o
 .debug_macro   0x00000000      0xacc ./startup/startup_mimxrt1052.o
 .group         0x00000000        0xc ./source/flexspi_romapi.o
 .group         0x00000000        0xc ./source/flexspi_romapi.o
 .group         0x00000000        0xc ./source/flexspi_romapi.o
 .group         0x00000000        0xc ./source/flexspi_romapi.o
 .group         0x00000000        0xc ./source/flexspi_romapi.o
 .group         0x00000000        0xc ./source/flexspi_romapi.o
 .group         0x00000000        0xc ./source/flexspi_romapi.o
 .group         0x00000000        0xc ./source/flexspi_romapi.o
 .group         0x00000000        0xc ./source/flexspi_romapi.o
 .group         0x00000000        0xc ./source/flexspi_romapi.o
 .group         0x00000000        0xc ./source/flexspi_romapi.o
 .group         0x00000000        0xc ./source/flexspi_romapi.o
 .group         0x00000000        0xc ./source/flexspi_romapi.o
 .group         0x00000000        0xc ./source/flexspi_romapi.o
 .group         0x00000000        0xc ./source/flexspi_romapi.o
 .group         0x00000000        0xc ./source/flexspi_romapi.o
 .group         0x00000000        0xc ./source/flexspi_romapi.o
 .group         0x00000000        0xc ./source/flexspi_romapi.o
 .group         0x00000000        0xc ./source/flexspi_romapi.o
 .group         0x00000000        0xc ./source/flexspi_romapi.o
 .group         0x00000000        0xc ./source/flexspi_romapi.o
 .group         0x00000000        0xc ./source/flexspi_romapi.o
 .group         0x00000000        0xc ./source/flexspi_romapi.o
 .group         0x00000000        0xc ./source/flexspi_romapi.o
 .group         0x00000000        0xc ./source/flexspi_romapi.o
 .group         0x00000000        0xc ./source/flexspi_romapi.o
 .group         0x00000000        0xc ./source/flexspi_romapi.o
 .group         0x00000000        0xc ./source/flexspi_romapi.o
 .group         0x00000000        0xc ./source/flexspi_romapi.o
 .text          0x00000000        0x0 ./source/flexspi_romapi.o
 .data          0x00000000        0x0 ./source/flexspi_romapi.o
 .bss           0x00000000        0x0 ./source/flexspi_romapi.o
 .debug_macro   0x00000000      0xacc ./source/flexspi_romapi.o
 .debug_macro   0x00000000       0x10 ./source/flexspi_romapi.o
 .debug_macro   0x00000000       0x1c ./source/flexspi_romapi.o
 .debug_macro   0x00000000       0x22 ./source/flexspi_romapi.o
 .debug_macro   0x00000000      0x12e ./source/flexspi_romapi.o
 .debug_macro   0x00000000      0x5b4 ./source/flexspi_romapi.o
 .debug_macro   0x00000000       0x22 ./source/flexspi_romapi.o
 .debug_macro   0x00000000       0x10 ./source/flexspi_romapi.o
 .debug_macro   0x00000000       0x4d ./source/flexspi_romapi.o
 .debug_macro   0x00000000       0x1c ./source/flexspi_romapi.o
 .debug_macro   0x00000000       0x22 ./source/flexspi_romapi.o
 .debug_macro   0x00000000       0xfb ./source/flexspi_romapi.o
 .debug_macro   0x00000000     0x1313 ./source/flexspi_romapi.o
 .debug_macro   0x00000000      0x11f ./source/flexspi_romapi.o
 .debug_macro   0x00000000       0x22 ./source/flexspi_romapi.o
 .debug_macro   0x00000000       0x22 ./source/flexspi_romapi.o
 .debug_macro   0x00000000    0x24b4f ./source/flexspi_romapi.o
 .debug_macro   0x00000000      0x86b ./source/flexspi_romapi.o
 .debug_macro   0x00000000       0x7a ./source/flexspi_romapi.o
 .debug_macro   0x00000000       0xaf ./source/flexspi_romapi.o
 .debug_macro   0x00000000      0x24e ./source/flexspi_romapi.o
 .debug_macro   0x00000000       0x16 ./source/flexspi_romapi.o
 .debug_macro   0x00000000       0x1c ./source/flexspi_romapi.o
 .debug_macro   0x00000000       0x34 ./source/flexspi_romapi.o
 .debug_macro   0x00000000      0x130 ./source/flexspi_romapi.o
 .debug_macro   0x00000000       0x10 ./source/flexspi_romapi.o
 .debug_macro   0x00000000      0x16c ./source/flexspi_romapi.o
 .group         0x00000000        0xc ./source/flexspi_romapi_ops.o
 .group         0x00000000        0xc ./source/flexspi_romapi_ops.o
 .group         0x00000000        0xc ./source/flexspi_romapi_ops.o
 .group         0x00000000        0xc ./source/flexspi_romapi_ops.o
 .group         0x00000000        0xc ./source/flexspi_romapi_ops.o
 .group         0x00000000        0xc ./source/flexspi_romapi_ops.o
 .group         0x00000000        0xc ./source/flexspi_romapi_ops.o
 .group         0x00000000        0xc ./source/flexspi_romapi_ops.o
 .group         0x00000000        0xc ./source/flexspi_romapi_ops.o
 .group         0x00000000        0xc ./source/flexspi_romapi_ops.o
 .group         0x00000000        0xc ./source/flexspi_romapi_ops.o
 .group         0x00000000        0xc ./source/flexspi_romapi_ops.o
 .group         0x00000000        0xc ./source/flexspi_romapi_ops.o
 .group         0x00000000        0xc ./source/flexspi_romapi_ops.o
 .group         0x00000000        0xc ./source/flexspi_romapi_ops.o
 .group         0x00000000        0xc ./source/flexspi_romapi_ops.o
 .group         0x00000000        0xc ./source/flexspi_romapi_ops.o
 .group         0x00000000        0xc ./source/flexspi_romapi_ops.o
 .group         0x00000000        0xc ./source/flexspi_romapi_ops.o
 .group         0x00000000        0xc ./source/flexspi_romapi_ops.o
 .group         0x00000000        0xc ./source/flexspi_romapi_ops.o
 .group         0x00000000        0xc ./source/flexspi_romapi_ops.o
 .text          0x00000000        0x0 ./source/flexspi_romapi_ops.o
 .data          0x00000000        0x0 ./source/flexspi_romapi_ops.o
 .bss           0x00000000        0x0 ./source/flexspi_romapi_ops.o
 .debug_info    0x00000000       0x76 ./source/flexspi_romapi_ops.o
 .debug_abbrev  0x00000000       0x29 ./source/flexspi_romapi_ops.o
 .debug_aranges
                0x00000000       0x18 ./source/flexspi_romapi_ops.o
 .debug_macro   0x00000000      0x136 ./source/flexspi_romapi_ops.o
 .debug_macro   0x00000000      0xacc ./source/flexspi_romapi_ops.o
 .debug_macro   0x00000000       0x10 ./source/flexspi_romapi_ops.o
 .debug_macro   0x00000000       0x1c ./source/flexspi_romapi_ops.o
 .debug_macro   0x00000000       0x22 ./source/flexspi_romapi_ops.o
 .debug_macro   0x00000000      0x12e ./source/flexspi_romapi_ops.o
 .debug_macro   0x00000000      0x5b4 ./source/flexspi_romapi_ops.o
 .debug_macro   0x00000000       0x22 ./source/flexspi_romapi_ops.o
 .debug_macro   0x00000000       0x10 ./source/flexspi_romapi_ops.o
 .debug_macro   0x00000000       0x4d ./source/flexspi_romapi_ops.o
 .debug_macro   0x00000000       0x1c ./source/flexspi_romapi_ops.o
 .debug_macro   0x00000000       0x22 ./source/flexspi_romapi_ops.o
 .debug_macro   0x00000000       0xfb ./source/flexspi_romapi_ops.o
 .debug_macro   0x00000000     0x1313 ./source/flexspi_romapi_ops.o
 .debug_macro   0x00000000      0x11f ./source/flexspi_romapi_ops.o
 .debug_macro   0x00000000       0x22 ./source/flexspi_romapi_ops.o
 .debug_macro   0x00000000       0x22 ./source/flexspi_romapi_ops.o
 .debug_macro   0x00000000    0x24b4f ./source/flexspi_romapi_ops.o
 .debug_macro   0x00000000      0x86b ./source/flexspi_romapi_ops.o
 .debug_macro   0x00000000       0x7a ./source/flexspi_romapi_ops.o
 .debug_macro   0x00000000       0xaf ./source/flexspi_romapi_ops.o
 .debug_macro   0x00000000      0x24e ./source/flexspi_romapi_ops.o
 .debug_macro   0x00000000      0x1af ./source/flexspi_romapi_ops.o
 .debug_line    0x00000000      0x3c3 ./source/flexspi_romapi_ops.o
 .debug_str     0x00000000   0x140fab ./source/flexspi_romapi_ops.o
 .comment       0x00000000       0x4a ./source/flexspi_romapi_ops.o
 .ARM.attributes
                0x00000000       0x32 ./source/flexspi_romapi_ops.o
 .group         0x00000000        0xc ./source/semihost_hardfault.o
 .text          0x00000000        0x0 ./source/semihost_hardfault.o
 .data          0x00000000        0x0 ./source/semihost_hardfault.o
 .bss           0x00000000        0x0 ./source/semihost_hardfault.o
 .debug_macro   0x00000000      0xacc ./source/semihost_hardfault.o
 .group         0x00000000        0xc ./drivers/fsl_cache.o
 .group         0x00000000        0xc ./drivers/fsl_cache.o
 .group         0x00000000        0xc ./drivers/fsl_cache.o
 .group         0x00000000        0xc ./drivers/fsl_cache.o
 .group         0x00000000        0xc ./drivers/fsl_cache.o
 .group         0x00000000        0xc ./drivers/fsl_cache.o
 .group         0x00000000        0xc ./drivers/fsl_cache.o
 .group         0x00000000        0xc ./drivers/fsl_cache.o
 .group         0x00000000        0xc ./drivers/fsl_cache.o
 .group         0x00000000        0xc ./drivers/fsl_cache.o
 .group         0x00000000        0xc ./drivers/fsl_cache.o
 .group         0x00000000        0xc ./drivers/fsl_cache.o
 .group         0x00000000        0xc ./drivers/fsl_cache.o
 .group         0x00000000        0xc ./drivers/fsl_cache.o
 .group         0x00000000        0xc ./drivers/fsl_cache.o
 .group         0x00000000        0xc ./drivers/fsl_cache.o
 .group         0x00000000        0xc ./drivers/fsl_cache.o
 .group         0x00000000        0xc ./drivers/fsl_cache.o
 .group         0x00000000        0xc ./drivers/fsl_cache.o
 .group         0x00000000        0xc ./drivers/fsl_cache.o
 .group         0x00000000        0xc ./drivers/fsl_cache.o
 .text          0x00000000        0x0 ./drivers/fsl_cache.o
 .data          0x00000000        0x0 ./drivers/fsl_cache.o
 .bss           0x00000000        0x0 ./drivers/fsl_cache.o
 .text.L1CACHE_CleanDCacheByRange
                0x00000000       0x68 ./drivers/fsl_cache.o
 .text.L1CACHE_CleanInvalidateDCacheByRange
                0x00000000       0x68 ./drivers/fsl_cache.o
 .text.L1CACHE_InvalidateICacheByRange
                0x00000000       0x60 ./drivers/fsl_cache.o
 .text.ICACHE_InvalidateByRange
                0x00000000       0x1a ./drivers/fsl_cache.o
 .text.DCACHE_CleanByRange
                0x00000000       0x1a ./drivers/fsl_cache.o
 .text.DCACHE_CleanInvalidateByRange
                0x00000000       0x1a ./drivers/fsl_cache.o
 .debug_macro   0x00000000      0xacc ./drivers/fsl_cache.o
 .debug_macro   0x00000000       0x10 ./drivers/fsl_cache.o
 .debug_macro   0x00000000       0x1c ./drivers/fsl_cache.o
 .debug_macro   0x00000000       0x22 ./drivers/fsl_cache.o
 .debug_macro   0x00000000      0x12e ./drivers/fsl_cache.o
 .debug_macro   0x00000000      0x5b4 ./drivers/fsl_cache.o
 .debug_macro   0x00000000       0x22 ./drivers/fsl_cache.o
 .debug_macro   0x00000000       0x10 ./drivers/fsl_cache.o
 .debug_macro   0x00000000       0x4d ./drivers/fsl_cache.o
 .debug_macro   0x00000000       0x1c ./drivers/fsl_cache.o
 .debug_macro   0x00000000       0x22 ./drivers/fsl_cache.o
 .debug_macro   0x00000000       0xfb ./drivers/fsl_cache.o
 .debug_macro   0x00000000     0x1313 ./drivers/fsl_cache.o
 .debug_macro   0x00000000      0x11f ./drivers/fsl_cache.o
 .debug_macro   0x00000000       0x22 ./drivers/fsl_cache.o
 .debug_macro   0x00000000       0x22 ./drivers/fsl_cache.o
 .debug_macro   0x00000000    0x24b4f ./drivers/fsl_cache.o
 .debug_macro   0x00000000      0x86b ./drivers/fsl_cache.o
 .debug_macro   0x00000000       0x7a ./drivers/fsl_cache.o
 .debug_macro   0x00000000       0xaf ./drivers/fsl_cache.o
 .debug_macro   0x00000000      0x24e ./drivers/fsl_cache.o
 .group         0x00000000        0xc ./drivers/fsl_clock.o
 .group         0x00000000        0xc ./drivers/fsl_clock.o
 .group         0x00000000        0xc ./drivers/fsl_clock.o
 .group         0x00000000        0xc ./drivers/fsl_clock.o
 .group         0x00000000        0xc ./drivers/fsl_clock.o
 .group         0x00000000        0xc ./drivers/fsl_clock.o
 .group         0x00000000        0xc ./drivers/fsl_clock.o
 .group         0x00000000        0xc ./drivers/fsl_clock.o
 .group         0x00000000        0xc ./drivers/fsl_clock.o
 .group         0x00000000        0xc ./drivers/fsl_clock.o
 .group         0x00000000        0xc ./drivers/fsl_clock.o
 .group         0x00000000        0xc ./drivers/fsl_clock.o
 .group         0x00000000        0xc ./drivers/fsl_clock.o
 .group         0x00000000        0xc ./drivers/fsl_clock.o
 .group         0x00000000        0xc ./drivers/fsl_clock.o
 .group         0x00000000        0xc ./drivers/fsl_clock.o
 .group         0x00000000        0xc ./drivers/fsl_clock.o
 .group         0x00000000        0xc ./drivers/fsl_clock.o
 .group         0x00000000        0xc ./drivers/fsl_clock.o
 .group         0x00000000        0xc ./drivers/fsl_clock.o
 .group         0x00000000        0xc ./drivers/fsl_clock.o
 .text          0x00000000        0x0 ./drivers/fsl_clock.o
 .data          0x00000000        0x0 ./drivers/fsl_clock.o
 .bss           0x00000000        0x0 ./drivers/fsl_clock.o
 .text.CLOCK_GetRtcFreq
                0x00000000       0x12 ./drivers/fsl_clock.o
 .text.CLOCK_GetPeriphClkFreq
                0x00000000       0xec ./drivers/fsl_clock.o
 .text.CLOCK_GetPllUsb1SWFreq
                0x00000000       0x44 ./drivers/fsl_clock.o
 .text.CLOCK_DeinitExternalClk
                0x00000000       0x1c ./drivers/fsl_clock.o
 .text.CLOCK_DeinitRcOsc24M
                0x00000000       0x24 ./drivers/fsl_clock.o
 .text.CLOCK_GetAhbFreq
                0x00000000       0x24 ./drivers/fsl_clock.o
 .text.CLOCK_GetSemcFreq
                0x00000000       0x5c ./drivers/fsl_clock.o
 .text.CLOCK_GetIpgFreq
                0x00000000       0x24 ./drivers/fsl_clock.o
 .text.CLOCK_GetPerClkFreq
                0x00000000       0x40 ./drivers/fsl_clock.o
 .text.CLOCK_GetFreq
                0x00000000      0x1b8 ./drivers/fsl_clock.o
 .rodata.CLOCK_GetClockRootFreq.str1.4
                0x00000000       0x35 ./drivers/fsl_clock.o
 .text.CLOCK_GetClockRootFreq
                0x00000000      0x118 ./drivers/fsl_clock.o
 .text.CLOCK_EnableUsbhs0Clock
                0x00000000       0x7c ./drivers/fsl_clock.o
 .text.CLOCK_EnableUsbhs1Clock
                0x00000000       0x80 ./drivers/fsl_clock.o
 .text.CLOCK_EnableUsbhs0PhyPllClock
                0x00000000       0x6c ./drivers/fsl_clock.o
 .text.CLOCK_DisableUsbhs0PhyPllClock
                0x00000000       0x30 ./drivers/fsl_clock.o
 .text.CLOCK_DeinitArmPll
                0x00000000       0x1c ./drivers/fsl_clock.o
 .text.CLOCK_DeinitSysPll
                0x00000000       0x1c ./drivers/fsl_clock.o
 .text.CLOCK_InitUsb1Pll
                0x00000000       0x68 ./drivers/fsl_clock.o
 .text.CLOCK_DeinitUsb1Pll
                0x00000000       0x18 ./drivers/fsl_clock.o
 .text.CLOCK_InitUsb2Pll
                0x00000000       0x68 ./drivers/fsl_clock.o
 .text.CLOCK_InitAudioPll
                0x00000000      0x12c ./drivers/fsl_clock.o
 .text.CLOCK_InitVideoPll
                0x00000000      0x134 ./drivers/fsl_clock.o
 .text.CLOCK_DeinitVideoPll
                0x00000000       0x1c ./drivers/fsl_clock.o
 .text.CLOCK_InitEnetPll
                0x00000000       0x94 ./drivers/fsl_clock.o
 .text.CLOCK_DeinitSysPfd
                0x00000000       0x34 ./drivers/fsl_clock.o
 .text.CLOCK_IsSysPfdEnabled
                0x00000000       0x38 ./drivers/fsl_clock.o
 .text.CLOCK_InitUsb1Pfd
                0x00000000       0x64 ./drivers/fsl_clock.o
 .text.CLOCK_DeinitUsb1Pfd
                0x00000000       0x34 ./drivers/fsl_clock.o
 .text.CLOCK_IsUsb1PfdEnabled
                0x00000000       0x38 ./drivers/fsl_clock.o
 .text.CLOCK_GetSysPfdFreq
                0x00000000       0xac ./drivers/fsl_clock.o
 .text.CLOCK_GetUsb1PfdFreq
                0x00000000       0xac ./drivers/fsl_clock.o
 .text.CLOCK_EnableUsbhs1PhyPllClock
                0x00000000       0x50 ./drivers/fsl_clock.o
 .text.CLOCK_DisableUsbhs1PhyPllClock
                0x00000000       0x30 ./drivers/fsl_clock.o
 .text.CLOCK_SetClockOutput1
                0x00000000       0x64 ./drivers/fsl_clock.o
 .text.CLOCK_SetClockOutput2
                0x00000000       0x64 ./drivers/fsl_clock.o
 .text.CLOCK_GetClockOutCLKO1Freq
                0x00000000      0x10c ./drivers/fsl_clock.o
 .text.CLOCK_GetClockOutClkO2Freq
                0x00000000      0x13c ./drivers/fsl_clock.o
 .rodata.clockRootMuxTupleArray.5
                0x00000000       0x40 ./drivers/fsl_clock.o
 .rodata.clockRootDivTupleArray.4
                0x00000000       0x80 ./drivers/fsl_clock.o
 .rodata.clockRootSourceArray.3
                0x00000000       0x60 ./drivers/fsl_clock.o
 .rodata.g_ccmConfigUsbPll.2
                0x00000000        0x2 ./drivers/fsl_clock.o
 .rodata.g_ccmConfigUsbPll.0
                0x00000000        0x2 ./drivers/fsl_clock.o
 .debug_macro   0x00000000      0xacc ./drivers/fsl_clock.o
 .debug_macro   0x00000000       0x10 ./drivers/fsl_clock.o
 .debug_macro   0x00000000       0x1c ./drivers/fsl_clock.o
 .debug_macro   0x00000000       0x22 ./drivers/fsl_clock.o
 .debug_macro   0x00000000      0x12e ./drivers/fsl_clock.o
 .debug_macro   0x00000000      0x5b4 ./drivers/fsl_clock.o
 .debug_macro   0x00000000       0x22 ./drivers/fsl_clock.o
 .debug_macro   0x00000000       0x10 ./drivers/fsl_clock.o
 .debug_macro   0x00000000       0x4d ./drivers/fsl_clock.o
 .debug_macro   0x00000000       0x1c ./drivers/fsl_clock.o
 .debug_macro   0x00000000       0x22 ./drivers/fsl_clock.o
 .debug_macro   0x00000000       0xfb ./drivers/fsl_clock.o
 .debug_macro   0x00000000     0x1313 ./drivers/fsl_clock.o
 .debug_macro   0x00000000      0x11f ./drivers/fsl_clock.o
 .debug_macro   0x00000000       0x22 ./drivers/fsl_clock.o
 .debug_macro   0x00000000       0x22 ./drivers/fsl_clock.o
 .debug_macro   0x00000000    0x24b4f ./drivers/fsl_clock.o
 .debug_macro   0x00000000      0x86b ./drivers/fsl_clock.o
 .debug_macro   0x00000000       0x7a ./drivers/fsl_clock.o
 .debug_macro   0x00000000       0xaf ./drivers/fsl_clock.o
 .debug_macro   0x00000000      0x24e ./drivers/fsl_clock.o
 .group         0x00000000        0xc ./drivers/fsl_common.o
 .group         0x00000000        0xc ./drivers/fsl_common.o
 .group         0x00000000        0xc ./drivers/fsl_common.o
 .group         0x00000000        0xc ./drivers/fsl_common.o
 .group         0x00000000        0xc ./drivers/fsl_common.o
 .group         0x00000000        0xc ./drivers/fsl_common.o
 .group         0x00000000        0xc ./drivers/fsl_common.o
 .group         0x00000000        0xc ./drivers/fsl_common.o
 .group         0x00000000        0xc ./drivers/fsl_common.o
 .group         0x00000000        0xc ./drivers/fsl_common.o
 .group         0x00000000        0xc ./drivers/fsl_common.o
 .group         0x00000000        0xc ./drivers/fsl_common.o
 .group         0x00000000        0xc ./drivers/fsl_common.o
 .group         0x00000000        0xc ./drivers/fsl_common.o
 .group         0x00000000        0xc ./drivers/fsl_common.o
 .group         0x00000000        0xc ./drivers/fsl_common.o
 .group         0x00000000        0xc ./drivers/fsl_common.o
 .group         0x00000000        0xc ./drivers/fsl_common.o
 .group         0x00000000        0xc ./drivers/fsl_common.o
 .group         0x00000000        0xc ./drivers/fsl_common.o
 .group         0x00000000        0xc ./drivers/fsl_common.o
 .text          0x00000000        0x0 ./drivers/fsl_common.o
 .data          0x00000000        0x0 ./drivers/fsl_common.o
 .bss           0x00000000        0x0 ./drivers/fsl_common.o
 .text.SDK_Malloc
                0x00000000       0x92 ./drivers/fsl_common.o
 .text.SDK_Free
                0x00000000       0x3a ./drivers/fsl_common.o
 .debug_info    0x00000000      0x1e4 ./drivers/fsl_common.o
 .debug_abbrev  0x00000000      0x106 ./drivers/fsl_common.o
 .debug_aranges
                0x00000000       0x28 ./drivers/fsl_common.o
 .debug_ranges  0x00000000       0x18 ./drivers/fsl_common.o
 .debug_macro   0x00000000      0x133 ./drivers/fsl_common.o
 .debug_macro   0x00000000      0xacc ./drivers/fsl_common.o
 .debug_macro   0x00000000       0x10 ./drivers/fsl_common.o
 .debug_macro   0x00000000       0x1c ./drivers/fsl_common.o
 .debug_macro   0x00000000       0x22 ./drivers/fsl_common.o
 .debug_macro   0x00000000      0x12e ./drivers/fsl_common.o
 .debug_macro   0x00000000      0x5b4 ./drivers/fsl_common.o
 .debug_macro   0x00000000       0x22 ./drivers/fsl_common.o
 .debug_macro   0x00000000       0x10 ./drivers/fsl_common.o
 .debug_macro   0x00000000       0x4d ./drivers/fsl_common.o
 .debug_macro   0x00000000       0x1c ./drivers/fsl_common.o
 .debug_macro   0x00000000       0x22 ./drivers/fsl_common.o
 .debug_macro   0x00000000       0xfb ./drivers/fsl_common.o
 .debug_macro   0x00000000     0x1313 ./drivers/fsl_common.o
 .debug_macro   0x00000000      0x11f ./drivers/fsl_common.o
 .debug_macro   0x00000000       0x22 ./drivers/fsl_common.o
 .debug_macro   0x00000000       0x22 ./drivers/fsl_common.o
 .debug_macro   0x00000000    0x24b4f ./drivers/fsl_common.o
 .debug_macro   0x00000000      0x86b ./drivers/fsl_common.o
 .debug_macro   0x00000000       0x7a ./drivers/fsl_common.o
 .debug_macro   0x00000000       0xaf ./drivers/fsl_common.o
 .debug_macro   0x00000000      0x24e ./drivers/fsl_common.o
 .debug_line    0x00000000      0x3ec ./drivers/fsl_common.o
 .debug_str     0x00000000   0x14081e ./drivers/fsl_common.o
 .comment       0x00000000       0x4a ./drivers/fsl_common.o
 .debug_frame   0x00000000       0x58 ./drivers/fsl_common.o
 .ARM.attributes
                0x00000000       0x32 ./drivers/fsl_common.o
 .group         0x00000000        0xc ./drivers/fsl_common_arm.o
 .group         0x00000000        0xc ./drivers/fsl_common_arm.o
 .group         0x00000000        0xc ./drivers/fsl_common_arm.o
 .group         0x00000000        0xc ./drivers/fsl_common_arm.o
 .group         0x00000000        0xc ./drivers/fsl_common_arm.o
 .group         0x00000000        0xc ./drivers/fsl_common_arm.o
 .group         0x00000000        0xc ./drivers/fsl_common_arm.o
 .group         0x00000000        0xc ./drivers/fsl_common_arm.o
 .group         0x00000000        0xc ./drivers/fsl_common_arm.o
 .group         0x00000000        0xc ./drivers/fsl_common_arm.o
 .group         0x00000000        0xc ./drivers/fsl_common_arm.o
 .group         0x00000000        0xc ./drivers/fsl_common_arm.o
 .group         0x00000000        0xc ./drivers/fsl_common_arm.o
 .group         0x00000000        0xc ./drivers/fsl_common_arm.o
 .group         0x00000000        0xc ./drivers/fsl_common_arm.o
 .group         0x00000000        0xc ./drivers/fsl_common_arm.o
 .group         0x00000000        0xc ./drivers/fsl_common_arm.o
 .group         0x00000000        0xc ./drivers/fsl_common_arm.o
 .group         0x00000000        0xc ./drivers/fsl_common_arm.o
 .group         0x00000000        0xc ./drivers/fsl_common_arm.o
 .group         0x00000000        0xc ./drivers/fsl_common_arm.o
 .text          0x00000000        0x0 ./drivers/fsl_common_arm.o
 .data          0x00000000        0x0 ./drivers/fsl_common_arm.o
 .bss           0x00000000        0x0 ./drivers/fsl_common_arm.o
 .text.DelayLoop
                0x00000000       0x20 ./drivers/fsl_common_arm.o
 .rodata.SDK_DelayAtLeastUs.str1.4
                0x00000000       0x2b ./drivers/fsl_common_arm.o
 .text.SDK_DelayAtLeastUs
                0x00000000       0x94 ./drivers/fsl_common_arm.o
 .debug_info    0x00000000       0xfc ./drivers/fsl_common_arm.o
 .debug_abbrev  0x00000000       0x92 ./drivers/fsl_common_arm.o
 .debug_aranges
                0x00000000       0x28 ./drivers/fsl_common_arm.o
 .debug_ranges  0x00000000       0x18 ./drivers/fsl_common_arm.o
 .debug_macro   0x00000000      0x12d ./drivers/fsl_common_arm.o
 .debug_macro   0x00000000      0xacc ./drivers/fsl_common_arm.o
 .debug_macro   0x00000000       0x10 ./drivers/fsl_common_arm.o
 .debug_macro   0x00000000       0x1c ./drivers/fsl_common_arm.o
 .debug_macro   0x00000000       0x22 ./drivers/fsl_common_arm.o
 .debug_macro   0x00000000      0x12e ./drivers/fsl_common_arm.o
 .debug_macro   0x00000000      0x5b4 ./drivers/fsl_common_arm.o
 .debug_macro   0x00000000       0x22 ./drivers/fsl_common_arm.o
 .debug_macro   0x00000000       0x10 ./drivers/fsl_common_arm.o
 .debug_macro   0x00000000       0x4d ./drivers/fsl_common_arm.o
 .debug_macro   0x00000000       0x1c ./drivers/fsl_common_arm.o
 .debug_macro   0x00000000       0x22 ./drivers/fsl_common_arm.o
 .debug_macro   0x00000000       0xfb ./drivers/fsl_common_arm.o
 .debug_macro   0x00000000     0x1313 ./drivers/fsl_common_arm.o
 .debug_macro   0x00000000      0x11f ./drivers/fsl_common_arm.o
 .debug_macro   0x00000000       0x22 ./drivers/fsl_common_arm.o
 .debug_macro   0x00000000       0x22 ./drivers/fsl_common_arm.o
 .debug_macro   0x00000000    0x24b4f ./drivers/fsl_common_arm.o
 .debug_macro   0x00000000      0x86b ./drivers/fsl_common_arm.o
 .debug_macro   0x00000000       0x7a ./drivers/fsl_common_arm.o
 .debug_macro   0x00000000       0xaf ./drivers/fsl_common_arm.o
 .debug_macro   0x00000000      0x24e ./drivers/fsl_common_arm.o
 .debug_line    0x00000000      0x3a2 ./drivers/fsl_common_arm.o
 .debug_str     0x00000000   0x14078f ./drivers/fsl_common_arm.o
 .comment       0x00000000       0x4a ./drivers/fsl_common_arm.o
 .debug_frame   0x00000000       0x68 ./drivers/fsl_common_arm.o
 .ARM.attributes
                0x00000000       0x32 ./drivers/fsl_common_arm.o
 .group         0x00000000        0xc ./drivers/fsl_gpio.o
 .group         0x00000000        0xc ./drivers/fsl_gpio.o
 .group         0x00000000        0xc ./drivers/fsl_gpio.o
 .group         0x00000000        0xc ./drivers/fsl_gpio.o
 .group         0x00000000        0xc ./drivers/fsl_gpio.o
 .group         0x00000000        0xc ./drivers/fsl_gpio.o
 .group         0x00000000        0xc ./drivers/fsl_gpio.o
 .group         0x00000000        0xc ./drivers/fsl_gpio.o
 .group         0x00000000        0xc ./drivers/fsl_gpio.o
 .group         0x00000000        0xc ./drivers/fsl_gpio.o
 .group         0x00000000        0xc ./drivers/fsl_gpio.o
 .group         0x00000000        0xc ./drivers/fsl_gpio.o
 .group         0x00000000        0xc ./drivers/fsl_gpio.o
 .group         0x00000000        0xc ./drivers/fsl_gpio.o
 .group         0x00000000        0xc ./drivers/fsl_gpio.o
 .group         0x00000000        0xc ./drivers/fsl_gpio.o
 .group         0x00000000        0xc ./drivers/fsl_gpio.o
 .group         0x00000000        0xc ./drivers/fsl_gpio.o
 .group         0x00000000        0xc ./drivers/fsl_gpio.o
 .group         0x00000000        0xc ./drivers/fsl_gpio.o
 .group         0x00000000        0xc ./drivers/fsl_gpio.o
 .text          0x00000000        0x0 ./drivers/fsl_gpio.o
 .data          0x00000000        0x0 ./drivers/fsl_gpio.o
 .bss           0x00000000        0x0 ./drivers/fsl_gpio.o
 .text._SDK_AtomicLocalClearAndSet4Byte
                0x00000000       0x50 ./drivers/fsl_gpio.o
 .rodata.CLOCK_ControlGate.str1.4
                0x00000000       0x20 ./drivers/fsl_gpio.o
 .text.CLOCK_ControlGate
                0x00000000       0x60 ./drivers/fsl_gpio.o
 .text.CLOCK_EnableClock
                0x00000000       0x1e ./drivers/fsl_gpio.o
 .text.GPIO_SetPinInterruptConfig
                0x00000000       0x22 ./drivers/fsl_gpio.o
 .rodata.s_gpioBases
                0x00000000       0x18 ./drivers/fsl_gpio.o
 .rodata.s_gpioClock
                0x00000000        0xc ./drivers/fsl_gpio.o
 .rodata.GPIO_GetInstance.str1.4
                0x00000000       0x33 ./drivers/fsl_gpio.o
 .text.GPIO_GetInstance
                0x00000000       0x4c ./drivers/fsl_gpio.o
 .text.GPIO_PinInit
                0x00000000       0xa4 ./drivers/fsl_gpio.o
 .rodata.GPIO_PinWrite.str1.4
                0x00000000       0x1b ./drivers/fsl_gpio.o
 .text.GPIO_PinWrite
                0x00000000       0x48 ./drivers/fsl_gpio.o
 .text.GPIO_PinSetInterruptConfig
                0x00000000       0xfc ./drivers/fsl_gpio.o
 .debug_info    0x00000000      0xdce ./drivers/fsl_gpio.o
 .debug_abbrev  0x00000000      0x2a1 ./drivers/fsl_gpio.o
 .debug_aranges
                0x00000000       0x58 ./drivers/fsl_gpio.o
 .debug_ranges  0x00000000       0x48 ./drivers/fsl_gpio.o
 .debug_macro   0x00000000      0x13d ./drivers/fsl_gpio.o
 .debug_macro   0x00000000      0xacc ./drivers/fsl_gpio.o
 .debug_macro   0x00000000       0x10 ./drivers/fsl_gpio.o
 .debug_macro   0x00000000       0x1c ./drivers/fsl_gpio.o
 .debug_macro   0x00000000       0x22 ./drivers/fsl_gpio.o
 .debug_macro   0x00000000      0x12e ./drivers/fsl_gpio.o
 .debug_macro   0x00000000      0x5b4 ./drivers/fsl_gpio.o
 .debug_macro   0x00000000       0x22 ./drivers/fsl_gpio.o
 .debug_macro   0x00000000       0x10 ./drivers/fsl_gpio.o
 .debug_macro   0x00000000       0x4d ./drivers/fsl_gpio.o
 .debug_macro   0x00000000       0x1c ./drivers/fsl_gpio.o
 .debug_macro   0x00000000       0x22 ./drivers/fsl_gpio.o
 .debug_macro   0x00000000       0xfb ./drivers/fsl_gpio.o
 .debug_macro   0x00000000     0x1313 ./drivers/fsl_gpio.o
 .debug_macro   0x00000000      0x11f ./drivers/fsl_gpio.o
 .debug_macro   0x00000000       0x22 ./drivers/fsl_gpio.o
 .debug_macro   0x00000000       0x22 ./drivers/fsl_gpio.o
 .debug_macro   0x00000000    0x24b4f ./drivers/fsl_gpio.o
 .debug_macro   0x00000000      0x86b ./drivers/fsl_gpio.o
 .debug_macro   0x00000000       0x7a ./drivers/fsl_gpio.o
 .debug_macro   0x00000000       0xaf ./drivers/fsl_gpio.o
 .debug_macro   0x00000000      0x24e ./drivers/fsl_gpio.o
 .debug_line    0x00000000      0x584 ./drivers/fsl_gpio.o
 .debug_str     0x00000000   0x141aec ./drivers/fsl_gpio.o
 .comment       0x00000000       0x4a ./drivers/fsl_gpio.o
 .debug_frame   0x00000000      0x138 ./drivers/fsl_gpio.o
 .ARM.attributes
                0x00000000       0x32 ./drivers/fsl_gpio.o
 .group         0x00000000        0xc ./drivers/fsl_lpuart.o
 .group         0x00000000        0xc ./drivers/fsl_lpuart.o
 .group         0x00000000        0xc ./drivers/fsl_lpuart.o
 .group         0x00000000        0xc ./drivers/fsl_lpuart.o
 .group         0x00000000        0xc ./drivers/fsl_lpuart.o
 .group         0x00000000        0xc ./drivers/fsl_lpuart.o
 .group         0x00000000        0xc ./drivers/fsl_lpuart.o
 .group         0x00000000        0xc ./drivers/fsl_lpuart.o
 .group         0x00000000        0xc ./drivers/fsl_lpuart.o
 .group         0x00000000        0xc ./drivers/fsl_lpuart.o
 .group         0x00000000        0xc ./drivers/fsl_lpuart.o
 .group         0x00000000        0xc ./drivers/fsl_lpuart.o
 .group         0x00000000        0xc ./drivers/fsl_lpuart.o
 .group         0x00000000        0xc ./drivers/fsl_lpuart.o
 .group         0x00000000        0xc ./drivers/fsl_lpuart.o
 .group         0x00000000        0xc ./drivers/fsl_lpuart.o
 .group         0x00000000        0xc ./drivers/fsl_lpuart.o
 .group         0x00000000        0xc ./drivers/fsl_lpuart.o
 .group         0x00000000        0xc ./drivers/fsl_lpuart.o
 .group         0x00000000        0xc ./drivers/fsl_lpuart.o
 .group         0x00000000        0xc ./drivers/fsl_lpuart.o
 .group         0x00000000        0xc ./drivers/fsl_lpuart.o
 .text          0x00000000        0x0 ./drivers/fsl_lpuart.o
 .data          0x00000000        0x0 ./drivers/fsl_lpuart.o
 .bss           0x00000000        0x0 ./drivers/fsl_lpuart.o
 .text.__NVIC_EnableIRQ
                0x00000000       0x3c ./drivers/fsl_lpuart.o
 .text.CLOCK_DisableClock
                0x00000000       0x1e ./drivers/fsl_lpuart.o
 .text.EnableIRQ
                0x00000000       0x32 ./drivers/fsl_lpuart.o
 .text.DisableGlobalIRQ
                0x00000000       0x22 ./drivers/fsl_lpuart.o
 .text.EnableGlobalIRQ
                0x00000000       0x20 ./drivers/fsl_lpuart.o
 .rodata.s_lpuartIRQ
                0x00000000       0x12 ./drivers/fsl_lpuart.o
 .rodata.LPUART_TransferGetRxRingBufferLength.str1.4
                0x00000000       0x22 ./drivers/fsl_lpuart.o
 .text.LPUART_TransferGetRxRingBufferLength
                0x00000000       0x54 ./drivers/fsl_lpuart.o
 .rodata.LPUART_TransferIsRxRingBufferFull.str1.4
                0x00000000       0x22 ./drivers/fsl_lpuart.o
 .text.LPUART_TransferIsRxRingBufferFull
                0x00000000       0x44 ./drivers/fsl_lpuart.o
 .rodata.LPUART_WriteNonBlocking.str1.4
                0x00000000       0x20 ./drivers/fsl_lpuart.o
 .text.LPUART_WriteNonBlocking
                0x00000000       0x48 ./drivers/fsl_lpuart.o
 .rodata.LPUART_ReadNonBlocking.str1.4
                0x00000000       0x20 ./drivers/fsl_lpuart.o
 .text.LPUART_ReadNonBlocking
                0x00000000       0x98 ./drivers/fsl_lpuart.o
 .text.LPUART_Deinit
                0x00000000       0x70 ./drivers/fsl_lpuart.o
 .rodata.LPUART_SetBaudRate.str1.4
                0x00000000       0x25 ./drivers/fsl_lpuart.o
 .text.LPUART_SetBaudRate
                0x00000000      0x154 ./drivers/fsl_lpuart.o
 .rodata.LPUART_Enable9bitMode.str1.4
                0x00000000       0x20 ./drivers/fsl_lpuart.o
 .text.LPUART_Enable9bitMode
                0x00000000       0x6c ./drivers/fsl_lpuart.o
 .rodata.LPUART_SendAddress.str1.4
                0x00000000       0x20 ./drivers/fsl_lpuart.o
 .text.LPUART_SendAddress
                0x00000000       0x44 ./drivers/fsl_lpuart.o
 .text.LPUART_EnableInterrupts
                0x00000000       0x84 ./drivers/fsl_lpuart.o
 .text.LPUART_DisableInterrupts
                0x00000000       0x8c ./drivers/fsl_lpuart.o
 .text.LPUART_GetEnabledInterrupts
                0x00000000       0x60 ./drivers/fsl_lpuart.o
 .rodata.LPUART_TransferCreateHandle.str1.4
                0x00000000       0x23 ./drivers/fsl_lpuart.o
 .text.LPUART_TransferCreateHandle
                0x00000000       0xc0 ./drivers/fsl_lpuart.o
 .rodata.LPUART_TransferStartRingBuffer.str1.4
                0x00000000       0x4b ./drivers/fsl_lpuart.o
 .text.LPUART_TransferStartRingBuffer
                0x00000000       0x68 ./drivers/fsl_lpuart.o
 .rodata.LPUART_TransferStopRingBuffer.str1.4
                0x00000000       0x23 ./drivers/fsl_lpuart.o
 .text.LPUART_TransferStopRingBuffer
                0x00000000       0x60 ./drivers/fsl_lpuart.o
 .rodata.LPUART_TransferSendNonBlocking.str1.4
                0x00000000       0x9d ./drivers/fsl_lpuart.o
 .text.LPUART_TransferSendNonBlocking
                0x00000000       0xac ./drivers/fsl_lpuart.o
 .rodata.LPUART_TransferAbortSend.str1.4
                0x00000000       0x23 ./drivers/fsl_lpuart.o
 .text.LPUART_TransferAbortSend
                0x00000000       0x48 ./drivers/fsl_lpuart.o
 .rodata.LPUART_TransferGetSendCount.str1.4
                0x00000000       0x46 ./drivers/fsl_lpuart.o
 .text.LPUART_TransferGetSendCount
                0x00000000       0x6c ./drivers/fsl_lpuart.o
 .rodata.LPUART_TransferReceiveNonBlocking.str1.4
                0x00000000       0x9d ./drivers/fsl_lpuart.o
 .text.LPUART_TransferReceiveNonBlocking
                0x00000000      0x1c4 ./drivers/fsl_lpuart.o
 .rodata.LPUART_TransferAbortReceive.str1.4
                0x00000000       0x23 ./drivers/fsl_lpuart.o
 .text.LPUART_TransferAbortReceive
                0x00000000       0x50 ./drivers/fsl_lpuart.o
 .rodata.LPUART_TransferGetReceiveCount.str1.4
                0x00000000       0x46 ./drivers/fsl_lpuart.o
 .text.LPUART_TransferGetReceiveCount
                0x00000000       0x60 ./drivers/fsl_lpuart.o
 .rodata.LPUART_TransferHandleIRQ.str1.4
                0x00000000       0x26 ./drivers/fsl_lpuart.o
 .text.LPUART_TransferHandleIRQ
                0x00000000      0x408 ./drivers/fsl_lpuart.o
 .text.LPUART_TransferHandleErrorIRQ
                0x00000000       0x16 ./drivers/fsl_lpuart.o
 .debug_macro   0x00000000      0xacc ./drivers/fsl_lpuart.o
 .debug_macro   0x00000000       0x10 ./drivers/fsl_lpuart.o
 .debug_macro   0x00000000       0x1c ./drivers/fsl_lpuart.o
 .debug_macro   0x00000000       0x22 ./drivers/fsl_lpuart.o
 .debug_macro   0x00000000      0x12e ./drivers/fsl_lpuart.o
 .debug_macro   0x00000000      0x5b4 ./drivers/fsl_lpuart.o
 .debug_macro   0x00000000       0x22 ./drivers/fsl_lpuart.o
 .debug_macro   0x00000000       0x10 ./drivers/fsl_lpuart.o
 .debug_macro   0x00000000       0x4d ./drivers/fsl_lpuart.o
 .debug_macro   0x00000000       0x1c ./drivers/fsl_lpuart.o
 .debug_macro   0x00000000       0x22 ./drivers/fsl_lpuart.o
 .debug_macro   0x00000000       0xfb ./drivers/fsl_lpuart.o
 .debug_macro   0x00000000     0x1313 ./drivers/fsl_lpuart.o
 .debug_macro   0x00000000      0x11f ./drivers/fsl_lpuart.o
 .debug_macro   0x00000000       0x22 ./drivers/fsl_lpuart.o
 .debug_macro   0x00000000       0x22 ./drivers/fsl_lpuart.o
 .debug_macro   0x00000000    0x24b4f ./drivers/fsl_lpuart.o
 .debug_macro   0x00000000      0x86b ./drivers/fsl_lpuart.o
 .debug_macro   0x00000000       0x7a ./drivers/fsl_lpuart.o
 .debug_macro   0x00000000       0xaf ./drivers/fsl_lpuart.o
 .debug_macro   0x00000000      0x24e ./drivers/fsl_lpuart.o
 .group         0x00000000        0xc ./drivers/fsl_romapi.o
 .group         0x00000000        0xc ./drivers/fsl_romapi.o
 .group         0x00000000        0xc ./drivers/fsl_romapi.o
 .group         0x00000000        0xc ./drivers/fsl_romapi.o
 .group         0x00000000        0xc ./drivers/fsl_romapi.o
 .group         0x00000000        0xc ./drivers/fsl_romapi.o
 .group         0x00000000        0xc ./drivers/fsl_romapi.o
 .group         0x00000000        0xc ./drivers/fsl_romapi.o
 .group         0x00000000        0xc ./drivers/fsl_romapi.o
 .group         0x00000000        0xc ./drivers/fsl_romapi.o
 .group         0x00000000        0xc ./drivers/fsl_romapi.o
 .group         0x00000000        0xc ./drivers/fsl_romapi.o
 .group         0x00000000        0xc ./drivers/fsl_romapi.o
 .group         0x00000000        0xc ./drivers/fsl_romapi.o
 .group         0x00000000        0xc ./drivers/fsl_romapi.o
 .group         0x00000000        0xc ./drivers/fsl_romapi.o
 .group         0x00000000        0xc ./drivers/fsl_romapi.o
 .group         0x00000000        0xc ./drivers/fsl_romapi.o
 .group         0x00000000        0xc ./drivers/fsl_romapi.o
 .group         0x00000000        0xc ./drivers/fsl_romapi.o
 .group         0x00000000        0xc ./drivers/fsl_romapi.o
 .group         0x00000000        0xc ./drivers/fsl_romapi.o
 .text          0x00000000        0x0 ./drivers/fsl_romapi.o
 .data          0x00000000        0x0 ./drivers/fsl_romapi.o
 .bss           0x00000000        0x0 ./drivers/fsl_romapi.o
 .text.ROM_FLEXSPI_NorFlash_EraseSector
                0x00000000       0x24 ./drivers/fsl_romapi.o
 .text.ROM_FLEXSPI_NorFlash_EraseAll
                0x00000000       0x28 ./drivers/fsl_romapi.o
 .text.ROM_FLEXSPI_NorFlash_CommandXfer
                0x00000000       0x28 ./drivers/fsl_romapi.o
 .text.ROM_FLEXSPI_NorFlash_UpdateLut
                0x00000000       0x30 ./drivers/fsl_romapi.o
 .debug_macro   0x00000000      0xacc ./drivers/fsl_romapi.o
 .debug_macro   0x00000000       0x10 ./drivers/fsl_romapi.o
 .debug_macro   0x00000000       0x1c ./drivers/fsl_romapi.o
 .debug_macro   0x00000000       0x22 ./drivers/fsl_romapi.o
 .debug_macro   0x00000000      0x12e ./drivers/fsl_romapi.o
 .debug_macro   0x00000000      0x5b4 ./drivers/fsl_romapi.o
 .debug_macro   0x00000000       0x22 ./drivers/fsl_romapi.o
 .debug_macro   0x00000000       0x10 ./drivers/fsl_romapi.o
 .debug_macro   0x00000000       0x4d ./drivers/fsl_romapi.o
 .debug_macro   0x00000000       0x1c ./drivers/fsl_romapi.o
 .debug_macro   0x00000000       0x22 ./drivers/fsl_romapi.o
 .debug_macro   0x00000000       0xfb ./drivers/fsl_romapi.o
 .debug_macro   0x00000000     0x1313 ./drivers/fsl_romapi.o
 .debug_macro   0x00000000      0x11f ./drivers/fsl_romapi.o
 .debug_macro   0x00000000       0x22 ./drivers/fsl_romapi.o
 .debug_macro   0x00000000       0x22 ./drivers/fsl_romapi.o
 .debug_macro   0x00000000    0x24b4f ./drivers/fsl_romapi.o
 .debug_macro   0x00000000      0x86b ./drivers/fsl_romapi.o
 .debug_macro   0x00000000       0x7a ./drivers/fsl_romapi.o
 .debug_macro   0x00000000       0xaf ./drivers/fsl_romapi.o
 .debug_macro   0x00000000      0x24e ./drivers/fsl_romapi.o
 .debug_macro   0x00000000      0x1af ./drivers/fsl_romapi.o
 .group         0x00000000        0xc ./device/system_MIMXRT1052.o
 .group         0x00000000        0xc ./device/system_MIMXRT1052.o
 .group         0x00000000        0xc ./device/system_MIMXRT1052.o
 .group         0x00000000        0xc ./device/system_MIMXRT1052.o
 .group         0x00000000        0xc ./device/system_MIMXRT1052.o
 .group         0x00000000        0xc ./device/system_MIMXRT1052.o
 .group         0x00000000        0xc ./device/system_MIMXRT1052.o
 .group         0x00000000        0xc ./device/system_MIMXRT1052.o
 .group         0x00000000        0xc ./device/system_MIMXRT1052.o
 .group         0x00000000        0xc ./device/system_MIMXRT1052.o
 .group         0x00000000        0xc ./device/system_MIMXRT1052.o
 .group         0x00000000        0xc ./device/system_MIMXRT1052.o
 .group         0x00000000        0xc ./device/system_MIMXRT1052.o
 .group         0x00000000        0xc ./device/system_MIMXRT1052.o
 .group         0x00000000        0xc ./device/system_MIMXRT1052.o
 .text          0x00000000        0x0 ./device/system_MIMXRT1052.o
 .data          0x00000000        0x0 ./device/system_MIMXRT1052.o
 .bss           0x00000000        0x0 ./device/system_MIMXRT1052.o
 .text.SystemCoreClockUpdate
                0x00000000      0x214 ./device/system_MIMXRT1052.o
 .debug_macro   0x00000000      0xacc ./device/system_MIMXRT1052.o
 .debug_macro   0x00000000       0x10 ./device/system_MIMXRT1052.o
 .debug_macro   0x00000000      0x12e ./device/system_MIMXRT1052.o
 .debug_macro   0x00000000      0x5b4 ./device/system_MIMXRT1052.o
 .debug_macro   0x00000000       0x10 ./device/system_MIMXRT1052.o
 .debug_macro   0x00000000       0x4d ./device/system_MIMXRT1052.o
 .debug_macro   0x00000000       0x1c ./device/system_MIMXRT1052.o
 .debug_macro   0x00000000       0x22 ./device/system_MIMXRT1052.o
 .debug_macro   0x00000000       0xfb ./device/system_MIMXRT1052.o
 .debug_macro   0x00000000     0x1313 ./device/system_MIMXRT1052.o
 .debug_macro   0x00000000      0x11f ./device/system_MIMXRT1052.o
 .debug_macro   0x00000000       0x22 ./device/system_MIMXRT1052.o
 .debug_macro   0x00000000       0x22 ./device/system_MIMXRT1052.o
 .debug_macro   0x00000000    0x24b4f ./device/system_MIMXRT1052.o
 .debug_macro   0x00000000      0x86b ./device/system_MIMXRT1052.o
 .group         0x00000000        0xc ./component/uart/fsl_adapter_lpuart.o
 .group         0x00000000        0xc ./component/uart/fsl_adapter_lpuart.o
 .group         0x00000000        0xc ./component/uart/fsl_adapter_lpuart.o
 .group         0x00000000        0xc ./component/uart/fsl_adapter_lpuart.o
 .group         0x00000000        0xc ./component/uart/fsl_adapter_lpuart.o
 .group         0x00000000        0xc ./component/uart/fsl_adapter_lpuart.o
 .group         0x00000000        0xc ./component/uart/fsl_adapter_lpuart.o
 .group         0x00000000        0xc ./component/uart/fsl_adapter_lpuart.o
 .group         0x00000000        0xc ./component/uart/fsl_adapter_lpuart.o
 .group         0x00000000        0xc ./component/uart/fsl_adapter_lpuart.o
 .group         0x00000000        0xc ./component/uart/fsl_adapter_lpuart.o
 .group         0x00000000        0xc ./component/uart/fsl_adapter_lpuart.o
 .group         0x00000000        0xc ./component/uart/fsl_adapter_lpuart.o
 .group         0x00000000        0xc ./component/uart/fsl_adapter_lpuart.o
 .group         0x00000000        0xc ./component/uart/fsl_adapter_lpuart.o
 .group         0x00000000        0xc ./component/uart/fsl_adapter_lpuart.o
 .group         0x00000000        0xc ./component/uart/fsl_adapter_lpuart.o
 .group         0x00000000        0xc ./component/uart/fsl_adapter_lpuart.o
 .group         0x00000000        0xc ./component/uart/fsl_adapter_lpuart.o
 .group         0x00000000        0xc ./component/uart/fsl_adapter_lpuart.o
 .group         0x00000000        0xc ./component/uart/fsl_adapter_lpuart.o
 .group         0x00000000        0xc ./component/uart/fsl_adapter_lpuart.o
 .group         0x00000000        0xc ./component/uart/fsl_adapter_lpuart.o
 .text          0x00000000        0x0 ./component/uart/fsl_adapter_lpuart.o
 .data          0x00000000        0x0 ./component/uart/fsl_adapter_lpuart.o
 .bss           0x00000000        0x0 ./component/uart/fsl_adapter_lpuart.o
 .rodata.HAL_UartDeinit.str1.4
                0x00000000       0x2a ./component/uart/fsl_adapter_lpuart.o
 .text.HAL_UartDeinit
                0x00000000       0x3c ./component/uart/fsl_adapter_lpuart.o
 .rodata.HAL_UartEnterLowpower.str1.4
                0x00000000       0x2a ./component/uart/fsl_adapter_lpuart.o
 .text.HAL_UartEnterLowpower
                0x00000000       0x24 ./component/uart/fsl_adapter_lpuart.o
 .text.HAL_UartExitLowpower
                0x00000000       0x16 ./component/uart/fsl_adapter_lpuart.o
 .debug_macro   0x00000000      0xacc ./component/uart/fsl_adapter_lpuart.o
 .debug_macro   0x00000000       0x10 ./component/uart/fsl_adapter_lpuart.o
 .debug_macro   0x00000000       0x1c ./component/uart/fsl_adapter_lpuart.o
 .debug_macro   0x00000000       0x22 ./component/uart/fsl_adapter_lpuart.o
 .debug_macro   0x00000000      0x12e ./component/uart/fsl_adapter_lpuart.o
 .debug_macro   0x00000000      0x5b4 ./component/uart/fsl_adapter_lpuart.o
 .debug_macro   0x00000000       0x22 ./component/uart/fsl_adapter_lpuart.o
 .debug_macro   0x00000000       0x10 ./component/uart/fsl_adapter_lpuart.o
 .debug_macro   0x00000000       0x4d ./component/uart/fsl_adapter_lpuart.o
 .debug_macro   0x00000000       0x1c ./component/uart/fsl_adapter_lpuart.o
 .debug_macro   0x00000000       0x22 ./component/uart/fsl_adapter_lpuart.o
 .debug_macro   0x00000000       0xfb ./component/uart/fsl_adapter_lpuart.o
 .debug_macro   0x00000000     0x1313 ./component/uart/fsl_adapter_lpuart.o
 .debug_macro   0x00000000      0x11f ./component/uart/fsl_adapter_lpuart.o
 .debug_macro   0x00000000       0x22 ./component/uart/fsl_adapter_lpuart.o
 .debug_macro   0x00000000       0x22 ./component/uart/fsl_adapter_lpuart.o
 .debug_macro   0x00000000    0x24b4f ./component/uart/fsl_adapter_lpuart.o
 .debug_macro   0x00000000      0x86b ./component/uart/fsl_adapter_lpuart.o
 .debug_macro   0x00000000       0x7a ./component/uart/fsl_adapter_lpuart.o
 .debug_macro   0x00000000       0xaf ./component/uart/fsl_adapter_lpuart.o
 .debug_macro   0x00000000      0x24e ./component/uart/fsl_adapter_lpuart.o
 .debug_macro   0x00000000       0x10 ./component/uart/fsl_adapter_lpuart.o
 .group         0x00000000        0xc ./component/silicon_id/fsl_silicon_id.o
 .group         0x00000000        0xc ./component/silicon_id/fsl_silicon_id.o
 .group         0x00000000        0xc ./component/silicon_id/fsl_silicon_id.o
 .group         0x00000000        0xc ./component/silicon_id/fsl_silicon_id.o
 .group         0x00000000        0xc ./component/silicon_id/fsl_silicon_id.o
 .group         0x00000000        0xc ./component/silicon_id/fsl_silicon_id.o
 .group         0x00000000        0xc ./component/silicon_id/fsl_silicon_id.o
 .group         0x00000000        0xc ./component/silicon_id/fsl_silicon_id.o
 .group         0x00000000        0xc ./component/silicon_id/fsl_silicon_id.o
 .group         0x00000000        0xc ./component/silicon_id/fsl_silicon_id.o
 .group         0x00000000        0xc ./component/silicon_id/fsl_silicon_id.o
 .group         0x00000000        0xc ./component/silicon_id/fsl_silicon_id.o
 .group         0x00000000        0xc ./component/silicon_id/fsl_silicon_id.o
 .group         0x00000000        0xc ./component/silicon_id/fsl_silicon_id.o
 .group         0x00000000        0xc ./component/silicon_id/fsl_silicon_id.o
 .group         0x00000000        0xc ./component/silicon_id/fsl_silicon_id.o
 .group         0x00000000        0xc ./component/silicon_id/fsl_silicon_id.o
 .group         0x00000000        0xc ./component/silicon_id/fsl_silicon_id.o
 .group         0x00000000        0xc ./component/silicon_id/fsl_silicon_id.o
 .group         0x00000000        0xc ./component/silicon_id/fsl_silicon_id.o
 .group         0x00000000        0xc ./component/silicon_id/fsl_silicon_id.o
 .text          0x00000000        0x0 ./component/silicon_id/fsl_silicon_id.o
 .data          0x00000000        0x0 ./component/silicon_id/fsl_silicon_id.o
 .bss           0x00000000        0x0 ./component/silicon_id/fsl_silicon_id.o
 .text.SILICONID_GetID
                0x00000000       0x40 ./component/silicon_id/fsl_silicon_id.o
 .rodata.SILICONID_ConvertToMacAddr.str1.4
                0x00000000       0x23 ./component/silicon_id/fsl_silicon_id.o
 .text.SILICONID_ConvertToMacAddr
                0x00000000       0x64 ./component/silicon_id/fsl_silicon_id.o
 .debug_info    0x00000000      0x81c ./component/silicon_id/fsl_silicon_id.o
 .debug_abbrev  0x00000000      0x14a ./component/silicon_id/fsl_silicon_id.o
 .debug_aranges
                0x00000000       0x28 ./component/silicon_id/fsl_silicon_id.o
 .debug_ranges  0x00000000       0x18 ./component/silicon_id/fsl_silicon_id.o
 .debug_macro   0x00000000      0x13d ./component/silicon_id/fsl_silicon_id.o
 .debug_macro   0x00000000      0xacc ./component/silicon_id/fsl_silicon_id.o
 .debug_macro   0x00000000       0x10 ./component/silicon_id/fsl_silicon_id.o
 .debug_macro   0x00000000       0x1c ./component/silicon_id/fsl_silicon_id.o
 .debug_macro   0x00000000       0x22 ./component/silicon_id/fsl_silicon_id.o
 .debug_macro   0x00000000      0x12e ./component/silicon_id/fsl_silicon_id.o
 .debug_macro   0x00000000      0x5b4 ./component/silicon_id/fsl_silicon_id.o
 .debug_macro   0x00000000       0x22 ./component/silicon_id/fsl_silicon_id.o
 .debug_macro   0x00000000       0x10 ./component/silicon_id/fsl_silicon_id.o
 .debug_macro   0x00000000       0x4d ./component/silicon_id/fsl_silicon_id.o
 .debug_macro   0x00000000       0x1c ./component/silicon_id/fsl_silicon_id.o
 .debug_macro   0x00000000       0x22 ./component/silicon_id/fsl_silicon_id.o
 .debug_macro   0x00000000       0xfb ./component/silicon_id/fsl_silicon_id.o
 .debug_macro   0x00000000     0x1313 ./component/silicon_id/fsl_silicon_id.o
 .debug_macro   0x00000000      0x11f ./component/silicon_id/fsl_silicon_id.o
 .debug_macro   0x00000000       0x22 ./component/silicon_id/fsl_silicon_id.o
 .debug_macro   0x00000000       0x22 ./component/silicon_id/fsl_silicon_id.o
 .debug_macro   0x00000000    0x24b4f ./component/silicon_id/fsl_silicon_id.o
 .debug_macro   0x00000000      0x86b ./component/silicon_id/fsl_silicon_id.o
 .debug_macro   0x00000000       0x7a ./component/silicon_id/fsl_silicon_id.o
 .debug_macro   0x00000000       0xaf ./component/silicon_id/fsl_silicon_id.o
 .debug_macro   0x00000000      0x24e ./component/silicon_id/fsl_silicon_id.o
 .debug_line    0x00000000      0x44a ./component/silicon_id/fsl_silicon_id.o
 .debug_str     0x00000000   0x140c09 ./component/silicon_id/fsl_silicon_id.o
 .comment       0x00000000       0x4a ./component/silicon_id/fsl_silicon_id.o
 .debug_frame   0x00000000       0x5c ./component/silicon_id/fsl_silicon_id.o
 .ARM.attributes
                0x00000000       0x32 ./component/silicon_id/fsl_silicon_id.o
 .group         0x00000000        0xc ./component/lists/fsl_component_generic_list.o
 .group         0x00000000        0xc ./component/lists/fsl_component_generic_list.o
 .group         0x00000000        0xc ./component/lists/fsl_component_generic_list.o
 .group         0x00000000        0xc ./component/lists/fsl_component_generic_list.o
 .group         0x00000000        0xc ./component/lists/fsl_component_generic_list.o
 .group         0x00000000        0xc ./component/lists/fsl_component_generic_list.o
 .group         0x00000000        0xc ./component/lists/fsl_component_generic_list.o
 .group         0x00000000        0xc ./component/lists/fsl_component_generic_list.o
 .group         0x00000000        0xc ./component/lists/fsl_component_generic_list.o
 .group         0x00000000        0xc ./component/lists/fsl_component_generic_list.o
 .group         0x00000000        0xc ./component/lists/fsl_component_generic_list.o
 .group         0x00000000        0xc ./component/lists/fsl_component_generic_list.o
 .group         0x00000000        0xc ./component/lists/fsl_component_generic_list.o
 .group         0x00000000        0xc ./component/lists/fsl_component_generic_list.o
 .group         0x00000000        0xc ./component/lists/fsl_component_generic_list.o
 .group         0x00000000        0xc ./component/lists/fsl_component_generic_list.o
 .group         0x00000000        0xc ./component/lists/fsl_component_generic_list.o
 .group         0x00000000        0xc ./component/lists/fsl_component_generic_list.o
 .group         0x00000000        0xc ./component/lists/fsl_component_generic_list.o
 .group         0x00000000        0xc ./component/lists/fsl_component_generic_list.o
 .group         0x00000000        0xc ./component/lists/fsl_component_generic_list.o
 .group         0x00000000        0xc ./component/lists/fsl_component_generic_list.o
 .group         0x00000000        0xc ./component/lists/fsl_component_generic_list.o
 .text          0x00000000        0x0 ./component/lists/fsl_component_generic_list.o
 .data          0x00000000        0x0 ./component/lists/fsl_component_generic_list.o
 .bss           0x00000000        0x0 ./component/lists/fsl_component_generic_list.o
 .text.DisableGlobalIRQ
                0x00000000       0x22 ./component/lists/fsl_component_generic_list.o
 .text.EnableGlobalIRQ
                0x00000000       0x20 ./component/lists/fsl_component_generic_list.o
 .text.LIST_Error_Check
                0x00000000       0x36 ./component/lists/fsl_component_generic_list.o
 .text.LIST_Init
                0x00000000       0x2e ./component/lists/fsl_component_generic_list.o
 .text.LIST_GetList
                0x00000000       0x18 ./component/lists/fsl_component_generic_list.o
 .text.LIST_AddTail
                0x00000000       0x6a ./component/lists/fsl_component_generic_list.o
 .text.LIST_AddHead
                0x00000000       0x62 ./component/lists/fsl_component_generic_list.o
 .text.LIST_RemoveHead
                0x00000000       0x5e ./component/lists/fsl_component_generic_list.o
 .text.LIST_GetHead
                0x00000000       0x18 ./component/lists/fsl_component_generic_list.o
 .text.LIST_GetNext
                0x00000000       0x18 ./component/lists/fsl_component_generic_list.o
 .text.LIST_GetPrev
                0x00000000       0x16 ./component/lists/fsl_component_generic_list.o
 .text.LIST_RemoveElement
                0x00000000       0x84 ./component/lists/fsl_component_generic_list.o
 .text.LIST_AddPrevElement
                0x00000000       0xa4 ./component/lists/fsl_component_generic_list.o
 .text.LIST_GetSize
                0x00000000       0x18 ./component/lists/fsl_component_generic_list.o
 .text.LIST_GetAvailableSize
                0x00000000       0x1e ./component/lists/fsl_component_generic_list.o
 .debug_info    0x00000000      0x598 ./component/lists/fsl_component_generic_list.o
 .debug_abbrev  0x00000000      0x281 ./component/lists/fsl_component_generic_list.o
 .debug_aranges
                0x00000000       0x90 ./component/lists/fsl_component_generic_list.o
 .debug_ranges  0x00000000       0x80 ./component/lists/fsl_component_generic_list.o
 .debug_macro   0x00000000      0x141 ./component/lists/fsl_component_generic_list.o
 .debug_macro   0x00000000      0xacc ./component/lists/fsl_component_generic_list.o
 .debug_macro   0x00000000       0x10 ./component/lists/fsl_component_generic_list.o
 .debug_macro   0x00000000       0x10 ./component/lists/fsl_component_generic_list.o
 .debug_macro   0x00000000       0x1c ./component/lists/fsl_component_generic_list.o
 .debug_macro   0x00000000       0x22 ./component/lists/fsl_component_generic_list.o
 .debug_macro   0x00000000      0x12e ./component/lists/fsl_component_generic_list.o
 .debug_macro   0x00000000      0x5b4 ./component/lists/fsl_component_generic_list.o
 .debug_macro   0x00000000       0x22 ./component/lists/fsl_component_generic_list.o
 .debug_macro   0x00000000       0x10 ./component/lists/fsl_component_generic_list.o
 .debug_macro   0x00000000       0x4d ./component/lists/fsl_component_generic_list.o
 .debug_macro   0x00000000       0x1c ./component/lists/fsl_component_generic_list.o
 .debug_macro   0x00000000       0x22 ./component/lists/fsl_component_generic_list.o
 .debug_macro   0x00000000       0xfb ./component/lists/fsl_component_generic_list.o
 .debug_macro   0x00000000     0x1313 ./component/lists/fsl_component_generic_list.o
 .debug_macro   0x00000000      0x11f ./component/lists/fsl_component_generic_list.o
 .debug_macro   0x00000000       0x22 ./component/lists/fsl_component_generic_list.o
 .debug_macro   0x00000000       0x22 ./component/lists/fsl_component_generic_list.o
 .debug_macro   0x00000000    0x24b4f ./component/lists/fsl_component_generic_list.o
 .debug_macro   0x00000000      0x86b ./component/lists/fsl_component_generic_list.o
 .debug_macro   0x00000000       0x7a ./component/lists/fsl_component_generic_list.o
 .debug_macro   0x00000000       0xaf ./component/lists/fsl_component_generic_list.o
 .debug_macro   0x00000000      0x24e ./component/lists/fsl_component_generic_list.o
 .debug_macro   0x00000000       0x10 ./component/lists/fsl_component_generic_list.o
 .debug_line    0x00000000      0x6f3 ./component/lists/fsl_component_generic_list.o
 .debug_str     0x00000000   0x140a40 ./component/lists/fsl_component_generic_list.o
 .comment       0x00000000       0x4a ./component/lists/fsl_component_generic_list.o
 .debug_frame   0x00000000      0x254 ./component/lists/fsl_component_generic_list.o
 .ARM.attributes
                0x00000000       0x32 ./component/lists/fsl_component_generic_list.o
 .group         0x00000000        0xc ./board/board.o
 .group         0x00000000        0xc ./board/board.o
 .group         0x00000000        0xc ./board/board.o
 .group         0x00000000        0xc ./board/board.o
 .group         0x00000000        0xc ./board/board.o
 .group         0x00000000        0xc ./board/board.o
 .group         0x00000000        0xc ./board/board.o
 .group         0x00000000        0xc ./board/board.o
 .group         0x00000000        0xc ./board/board.o
 .group         0x00000000        0xc ./board/board.o
 .group         0x00000000        0xc ./board/board.o
 .group         0x00000000        0xc ./board/board.o
 .group         0x00000000        0xc ./board/board.o
 .group         0x00000000        0xc ./board/board.o
 .group         0x00000000        0xc ./board/board.o
 .group         0x00000000        0xc ./board/board.o
 .group         0x00000000        0xc ./board/board.o
 .group         0x00000000        0xc ./board/board.o
 .group         0x00000000        0xc ./board/board.o
 .group         0x00000000        0xc ./board/board.o
 .group         0x00000000        0xc ./board/board.o
 .group         0x00000000        0xc ./board/board.o
 .group         0x00000000        0xc ./board/board.o
 .group         0x00000000        0xc ./board/board.o
 .group         0x00000000        0xc ./board/board.o
 .group         0x00000000        0xc ./board/board.o
 .group         0x00000000        0xc ./board/board.o
 .group         0x00000000        0xc ./board/board.o
 .text          0x00000000        0x0 ./board/board.o
 .data          0x00000000        0x0 ./board/board.o
 .bss           0x00000000        0x0 ./board/board.o
 .debug_macro   0x00000000      0xacc ./board/board.o
 .debug_macro   0x00000000       0x10 ./board/board.o
 .debug_macro   0x00000000       0x1c ./board/board.o
 .debug_macro   0x00000000       0x22 ./board/board.o
 .debug_macro   0x00000000      0x12e ./board/board.o
 .debug_macro   0x00000000      0x5b4 ./board/board.o
 .debug_macro   0x00000000       0x22 ./board/board.o
 .debug_macro   0x00000000       0x10 ./board/board.o
 .debug_macro   0x00000000       0x4d ./board/board.o
 .debug_macro   0x00000000       0x1c ./board/board.o
 .debug_macro   0x00000000       0x22 ./board/board.o
 .debug_macro   0x00000000       0xfb ./board/board.o
 .debug_macro   0x00000000     0x1313 ./board/board.o
 .debug_macro   0x00000000      0x11f ./board/board.o
 .debug_macro   0x00000000       0x22 ./board/board.o
 .debug_macro   0x00000000       0x22 ./board/board.o
 .debug_macro   0x00000000    0x24b4f ./board/board.o
 .debug_macro   0x00000000      0x86b ./board/board.o
 .debug_macro   0x00000000       0x7a ./board/board.o
 .debug_macro   0x00000000       0xaf ./board/board.o
 .debug_macro   0x00000000      0x24e ./board/board.o
 .debug_macro   0x00000000       0x1c ./board/board.o
 .debug_macro   0x00000000       0x1c ./board/board.o
 .debug_macro   0x00000000       0x34 ./board/board.o
 .debug_macro   0x00000000      0x130 ./board/board.o
 .debug_macro   0x00000000       0x10 ./board/board.o
 .debug_macro   0x00000000      0x16c ./board/board.o
 .group         0x00000000        0xc ./board/clock_config.o
 .group         0x00000000        0xc ./board/clock_config.o
 .group         0x00000000        0xc ./board/clock_config.o
 .group         0x00000000        0xc ./board/clock_config.o
 .group         0x00000000        0xc ./board/clock_config.o
 .group         0x00000000        0xc ./board/clock_config.o
 .group         0x00000000        0xc ./board/clock_config.o
 .group         0x00000000        0xc ./board/clock_config.o
 .group         0x00000000        0xc ./board/clock_config.o
 .group         0x00000000        0xc ./board/clock_config.o
 .group         0x00000000        0xc ./board/clock_config.o
 .group         0x00000000        0xc ./board/clock_config.o
 .group         0x00000000        0xc ./board/clock_config.o
 .group         0x00000000        0xc ./board/clock_config.o
 .group         0x00000000        0xc ./board/clock_config.o
 .group         0x00000000        0xc ./board/clock_config.o
 .group         0x00000000        0xc ./board/clock_config.o
 .group         0x00000000        0xc ./board/clock_config.o
 .group         0x00000000        0xc ./board/clock_config.o
 .group         0x00000000        0xc ./board/clock_config.o
 .group         0x00000000        0xc ./board/clock_config.o
 .group         0x00000000        0xc ./board/clock_config.o
 .group         0x00000000        0xc ./board/clock_config.o
 .text          0x00000000        0x0 ./board/clock_config.o
 .data          0x00000000        0x0 ./board/clock_config.o
 .bss           0x00000000        0x0 ./board/clock_config.o
 .rodata.usb1PllConfig_BOARD_BootClockRUN
                0x00000000        0x2 ./board/clock_config.o
 .rodata.videoPllConfig_BOARD_BootClockRUN
                0x00000000       0x10 ./board/clock_config.o
 .debug_macro   0x00000000      0xacc ./board/clock_config.o
 .debug_macro   0x00000000       0x10 ./board/clock_config.o
 .debug_macro   0x00000000       0x1c ./board/clock_config.o
 .debug_macro   0x00000000       0x22 ./board/clock_config.o
 .debug_macro   0x00000000      0x12e ./board/clock_config.o
 .debug_macro   0x00000000      0x5b4 ./board/clock_config.o
 .debug_macro   0x00000000       0x22 ./board/clock_config.o
 .debug_macro   0x00000000       0x10 ./board/clock_config.o
 .debug_macro   0x00000000       0x4d ./board/clock_config.o
 .debug_macro   0x00000000       0x1c ./board/clock_config.o
 .debug_macro   0x00000000       0x22 ./board/clock_config.o
 .debug_macro   0x00000000       0xfb ./board/clock_config.o
 .debug_macro   0x00000000     0x1313 ./board/clock_config.o
 .debug_macro   0x00000000      0x11f ./board/clock_config.o
 .debug_macro   0x00000000       0x22 ./board/clock_config.o
 .debug_macro   0x00000000       0x22 ./board/clock_config.o
 .debug_macro   0x00000000    0x24b4f ./board/clock_config.o
 .debug_macro   0x00000000      0x86b ./board/clock_config.o
 .debug_macro   0x00000000       0x7a ./board/clock_config.o
 .debug_macro   0x00000000       0xaf ./board/clock_config.o
 .debug_macro   0x00000000      0x24e ./board/clock_config.o
 .debug_macro   0x00000000     0x1764 ./board/clock_config.o
 .group         0x00000000        0xc ./board/dcd.o
 .group         0x00000000        0xc ./board/dcd.o
 .group         0x00000000        0xc ./board/dcd.o
 .group         0x00000000        0xc ./board/dcd.o
 .group         0x00000000        0xc ./board/dcd.o
 .text          0x00000000        0x0 ./board/dcd.o
 .data          0x00000000        0x0 ./board/dcd.o
 .bss           0x00000000        0x0 ./board/dcd.o
 .rodata.dcd_data
                0x00000000        0x1 ./board/dcd.o
 .debug_info    0x00000000       0xa8 ./board/dcd.o
 .debug_abbrev  0x00000000       0x64 ./board/dcd.o
 .debug_aranges
                0x00000000       0x18 ./board/dcd.o
 .debug_macro   0x00000000       0x51 ./board/dcd.o
 .debug_macro   0x00000000      0xacc ./board/dcd.o
 .debug_macro   0x00000000       0x10 ./board/dcd.o
 .debug_macro   0x00000000      0x12e ./board/dcd.o
 .debug_macro   0x00000000      0x5b4 ./board/dcd.o
 .debug_macro   0x00000000       0x22 ./board/dcd.o
 .debug_line    0x00000000      0x168 ./board/dcd.o
 .debug_str     0x00000000     0x45d1 ./board/dcd.o
 .comment       0x00000000       0x4a ./board/dcd.o
 .ARM.attributes
                0x00000000       0x32 ./board/dcd.o
 .group         0x00000000        0xc ./board/pin_mux.o
 .group         0x00000000        0xc ./board/pin_mux.o
 .group         0x00000000        0xc ./board/pin_mux.o
 .group         0x00000000        0xc ./board/pin_mux.o
 .group         0x00000000        0xc ./board/pin_mux.o
 .group         0x00000000        0xc ./board/pin_mux.o
 .group         0x00000000        0xc ./board/pin_mux.o
 .group         0x00000000        0xc ./board/pin_mux.o
 .group         0x00000000        0xc ./board/pin_mux.o
 .group         0x00000000        0xc ./board/pin_mux.o
 .group         0x00000000        0xc ./board/pin_mux.o
 .group         0x00000000        0xc ./board/pin_mux.o
 .group         0x00000000        0xc ./board/pin_mux.o
 .group         0x00000000        0xc ./board/pin_mux.o
 .group         0x00000000        0xc ./board/pin_mux.o
 .group         0x00000000        0xc ./board/pin_mux.o
 .group         0x00000000        0xc ./board/pin_mux.o
 .group         0x00000000        0xc ./board/pin_mux.o
 .group         0x00000000        0xc ./board/pin_mux.o
 .group         0x00000000        0xc ./board/pin_mux.o
 .group         0x00000000        0xc ./board/pin_mux.o
 .group         0x00000000        0xc ./board/pin_mux.o
 .text          0x00000000        0x0 ./board/pin_mux.o
 .data          0x00000000        0x0 ./board/pin_mux.o
 .bss           0x00000000        0x0 ./board/pin_mux.o
 .debug_macro   0x00000000      0xacc ./board/pin_mux.o
 .debug_macro   0x00000000       0x10 ./board/pin_mux.o
 .debug_macro   0x00000000       0x1c ./board/pin_mux.o
 .debug_macro   0x00000000       0x22 ./board/pin_mux.o
 .debug_macro   0x00000000      0x12e ./board/pin_mux.o
 .debug_macro   0x00000000      0x5b4 ./board/pin_mux.o
 .debug_macro   0x00000000       0x22 ./board/pin_mux.o
 .debug_macro   0x00000000       0x10 ./board/pin_mux.o
 .debug_macro   0x00000000       0x4d ./board/pin_mux.o
 .debug_macro   0x00000000       0x1c ./board/pin_mux.o
 .debug_macro   0x00000000       0x22 ./board/pin_mux.o
 .debug_macro   0x00000000       0xfb ./board/pin_mux.o
 .debug_macro   0x00000000     0x1313 ./board/pin_mux.o
 .debug_macro   0x00000000      0x11f ./board/pin_mux.o
 .debug_macro   0x00000000       0x22 ./board/pin_mux.o
 .debug_macro   0x00000000       0x22 ./board/pin_mux.o
 .debug_macro   0x00000000    0x24b4f ./board/pin_mux.o
 .debug_macro   0x00000000      0x86b ./board/pin_mux.o
 .debug_macro   0x00000000       0x7a ./board/pin_mux.o
 .debug_macro   0x00000000       0xaf ./board/pin_mux.o
 .debug_macro   0x00000000      0x24e ./board/pin_mux.o
 .debug_macro   0x00000000     0x1764 ./board/pin_mux.o
 .text          0x00000000        0x0 c:/nxp/mcuxpressoide_11.6.1_8255/ide/plugins/com.nxp.mcuxpresso.tools.win32_11.6.1.202207200623/tools/bin/../lib/gcc/arm-none-eabi/10.3.1/../../../../arm-none-eabi/lib/thumb/v7e-m+dp/hard\libcr_nohost_nf.a(_cr__main.o)
 .data          0x00000000        0x0 c:/nxp/mcuxpressoide_11.6.1_8255/ide/plugins/com.nxp.mcuxpresso.tools.win32_11.6.1.202207200623/tools/bin/../lib/gcc/arm-none-eabi/10.3.1/../../../../arm-none-eabi/lib/thumb/v7e-m+dp/hard\libcr_nohost_nf.a(_cr__main.o)
 .bss           0x00000000        0x0 c:/nxp/mcuxpressoide_11.6.1_8255/ide/plugins/com.nxp.mcuxpresso.tools.win32_11.6.1.202207200623/tools/bin/../lib/gcc/arm-none-eabi/10.3.1/../../../../arm-none-eabi/lib/thumb/v7e-m+dp/hard\libcr_nohost_nf.a(_cr__main.o)
 .text          0x00000000        0x0 c:/nxp/mcuxpressoide_11.6.1_8255/ide/plugins/com.nxp.mcuxpresso.tools.win32_11.6.1.202207200623/tools/bin/../lib/gcc/arm-none-eabi/10.3.1/../../../../arm-none-eabi/lib/thumb/v7e-m+dp/hard\libcr_c.a(memcpy.o)
 .data          0x00000000        0x0 c:/nxp/mcuxpressoide_11.6.1_8255/ide/plugins/com.nxp.mcuxpresso.tools.win32_11.6.1.202207200623/tools/bin/../lib/gcc/arm-none-eabi/10.3.1/../../../../arm-none-eabi/lib/thumb/v7e-m+dp/hard\libcr_c.a(memcpy.o)
 .bss           0x00000000        0x0 c:/nxp/mcuxpressoide_11.6.1_8255/ide/plugins/com.nxp.mcuxpresso.tools.win32_11.6.1.202207200623/tools/bin/../lib/gcc/arm-none-eabi/10.3.1/../../../../arm-none-eabi/lib/thumb/v7e-m+dp/hard\libcr_c.a(memcpy.o)
 .text          0x00000000        0x0 c:/nxp/mcuxpressoide_11.6.1_8255/ide/plugins/com.nxp.mcuxpresso.tools.win32_11.6.1.202207200623/tools/bin/../lib/gcc/arm-none-eabi/10.3.1/../../../../arm-none-eabi/lib/thumb/v7e-m+dp/hard\libcr_c.a(memset.o)
 .data          0x00000000        0x0 c:/nxp/mcuxpressoide_11.6.1_8255/ide/plugins/com.nxp.mcuxpresso.tools.win32_11.6.1.202207200623/tools/bin/../lib/gcc/arm-none-eabi/10.3.1/../../../../arm-none-eabi/lib/thumb/v7e-m+dp/hard\libcr_c.a(memset.o)
 .bss           0x00000000        0x0 c:/nxp/mcuxpressoide_11.6.1_8255/ide/plugins/com.nxp.mcuxpresso.tools.win32_11.6.1.202207200623/tools/bin/../lib/gcc/arm-none-eabi/10.3.1/../../../../arm-none-eabi/lib/thumb/v7e-m+dp/hard\libcr_c.a(memset.o)
 .text          0x00000000        0x0 c:/nxp/mcuxpressoide_11.6.1_8255/ide/plugins/com.nxp.mcuxpresso.tools.win32_11.6.1.202207200623/tools/bin/../lib/gcc/arm-none-eabi/10.3.1/../../../../arm-none-eabi/lib/thumb/v7e-m+dp/hard\libcr_c.a(alloc.o)
 .data          0x00000000        0x0 c:/nxp/mcuxpressoide_11.6.1_8255/ide/plugins/com.nxp.mcuxpresso.tools.win32_11.6.1.202207200623/tools/bin/../lib/gcc/arm-none-eabi/10.3.1/../../../../arm-none-eabi/lib/thumb/v7e-m+dp/hard\libcr_c.a(alloc.o)
 .bss           0x00000000        0x0 c:/nxp/mcuxpressoide_11.6.1_8255/ide/plugins/com.nxp.mcuxpresso.tools.win32_11.6.1.202207200623/tools/bin/../lib/gcc/arm-none-eabi/10.3.1/../../../../arm-none-eabi/lib/thumb/v7e-m+dp/hard\libcr_c.a(alloc.o)
 .text.malloc   0x00000000       0xc8 c:/nxp/mcuxpressoide_11.6.1_8255/ide/plugins/com.nxp.mcuxpresso.tools.win32_11.6.1.202207200623/tools/bin/../lib/gcc/arm-none-eabi/10.3.1/../../../../arm-none-eabi/lib/thumb/v7e-m+dp/hard\libcr_c.a(alloc.o)
 .text.calloc   0x00000000       0x54 c:/nxp/mcuxpressoide_11.6.1_8255/ide/plugins/com.nxp.mcuxpresso.tools.win32_11.6.1.202207200623/tools/bin/../lib/gcc/arm-none-eabi/10.3.1/../../../../arm-none-eabi/lib/thumb/v7e-m+dp/hard\libcr_c.a(alloc.o)
 .rodata._Csys_alloc.str1.1
                0x00000000       0x18 c:/nxp/mcuxpressoide_11.6.1_8255/ide/plugins/com.nxp.mcuxpresso.tools.win32_11.6.1.202207200623/tools/bin/../lib/gcc/arm-none-eabi/10.3.1/../../../../arm-none-eabi/lib/thumb/v7e-m+dp/hard\libcr_c.a(alloc.o)
 .text._Csys_alloc
                0x00000000       0x20 c:/nxp/mcuxpressoide_11.6.1_8255/ide/plugins/com.nxp.mcuxpresso.tools.win32_11.6.1.202207200623/tools/bin/../lib/gcc/arm-none-eabi/10.3.1/../../../../arm-none-eabi/lib/thumb/v7e-m+dp/hard\libcr_c.a(alloc.o)
 .text.realloc  0x00000000       0x26 c:/nxp/mcuxpressoide_11.6.1_8255/ide/plugins/com.nxp.mcuxpresso.tools.win32_11.6.1.202207200623/tools/bin/../lib/gcc/arm-none-eabi/10.3.1/../../../../arm-none-eabi/lib/thumb/v7e-m+dp/hard\libcr_c.a(alloc.o)
 .text          0x00000000        0x0 c:/nxp/mcuxpressoide_11.6.1_8255/ide/plugins/com.nxp.mcuxpresso.tools.win32_11.6.1.202207200623/tools/bin/../lib/gcc/arm-none-eabi/10.3.1/../../../../arm-none-eabi/lib/thumb/v7e-m+dp/hard\libcr_c.a(initio.o)
 .data          0x00000000        0x0 c:/nxp/mcuxpressoide_11.6.1_8255/ide/plugins/com.nxp.mcuxpresso.tools.win32_11.6.1.202207200623/tools/bin/../lib/gcc/arm-none-eabi/10.3.1/../../../../arm-none-eabi/lib/thumb/v7e-m+dp/hard\libcr_c.a(initio.o)
 .bss           0x00000000        0x0 c:/nxp/mcuxpressoide_11.6.1_8255/ide/plugins/com.nxp.mcuxpresso.tools.win32_11.6.1.202207200623/tools/bin/../lib/gcc/arm-none-eabi/10.3.1/../../../../arm-none-eabi/lib/thumb/v7e-m+dp/hard\libcr_c.a(initio.o)
 .text._terminateio
                0x00000000       0x50 c:/nxp/mcuxpressoide_11.6.1_8255/ide/plugins/com.nxp.mcuxpresso.tools.win32_11.6.1.202207200623/tools/bin/../lib/gcc/arm-none-eabi/10.3.1/../../../../arm-none-eabi/lib/thumb/v7e-m+dp/hard\libcr_c.a(initio.o)
 .text          0x00000000        0x0 c:/nxp/mcuxpressoide_11.6.1_8255/ide/plugins/com.nxp.mcuxpresso.tools.win32_11.6.1.202207200623/tools/bin/../lib/gcc/arm-none-eabi/10.3.1/../../../../arm-none-eabi/lib/thumb/v7e-m+dp/hard\libcr_c.a(memcmp.o)
 .data          0x00000000        0x0 c:/nxp/mcuxpressoide_11.6.1_8255/ide/plugins/com.nxp.mcuxpresso.tools.win32_11.6.1.202207200623/tools/bin/../lib/gcc/arm-none-eabi/10.3.1/../../../../arm-none-eabi/lib/thumb/v7e-m+dp/hard\libcr_c.a(memcmp.o)
 .bss           0x00000000        0x0 c:/nxp/mcuxpressoide_11.6.1_8255/ide/plugins/com.nxp.mcuxpresso.tools.win32_11.6.1.202207200623/tools/bin/../lib/gcc/arm-none-eabi/10.3.1/../../../../arm-none-eabi/lib/thumb/v7e-m+dp/hard\libcr_c.a(memcmp.o)
 .text          0x00000000        0x0 c:/nxp/mcuxpressoide_11.6.1_8255/ide/plugins/com.nxp.mcuxpresso.tools.win32_11.6.1.202207200623/tools/bin/../lib/gcc/arm-none-eabi/10.3.1/../../../../arm-none-eabi/lib/thumb/v7e-m+dp/hard\libcr_c.a(setvbuf.o)
 .data          0x00000000        0x0 c:/nxp/mcuxpressoide_11.6.1_8255/ide/plugins/com.nxp.mcuxpresso.tools.win32_11.6.1.202207200623/tools/bin/../lib/gcc/arm-none-eabi/10.3.1/../../../../arm-none-eabi/lib/thumb/v7e-m+dp/hard\libcr_c.a(setvbuf.o)
 .bss           0x00000000        0x0 c:/nxp/mcuxpressoide_11.6.1_8255/ide/plugins/com.nxp.mcuxpresso.tools.win32_11.6.1.202207200623/tools/bin/../lib/gcc/arm-none-eabi/10.3.1/../../../../arm-none-eabi/lib/thumb/v7e-m+dp/hard\libcr_c.a(setvbuf.o)
 .text          0x00000000        0x0 c:/nxp/mcuxpressoide_11.6.1_8255/ide/plugins/com.nxp.mcuxpresso.tools.win32_11.6.1.202207200623/tools/bin/../lib/gcc/arm-none-eabi/10.3.1/../../../../arm-none-eabi/lib/thumb/v7e-m+dp/hard\libcr_c.a(strlen.o)
 .data          0x00000000        0x0 c:/nxp/mcuxpressoide_11.6.1_8255/ide/plugins/com.nxp.mcuxpresso.tools.win32_11.6.1.202207200623/tools/bin/../lib/gcc/arm-none-eabi/10.3.1/../../../../arm-none-eabi/lib/thumb/v7e-m+dp/hard\libcr_c.a(strlen.o)
 .bss           0x00000000        0x0 c:/nxp/mcuxpressoide_11.6.1_8255/ide/plugins/com.nxp.mcuxpresso.tools.win32_11.6.1.202207200623/tools/bin/../lib/gcc/arm-none-eabi/10.3.1/../../../../arm-none-eabi/lib/thumb/v7e-m+dp/hard\libcr_c.a(strlen.o)
 .text          0x00000000        0x0 c:/nxp/mcuxpressoide_11.6.1_8255/ide/plugins/com.nxp.mcuxpresso.tools.win32_11.6.1.202207200623/tools/bin/../lib/gcc/arm-none-eabi/10.3.1/../../../../arm-none-eabi/lib/thumb/v7e-m+dp/hard\libcr_c.a(__init_alloc.o)
 .data          0x00000000        0x0 c:/nxp/mcuxpressoide_11.6.1_8255/ide/plugins/com.nxp.mcuxpresso.tools.win32_11.6.1.202207200623/tools/bin/../lib/gcc/arm-none-eabi/10.3.1/../../../../arm-none-eabi/lib/thumb/v7e-m+dp/hard\libcr_c.a(__init_alloc.o)
 .bss           0x00000000        0x0 c:/nxp/mcuxpressoide_11.6.1_8255/ide/plugins/com.nxp.mcuxpresso.tools.win32_11.6.1.202207200623/tools/bin/../lib/gcc/arm-none-eabi/10.3.1/../../../../arm-none-eabi/lib/thumb/v7e-m+dp/hard\libcr_c.a(__init_alloc.o)
 .text._init_alloc
                0x00000000       0x14 c:/nxp/mcuxpressoide_11.6.1_8255/ide/plugins/com.nxp.mcuxpresso.tools.win32_11.6.1.202207200623/tools/bin/../lib/gcc/arm-none-eabi/10.3.1/../../../../arm-none-eabi/lib/thumb/v7e-m+dp/hard\libcr_c.a(__init_alloc.o)
 .bss.__end_of_heap
                0x00000000        0x4 c:/nxp/mcuxpressoide_11.6.1_8255/ide/plugins/com.nxp.mcuxpresso.tools.win32_11.6.1.202207200623/tools/bin/../lib/gcc/arm-none-eabi/10.3.1/../../../../arm-none-eabi/lib/thumb/v7e-m+dp/hard\libcr_c.a(__init_alloc.o)
 .bss.__heaps   0x00000000        0x4 c:/nxp/mcuxpressoide_11.6.1_8255/ide/plugins/com.nxp.mcuxpresso.tools.win32_11.6.1.202207200623/tools/bin/../lib/gcc/arm-none-eabi/10.3.1/../../../../arm-none-eabi/lib/thumb/v7e-m+dp/hard\libcr_c.a(__init_alloc.o)
 .comment       0x00000000       0x4a c:/nxp/mcuxpressoide_11.6.1_8255/ide/plugins/com.nxp.mcuxpresso.tools.win32_11.6.1.202207200623/tools/bin/../lib/gcc/arm-none-eabi/10.3.1/../../../../arm-none-eabi/lib/thumb/v7e-m+dp/hard\libcr_c.a(__init_alloc.o)
 .ARM.attributes
                0x00000000       0x32 c:/nxp/mcuxpressoide_11.6.1_8255/ide/plugins/com.nxp.mcuxpresso.tools.win32_11.6.1.202207200623/tools/bin/../lib/gcc/arm-none-eabi/10.3.1/../../../../arm-none-eabi/lib/thumb/v7e-m+dp/hard\libcr_c.a(__init_alloc.o)
 .text          0x00000000        0x0 c:/nxp/mcuxpressoide_11.6.1_8255/ide/plugins/com.nxp.mcuxpresso.tools.win32_11.6.1.202207200623/tools/bin/../lib/gcc/arm-none-eabi/10.3.1/../../../../arm-none-eabi/lib/thumb/v7e-m+dp/hard\libcr_c.a(_cr_sbrk.o)
 .data          0x00000000        0x0 c:/nxp/mcuxpressoide_11.6.1_8255/ide/plugins/com.nxp.mcuxpresso.tools.win32_11.6.1.202207200623/tools/bin/../lib/gcc/arm-none-eabi/10.3.1/../../../../arm-none-eabi/lib/thumb/v7e-m+dp/hard\libcr_c.a(_cr_sbrk.o)
 .bss           0x00000000        0x0 c:/nxp/mcuxpressoide_11.6.1_8255/ide/plugins/com.nxp.mcuxpresso.tools.win32_11.6.1.202207200623/tools/bin/../lib/gcc/arm-none-eabi/10.3.1/../../../../arm-none-eabi/lib/thumb/v7e-m+dp/hard\libcr_c.a(_cr_sbrk.o)
 .text._sbrk    0x00000000       0x3c c:/nxp/mcuxpressoide_11.6.1_8255/ide/plugins/com.nxp.mcuxpresso.tools.win32_11.6.1.202207200623/tools/bin/../lib/gcc/arm-none-eabi/10.3.1/../../../../arm-none-eabi/lib/thumb/v7e-m+dp/hard\libcr_c.a(_cr_sbrk.o)
 .comment       0x00000000       0x4a c:/nxp/mcuxpressoide_11.6.1_8255/ide/plugins/com.nxp.mcuxpresso.tools.win32_11.6.1.202207200623/tools/bin/../lib/gcc/arm-none-eabi/10.3.1/../../../../arm-none-eabi/lib/thumb/v7e-m+dp/hard\libcr_c.a(_cr_sbrk.o)
 .ARM.attributes
                0x00000000       0x32 c:/nxp/mcuxpressoide_11.6.1_8255/ide/plugins/com.nxp.mcuxpresso.tools.win32_11.6.1.202207200623/tools/bin/../lib/gcc/arm-none-eabi/10.3.1/../../../../arm-none-eabi/lib/thumb/v7e-m+dp/hard\libcr_c.a(_cr_sbrk.o)
 .text          0x00000000        0x0 c:/nxp/mcuxpressoide_11.6.1_8255/ide/plugins/com.nxp.mcuxpresso.tools.win32_11.6.1.202207200623/tools/bin/../lib/gcc/arm-none-eabi/10.3.1/../../../../arm-none-eabi/lib/thumb/v7e-m+dp/hard\libcr_c.a(_fdopen.o)
 .data          0x00000000        0x0 c:/nxp/mcuxpressoide_11.6.1_8255/ide/plugins/com.nxp.mcuxpresso.tools.win32_11.6.1.202207200623/tools/bin/../lib/gcc/arm-none-eabi/10.3.1/../../../../arm-none-eabi/lib/thumb/v7e-m+dp/hard\libcr_c.a(_fdopen.o)
 .bss           0x00000000        0x0 c:/nxp/mcuxpressoide_11.6.1_8255/ide/plugins/com.nxp.mcuxpresso.tools.win32_11.6.1.202207200623/tools/bin/../lib/gcc/arm-none-eabi/10.3.1/../../../../arm-none-eabi/lib/thumb/v7e-m+dp/hard\libcr_c.a(_fdopen.o)
 .text          0x00000000        0x0 c:/nxp/mcuxpressoide_11.6.1_8255/ide/plugins/com.nxp.mcuxpresso.tools.win32_11.6.1.202207200623/tools/bin/../lib/gcc/arm-none-eabi/10.3.1/../../../../arm-none-eabi/lib/thumb/v7e-m+dp/hard\libcr_c.a(errno.o)
 .data          0x00000000        0x0 c:/nxp/mcuxpressoide_11.6.1_8255/ide/plugins/com.nxp.mcuxpresso.tools.win32_11.6.1.202207200623/tools/bin/../lib/gcc/arm-none-eabi/10.3.1/../../../../arm-none-eabi/lib/thumb/v7e-m+dp/hard\libcr_c.a(errno.o)
 .bss           0x00000000        0x0 c:/nxp/mcuxpressoide_11.6.1_8255/ide/plugins/com.nxp.mcuxpresso.tools.win32_11.6.1.202207200623/tools/bin/../lib/gcc/arm-none-eabi/10.3.1/../../../../arm-none-eabi/lib/thumb/v7e-m+dp/hard\libcr_c.a(errno.o)
 .text          0x00000000        0x0 c:/nxp/mcuxpressoide_11.6.1_8255/ide/plugins/com.nxp.mcuxpresso.tools.win32_11.6.1.202207200623/tools/bin/../lib/gcc/arm-none-eabi/10.3.1/../../../../arm-none-eabi/lib/thumb/v7e-m+dp/hard\libcr_c.a(fclose.o)
 .data          0x00000000        0x0 c:/nxp/mcuxpressoide_11.6.1_8255/ide/plugins/com.nxp.mcuxpresso.tools.win32_11.6.1.202207200623/tools/bin/../lib/gcc/arm-none-eabi/10.3.1/../../../../arm-none-eabi/lib/thumb/v7e-m+dp/hard\libcr_c.a(fclose.o)
 .bss           0x00000000        0x0 c:/nxp/mcuxpressoide_11.6.1_8255/ide/plugins/com.nxp.mcuxpresso.tools.win32_11.6.1.202207200623/tools/bin/../lib/gcc/arm-none-eabi/10.3.1/../../../../arm-none-eabi/lib/thumb/v7e-m+dp/hard\libcr_c.a(fclose.o)
 .text          0x00000000        0x0 c:/nxp/mcuxpressoide_11.6.1_8255/ide/plugins/com.nxp.mcuxpresso.tools.win32_11.6.1.202207200623/tools/bin/../lib/gcc/arm-none-eabi/10.3.1/../../../../arm-none-eabi/lib/thumb/v7e-m+dp/hard\libcr_c.a(fflush.o)
 .data          0x00000000        0x0 c:/nxp/mcuxpressoide_11.6.1_8255/ide/plugins/com.nxp.mcuxpresso.tools.win32_11.6.1.202207200623/tools/bin/../lib/gcc/arm-none-eabi/10.3.1/../../../../arm-none-eabi/lib/thumb/v7e-m+dp/hard\libcr_c.a(fflush.o)
 .bss           0x00000000        0x0 c:/nxp/mcuxpressoide_11.6.1_8255/ide/plugins/com.nxp.mcuxpresso.tools.win32_11.6.1.202207200623/tools/bin/../lib/gcc/arm-none-eabi/10.3.1/../../../../arm-none-eabi/lib/thumb/v7e-m+dp/hard\libcr_c.a(fflush.o)
 .text          0x00000000        0x0 c:/nxp/mcuxpressoide_11.6.1_8255/ide/plugins/com.nxp.mcuxpresso.tools.win32_11.6.1.202207200623/tools/bin/../lib/gcc/arm-none-eabi/10.3.1/../../../../arm-none-eabi/lib/thumb/v7e-m+dp/hard\libcr_c.a(fseek.o)
 .data          0x00000000        0x0 c:/nxp/mcuxpressoide_11.6.1_8255/ide/plugins/com.nxp.mcuxpresso.tools.win32_11.6.1.202207200623/tools/bin/../lib/gcc/arm-none-eabi/10.3.1/../../../../arm-none-eabi/lib/thumb/v7e-m+dp/hard\libcr_c.a(fseek.o)
 .bss           0x00000000        0x0 c:/nxp/mcuxpressoide_11.6.1_8255/ide/plugins/com.nxp.mcuxpresso.tools.win32_11.6.1.202207200623/tools/bin/../lib/gcc/arm-none-eabi/10.3.1/../../../../arm-none-eabi/lib/thumb/v7e-m+dp/hard\libcr_c.a(fseek.o)
 .text          0x00000000        0x0 c:/nxp/mcuxpressoide_11.6.1_8255/ide/plugins/com.nxp.mcuxpresso.tools.win32_11.6.1.202207200623/tools/bin/../lib/gcc/arm-none-eabi/10.3.1/../../../../arm-none-eabi/lib/thumb/v7e-m+dp/hard\libcr_c.a(ftell.o)
 .data          0x00000000        0x0 c:/nxp/mcuxpressoide_11.6.1_8255/ide/plugins/com.nxp.mcuxpresso.tools.win32_11.6.1.202207200623/tools/bin/../lib/gcc/arm-none-eabi/10.3.1/../../../../arm-none-eabi/lib/thumb/v7e-m+dp/hard\libcr_c.a(ftell.o)
 .bss           0x00000000        0x0 c:/nxp/mcuxpressoide_11.6.1_8255/ide/plugins/com.nxp.mcuxpresso.tools.win32_11.6.1.202207200623/tools/bin/../lib/gcc/arm-none-eabi/10.3.1/../../../../arm-none-eabi/lib/thumb/v7e-m+dp/hard\libcr_c.a(ftell.o)
 .text          0x00000000        0x0 c:/nxp/mcuxpressoide_11.6.1_8255/ide/plugins/com.nxp.mcuxpresso.tools.win32_11.6.1.202207200623/tools/bin/../lib/gcc/arm-none-eabi/10.3.1/../../../../arm-none-eabi/lib/thumb/v7e-m+dp/hard\libcr_c.a(remove.o)
 .data          0x00000000        0x0 c:/nxp/mcuxpressoide_11.6.1_8255/ide/plugins/com.nxp.mcuxpresso.tools.win32_11.6.1.202207200623/tools/bin/../lib/gcc/arm-none-eabi/10.3.1/../../../../arm-none-eabi/lib/thumb/v7e-m+dp/hard\libcr_c.a(remove.o)
 .bss           0x00000000        0x0 c:/nxp/mcuxpressoide_11.6.1_8255/ide/plugins/com.nxp.mcuxpresso.tools.win32_11.6.1.202207200623/tools/bin/../lib/gcc/arm-none-eabi/10.3.1/../../../../arm-none-eabi/lib/thumb/v7e-m+dp/hard\libcr_c.a(remove.o)
 .text.rename   0x00000000       0x2a c:/nxp/mcuxpressoide_11.6.1_8255/ide/plugins/com.nxp.mcuxpresso.tools.win32_11.6.1.202207200623/tools/bin/../lib/gcc/arm-none-eabi/10.3.1/../../../../arm-none-eabi/lib/thumb/v7e-m+dp/hard\libcr_c.a(remove.o)
 .text          0x00000000        0x0 c:/nxp/mcuxpressoide_11.6.1_8255/ide/plugins/com.nxp.mcuxpresso.tools.win32_11.6.1.202207200623/tools/bin/../lib/gcc/arm-none-eabi/10.3.1/../../../../arm-none-eabi/lib/thumb/v7e-m+dp/hard\libcr_c.a(_cr_check_heap.o)
 .data          0x00000000        0x0 c:/nxp/mcuxpressoide_11.6.1_8255/ide/plugins/com.nxp.mcuxpresso.tools.win32_11.6.1.202207200623/tools/bin/../lib/gcc/arm-none-eabi/10.3.1/../../../../arm-none-eabi/lib/thumb/v7e-m+dp/hard\libcr_c.a(_cr_check_heap.o)
 .bss           0x00000000        0x0 c:/nxp/mcuxpressoide_11.6.1_8255/ide/plugins/com.nxp.mcuxpresso.tools.win32_11.6.1.202207200623/tools/bin/../lib/gcc/arm-none-eabi/10.3.1/../../../../arm-none-eabi/lib/thumb/v7e-m+dp/hard\libcr_c.a(_cr_check_heap.o)
 .text.__check_heap_overflow
                0x00000000       0x18 c:/nxp/mcuxpressoide_11.6.1_8255/ide/plugins/com.nxp.mcuxpresso.tools.win32_11.6.1.202207200623/tools/bin/../lib/gcc/arm-none-eabi/10.3.1/../../../../arm-none-eabi/lib/thumb/v7e-m+dp/hard\libcr_c.a(_cr_check_heap.o)
 .comment       0x00000000       0x4a c:/nxp/mcuxpressoide_11.6.1_8255/ide/plugins/com.nxp.mcuxpresso.tools.win32_11.6.1.202207200623/tools/bin/../lib/gcc/arm-none-eabi/10.3.1/../../../../arm-none-eabi/lib/thumb/v7e-m+dp/hard\libcr_c.a(_cr_check_heap.o)
 .ARM.attributes
                0x00000000       0x32 c:/nxp/mcuxpressoide_11.6.1_8255/ide/plugins/com.nxp.mcuxpresso.tools.win32_11.6.1.202207200623/tools/bin/../lib/gcc/arm-none-eabi/10.3.1/../../../../arm-none-eabi/lib/thumb/v7e-m+dp/hard\libcr_c.a(_cr_check_heap.o)
 .text          0x00000000        0x0 c:/nxp/mcuxpressoide_11.6.1_8255/ide/plugins/com.nxp.mcuxpresso.tools.win32_11.6.1.202207200623/tools/bin/../lib/gcc/arm-none-eabi/10.3.1/../../../../arm-none-eabi/lib/thumb/v7e-m+dp/hard\libcr_c.a(_do_fflush.o)
 .data          0x00000000        0x0 c:/nxp/mcuxpressoide_11.6.1_8255/ide/plugins/com.nxp.mcuxpresso.tools.win32_11.6.1.202207200623/tools/bin/../lib/gcc/arm-none-eabi/10.3.1/../../../../arm-none-eabi/lib/thumb/v7e-m+dp/hard\libcr_c.a(_do_fflush.o)
 .bss           0x00000000        0x0 c:/nxp/mcuxpressoide_11.6.1_8255/ide/plugins/com.nxp.mcuxpresso.tools.win32_11.6.1.202207200623/tools/bin/../lib/gcc/arm-none-eabi/10.3.1/../../../../arm-none-eabi/lib/thumb/v7e-m+dp/hard\libcr_c.a(_do_fflush.o)
 .text          0x00000000        0x0 c:/nxp/mcuxpressoide_11.6.1_8255/ide/plugins/com.nxp.mcuxpresso.tools.win32_11.6.1.202207200623/tools/bin/../lib/gcc/arm-none-eabi/10.3.1/../../../../arm-none-eabi/lib/thumb/v7e-m+dp/hard\libcr_c.a(_fflush.o)
 .data          0x00000000        0x0 c:/nxp/mcuxpressoide_11.6.1_8255/ide/plugins/com.nxp.mcuxpresso.tools.win32_11.6.1.202207200623/tools/bin/../lib/gcc/arm-none-eabi/10.3.1/../../../../arm-none-eabi/lib/thumb/v7e-m+dp/hard\libcr_c.a(_fflush.o)
 .bss           0x00000000        0x0 c:/nxp/mcuxpressoide_11.6.1_8255/ide/plugins/com.nxp.mcuxpresso.tools.win32_11.6.1.202207200623/tools/bin/../lib/gcc/arm-none-eabi/10.3.1/../../../../arm-none-eabi/lib/thumb/v7e-m+dp/hard\libcr_c.a(_fflush.o)
 .text          0x00000000        0x0 c:/nxp/mcuxpressoide_11.6.1_8255/ide/plugins/com.nxp.mcuxpresso.tools.win32_11.6.1.202207200623/tools/bin/../lib/gcc/arm-none-eabi/10.3.1/../../../../arm-none-eabi/lib/thumb/v7e-m+dp/hard\libcr_c.a(_writebuf.o)
 .data          0x00000000        0x0 c:/nxp/mcuxpressoide_11.6.1_8255/ide/plugins/com.nxp.mcuxpresso.tools.win32_11.6.1.202207200623/tools/bin/../lib/gcc/arm-none-eabi/10.3.1/../../../../arm-none-eabi/lib/thumb/v7e-m+dp/hard\libcr_c.a(_writebuf.o)
 .bss           0x00000000        0x0 c:/nxp/mcuxpressoide_11.6.1_8255/ide/plugins/com.nxp.mcuxpresso.tools.win32_11.6.1.202207200623/tools/bin/../lib/gcc/arm-none-eabi/10.3.1/../../../../arm-none-eabi/lib/thumb/v7e-m+dp/hard\libcr_c.a(_writebuf.o)
 .text          0x00000000        0x0 c:/nxp/mcuxpressoide_11.6.1_8255/ide/plugins/com.nxp.mcuxpresso.tools.win32_11.6.1.202207200623/tools/bin/../lib/gcc/arm-none-eabi/10.3.1/../../../../arm-none-eabi/lib/thumb/v7e-m+dp/hard\libcr_c.a(_deferredlazyseek.o)
 .data          0x00000000        0x0 c:/nxp/mcuxpressoide_11.6.1_8255/ide/plugins/com.nxp.mcuxpresso.tools.win32_11.6.1.202207200623/tools/bin/../lib/gcc/arm-none-eabi/10.3.1/../../../../arm-none-eabi/lib/thumb/v7e-m+dp/hard\libcr_c.a(_deferredlazyseek.o)
 .bss           0x00000000        0x0 c:/nxp/mcuxpressoide_11.6.1_8255/ide/plugins/com.nxp.mcuxpresso.tools.win32_11.6.1.202207200623/tools/bin/../lib/gcc/arm-none-eabi/10.3.1/../../../../arm-none-eabi/lib/thumb/v7e-m+dp/hard\libcr_c.a(_deferredlazyseek.o)
 .text.__flsbuf
                0x00000000      0x140 c:/nxp/mcuxpressoide_11.6.1_8255/ide/plugins/com.nxp.mcuxpresso.tools.win32_11.6.1.202207200623/tools/bin/../lib/gcc/arm-none-eabi/10.3.1/../../../../arm-none-eabi/lib/thumb/v7e-m+dp/hard\libcr_c.a(_deferredlazyseek.o)
 .text          0x00000000        0x0 c:/nxp/mcuxpressoide_11.6.1_8255/ide/plugins/com.nxp.mcuxpresso.tools.win32_11.6.1.202207200623/tools/bin/../lib/gcc/arm-none-eabi/10.3.1/thumb/v7e-m+dp/hard\libcr_eabihelpers.a(division_64.o)
 .data          0x00000000        0x0 c:/nxp/mcuxpressoide_11.6.1_8255/ide/plugins/com.nxp.mcuxpresso.tools.win32_11.6.1.202207200623/tools/bin/../lib/gcc/arm-none-eabi/10.3.1/thumb/v7e-m+dp/hard\libcr_eabihelpers.a(division_64.o)
 .bss           0x00000000        0x0 c:/nxp/mcuxpressoide_11.6.1_8255/ide/plugins/com.nxp.mcuxpresso.tools.win32_11.6.1.202207200623/tools/bin/../lib/gcc/arm-none-eabi/10.3.1/thumb/v7e-m+dp/hard\libcr_eabihelpers.a(division_64.o)
 .text.__aeabi_division_ldivmod
                0x00000000       0x26 c:/nxp/mcuxpressoide_11.6.1_8255/ide/plugins/com.nxp.mcuxpresso.tools.win32_11.6.1.202207200623/tools/bin/../lib/gcc/arm-none-eabi/10.3.1/thumb/v7e-m+dp/hard\libcr_eabihelpers.a(division_64.o)
 .text.__aeabi_division_uldivmod
                0x00000000      0x174 c:/nxp/mcuxpressoide_11.6.1_8255/ide/plugins/com.nxp.mcuxpresso.tools.win32_11.6.1.202207200623/tools/bin/../lib/gcc/arm-none-eabi/10.3.1/thumb/v7e-m+dp/hard\libcr_eabihelpers.a(division_64.o)
 .ARM.attributes
                0x00000000       0x1e c:/nxp/mcuxpressoide_11.6.1_8255/ide/plugins/com.nxp.mcuxpresso.tools.win32_11.6.1.202207200623/tools/bin/../lib/gcc/arm-none-eabi/10.3.1/thumb/v7e-m+dp/hard\libcr_eabihelpers.a(division_64.o)
 .text          0x00000000        0x0 c:/nxp/mcuxpressoide_11.6.1_8255/ide/plugins/com.nxp.mcuxpresso.tools.win32_11.6.1.202207200623/tools/bin/../lib/gcc/arm-none-eabi/10.3.1/thumb/v7e-m+dp/hard\libcr_eabihelpers.a(division_idiv0.o)
 .data          0x00000000        0x0 c:/nxp/mcuxpressoide_11.6.1_8255/ide/plugins/com.nxp.mcuxpresso.tools.win32_11.6.1.202207200623/tools/bin/../lib/gcc/arm-none-eabi/10.3.1/thumb/v7e-m+dp/hard\libcr_eabihelpers.a(division_idiv0.o)
 .bss           0x00000000        0x0 c:/nxp/mcuxpressoide_11.6.1_8255/ide/plugins/com.nxp.mcuxpresso.tools.win32_11.6.1.202207200623/tools/bin/../lib/gcc/arm-none-eabi/10.3.1/thumb/v7e-m+dp/hard\libcr_eabihelpers.a(division_idiv0.o)
 .text.__aeabi_division_idiv0
                0x00000000        0x2 c:/nxp/mcuxpressoide_11.6.1_8255/ide/plugins/com.nxp.mcuxpresso.tools.win32_11.6.1.202207200623/tools/bin/../lib/gcc/arm-none-eabi/10.3.1/thumb/v7e-m+dp/hard\libcr_eabihelpers.a(division_idiv0.o)
 .ARM.attributes
                0x00000000       0x1e c:/nxp/mcuxpressoide_11.6.1_8255/ide/plugins/com.nxp.mcuxpresso.tools.win32_11.6.1.202207200623/tools/bin/../lib/gcc/arm-none-eabi/10.3.1/thumb/v7e-m+dp/hard\libcr_eabihelpers.a(division_idiv0.o)
 .text          0x00000000        0x0 c:/nxp/mcuxpressoide_11.6.1_8255/ide/plugins/com.nxp.mcuxpresso.tools.win32_11.6.1.202207200623/tools/bin/../lib/gcc/arm-none-eabi/10.3.1/thumb/v7e-m+dp/hard\libcr_eabihelpers.a(memcpy.o)
 .data          0x00000000        0x0 c:/nxp/mcuxpressoide_11.6.1_8255/ide/plugins/com.nxp.mcuxpresso.tools.win32_11.6.1.202207200623/tools/bin/../lib/gcc/arm-none-eabi/10.3.1/thumb/v7e-m+dp/hard\libcr_eabihelpers.a(memcpy.o)
 .bss           0x00000000        0x0 c:/nxp/mcuxpressoide_11.6.1_8255/ide/plugins/com.nxp.mcuxpresso.tools.win32_11.6.1.202207200623/tools/bin/../lib/gcc/arm-none-eabi/10.3.1/thumb/v7e-m+dp/hard\libcr_eabihelpers.a(memcpy.o)
 .text.__aeabi_memmove
                0x00000000       0x1c c:/nxp/mcuxpressoide_11.6.1_8255/ide/plugins/com.nxp.mcuxpresso.tools.win32_11.6.1.202207200623/tools/bin/../lib/gcc/arm-none-eabi/10.3.1/thumb/v7e-m+dp/hard\libcr_eabihelpers.a(memcpy.o)
 .text.__aeabi_memclr
                0x00000000        0x8 c:/nxp/mcuxpressoide_11.6.1_8255/ide/plugins/com.nxp.mcuxpresso.tools.win32_11.6.1.202207200623/tools/bin/../lib/gcc/arm-none-eabi/10.3.1/thumb/v7e-m+dp/hard\libcr_eabihelpers.a(memcpy.o)
 .text.__aeabi_memset
                0x00000000        0xa c:/nxp/mcuxpressoide_11.6.1_8255/ide/plugins/com.nxp.mcuxpresso.tools.win32_11.6.1.202207200623/tools/bin/../lib/gcc/arm-none-eabi/10.3.1/thumb/v7e-m+dp/hard\libcr_eabihelpers.a(memcpy.o)
 .text          0x00000000        0x0 c:/nxp/mcuxpressoide_11.6.1_8255/ide/plugins/com.nxp.mcuxpresso.tools.win32_11.6.1.202207200623/tools/bin/../lib/gcc/arm-none-eabi/10.3.1/../../../../arm-none-eabi/lib/thumb/v7e-m+dp/hard\libcr_nohost_nf.a(__ciob.o)
 .data          0x00000000        0x0 c:/nxp/mcuxpressoide_11.6.1_8255/ide/plugins/com.nxp.mcuxpresso.tools.win32_11.6.1.202207200623/tools/bin/../lib/gcc/arm-none-eabi/10.3.1/../../../../arm-none-eabi/lib/thumb/v7e-m+dp/hard\libcr_nohost_nf.a(__ciob.o)
 .bss           0x00000000        0x0 c:/nxp/mcuxpressoide_11.6.1_8255/ide/plugins/com.nxp.mcuxpresso.tools.win32_11.6.1.202207200623/tools/bin/../lib/gcc/arm-none-eabi/10.3.1/../../../../arm-none-eabi/lib/thumb/v7e-m+dp/hard\libcr_nohost_nf.a(__ciob.o)
 .text          0x00000000        0x0 c:/nxp/mcuxpressoide_11.6.1_8255/ide/plugins/com.nxp.mcuxpresso.tools.win32_11.6.1.202207200623/tools/bin/../lib/gcc/arm-none-eabi/10.3.1/../../../../arm-none-eabi/lib/thumb/v7e-m+dp/hard\libcr_nohost_nf.a(__sys_appexit.o)
 .data          0x00000000        0x0 c:/nxp/mcuxpressoide_11.6.1_8255/ide/plugins/com.nxp.mcuxpresso.tools.win32_11.6.1.202207200623/tools/bin/../lib/gcc/arm-none-eabi/10.3.1/../../../../arm-none-eabi/lib/thumb/v7e-m+dp/hard\libcr_nohost_nf.a(__sys_appexit.o)
 .bss           0x00000000        0x0 c:/nxp/mcuxpressoide_11.6.1_8255/ide/plugins/com.nxp.mcuxpresso.tools.win32_11.6.1.202207200623/tools/bin/../lib/gcc/arm-none-eabi/10.3.1/../../../../arm-none-eabi/lib/thumb/v7e-m+dp/hard\libcr_nohost_nf.a(__sys_appexit.o)
 .text.__sys_appexit
                0x00000000        0x2 c:/nxp/mcuxpressoide_11.6.1_8255/ide/plugins/com.nxp.mcuxpresso.tools.win32_11.6.1.202207200623/tools/bin/../lib/gcc/arm-none-eabi/10.3.1/../../../../arm-none-eabi/lib/thumb/v7e-m+dp/hard\libcr_nohost_nf.a(__sys_appexit.o)
 .comment       0x00000000       0x4a c:/nxp/mcuxpressoide_11.6.1_8255/ide/plugins/com.nxp.mcuxpresso.tools.win32_11.6.1.202207200623/tools/bin/../lib/gcc/arm-none-eabi/10.3.1/../../../../arm-none-eabi/lib/thumb/v7e-m+dp/hard\libcr_nohost_nf.a(__sys_appexit.o)
 .ARM.attributes
                0x00000000       0x32 c:/nxp/mcuxpressoide_11.6.1_8255/ide/plugins/com.nxp.mcuxpresso.tools.win32_11.6.1.202207200623/tools/bin/../lib/gcc/arm-none-eabi/10.3.1/../../../../arm-none-eabi/lib/thumb/v7e-m+dp/hard\libcr_nohost_nf.a(__sys_appexit.o)
 .text          0x00000000        0x0 c:/nxp/mcuxpressoide_11.6.1_8255/ide/plugins/com.nxp.mcuxpresso.tools.win32_11.6.1.202207200623/tools/bin/../lib/gcc/arm-none-eabi/10.3.1/../../../../arm-none-eabi/lib/thumb/v7e-m+dp/hard\libcr_nohost_nf.a(__sys_close.o)
 .data          0x00000000        0x0 c:/nxp/mcuxpressoide_11.6.1_8255/ide/plugins/com.nxp.mcuxpresso.tools.win32_11.6.1.202207200623/tools/bin/../lib/gcc/arm-none-eabi/10.3.1/../../../../arm-none-eabi/lib/thumb/v7e-m+dp/hard\libcr_nohost_nf.a(__sys_close.o)
 .bss           0x00000000        0x0 c:/nxp/mcuxpressoide_11.6.1_8255/ide/plugins/com.nxp.mcuxpresso.tools.win32_11.6.1.202207200623/tools/bin/../lib/gcc/arm-none-eabi/10.3.1/../../../../arm-none-eabi/lib/thumb/v7e-m+dp/hard\libcr_nohost_nf.a(__sys_close.o)
 .text          0x00000000        0x0 c:/nxp/mcuxpressoide_11.6.1_8255/ide/plugins/com.nxp.mcuxpresso.tools.win32_11.6.1.202207200623/tools/bin/../lib/gcc/arm-none-eabi/10.3.1/../../../../arm-none-eabi/lib/thumb/v7e-m+dp/hard\libcr_nohost_nf.a(__sys_flen.o)
 .data          0x00000000        0x0 c:/nxp/mcuxpressoide_11.6.1_8255/ide/plugins/com.nxp.mcuxpresso.tools.win32_11.6.1.202207200623/tools/bin/../lib/gcc/arm-none-eabi/10.3.1/../../../../arm-none-eabi/lib/thumb/v7e-m+dp/hard\libcr_nohost_nf.a(__sys_flen.o)
 .bss           0x00000000        0x0 c:/nxp/mcuxpressoide_11.6.1_8255/ide/plugins/com.nxp.mcuxpresso.tools.win32_11.6.1.202207200623/tools/bin/../lib/gcc/arm-none-eabi/10.3.1/../../../../arm-none-eabi/lib/thumb/v7e-m+dp/hard\libcr_nohost_nf.a(__sys_flen.o)
 .text          0x00000000        0x0 c:/nxp/mcuxpressoide_11.6.1_8255/ide/plugins/com.nxp.mcuxpresso.tools.win32_11.6.1.202207200623/tools/bin/../lib/gcc/arm-none-eabi/10.3.1/../../../../arm-none-eabi/lib/thumb/v7e-m+dp/hard\libcr_nohost_nf.a(__sys_istty.o)
 .data          0x00000000        0x0 c:/nxp/mcuxpressoide_11.6.1_8255/ide/plugins/com.nxp.mcuxpresso.tools.win32_11.6.1.202207200623/tools/bin/../lib/gcc/arm-none-eabi/10.3.1/../../../../arm-none-eabi/lib/thumb/v7e-m+dp/hard\libcr_nohost_nf.a(__sys_istty.o)
 .bss           0x00000000        0x0 c:/nxp/mcuxpressoide_11.6.1_8255/ide/plugins/com.nxp.mcuxpresso.tools.win32_11.6.1.202207200623/tools/bin/../lib/gcc/arm-none-eabi/10.3.1/../../../../arm-none-eabi/lib/thumb/v7e-m+dp/hard\libcr_nohost_nf.a(__sys_istty.o)
 .text          0x00000000        0x0 c:/nxp/mcuxpressoide_11.6.1_8255/ide/plugins/com.nxp.mcuxpresso.tools.win32_11.6.1.202207200623/tools/bin/../lib/gcc/arm-none-eabi/10.3.1/../../../../arm-none-eabi/lib/thumb/v7e-m+dp/hard\libcr_nohost_nf.a(__sys_remove.o)
 .data          0x00000000        0x0 c:/nxp/mcuxpressoide_11.6.1_8255/ide/plugins/com.nxp.mcuxpresso.tools.win32_11.6.1.202207200623/tools/bin/../lib/gcc/arm-none-eabi/10.3.1/../../../../arm-none-eabi/lib/thumb/v7e-m+dp/hard\libcr_nohost_nf.a(__sys_remove.o)
 .bss           0x00000000        0x0 c:/nxp/mcuxpressoide_11.6.1_8255/ide/plugins/com.nxp.mcuxpresso.tools.win32_11.6.1.202207200623/tools/bin/../lib/gcc/arm-none-eabi/10.3.1/../../../../arm-none-eabi/lib/thumb/v7e-m+dp/hard\libcr_nohost_nf.a(__sys_remove.o)
 .text          0x00000000        0x0 c:/nxp/mcuxpressoide_11.6.1_8255/ide/plugins/com.nxp.mcuxpresso.tools.win32_11.6.1.202207200623/tools/bin/../lib/gcc/arm-none-eabi/10.3.1/../../../../arm-none-eabi/lib/thumb/v7e-m+dp/hard\libcr_nohost_nf.a(__sys_rename.o)
 .data          0x00000000        0x0 c:/nxp/mcuxpressoide_11.6.1_8255/ide/plugins/com.nxp.mcuxpresso.tools.win32_11.6.1.202207200623/tools/bin/../lib/gcc/arm-none-eabi/10.3.1/../../../../arm-none-eabi/lib/thumb/v7e-m+dp/hard\libcr_nohost_nf.a(__sys_rename.o)
 .bss           0x00000000        0x0 c:/nxp/mcuxpressoide_11.6.1_8255/ide/plugins/com.nxp.mcuxpresso.tools.win32_11.6.1.202207200623/tools/bin/../lib/gcc/arm-none-eabi/10.3.1/../../../../arm-none-eabi/lib/thumb/v7e-m+dp/hard\libcr_nohost_nf.a(__sys_rename.o)
 .text.__sys_rename
                0x00000000        0x6 c:/nxp/mcuxpressoide_11.6.1_8255/ide/plugins/com.nxp.mcuxpresso.tools.win32_11.6.1.202207200623/tools/bin/../lib/gcc/arm-none-eabi/10.3.1/../../../../arm-none-eabi/lib/thumb/v7e-m+dp/hard\libcr_nohost_nf.a(__sys_rename.o)
 .comment       0x00000000       0x4a c:/nxp/mcuxpressoide_11.6.1_8255/ide/plugins/com.nxp.mcuxpresso.tools.win32_11.6.1.202207200623/tools/bin/../lib/gcc/arm-none-eabi/10.3.1/../../../../arm-none-eabi/lib/thumb/v7e-m+dp/hard\libcr_nohost_nf.a(__sys_rename.o)
 .ARM.attributes
                0x00000000       0x32 c:/nxp/mcuxpressoide_11.6.1_8255/ide/plugins/com.nxp.mcuxpresso.tools.win32_11.6.1.202207200623/tools/bin/../lib/gcc/arm-none-eabi/10.3.1/../../../../arm-none-eabi/lib/thumb/v7e-m+dp/hard\libcr_nohost_nf.a(__sys_rename.o)
 .text          0x00000000        0x0 c:/nxp/mcuxpressoide_11.6.1_8255/ide/plugins/com.nxp.mcuxpresso.tools.win32_11.6.1.202207200623/tools/bin/../lib/gcc/arm-none-eabi/10.3.1/../../../../arm-none-eabi/lib/thumb/v7e-m+dp/hard\libcr_nohost_nf.a(__sys_seek.o)
 .data          0x00000000        0x0 c:/nxp/mcuxpressoide_11.6.1_8255/ide/plugins/com.nxp.mcuxpresso.tools.win32_11.6.1.202207200623/tools/bin/../lib/gcc/arm-none-eabi/10.3.1/../../../../arm-none-eabi/lib/thumb/v7e-m+dp/hard\libcr_nohost_nf.a(__sys_seek.o)
 .bss           0x00000000        0x0 c:/nxp/mcuxpressoide_11.6.1_8255/ide/plugins/com.nxp.mcuxpresso.tools.win32_11.6.1.202207200623/tools/bin/../lib/gcc/arm-none-eabi/10.3.1/../../../../arm-none-eabi/lib/thumb/v7e-m+dp/hard\libcr_nohost_nf.a(__sys_seek.o)
 .text          0x00000000        0x0 c:/nxp/mcuxpressoide_11.6.1_8255/ide/plugins/com.nxp.mcuxpresso.tools.win32_11.6.1.202207200623/tools/bin/../lib/gcc/arm-none-eabi/10.3.1/../../../../arm-none-eabi/lib/thumb/v7e-m+dp/hard\libcr_nohost_nf.a(__sys_tmpnam.o)
 .data          0x00000000        0x0 c:/nxp/mcuxpressoide_11.6.1_8255/ide/plugins/com.nxp.mcuxpresso.tools.win32_11.6.1.202207200623/tools/bin/../lib/gcc/arm-none-eabi/10.3.1/../../../../arm-none-eabi/lib/thumb/v7e-m+dp/hard\libcr_nohost_nf.a(__sys_tmpnam.o)
 .bss           0x00000000        0x0 c:/nxp/mcuxpressoide_11.6.1_8255/ide/plugins/com.nxp.mcuxpresso.tools.win32_11.6.1.202207200623/tools/bin/../lib/gcc/arm-none-eabi/10.3.1/../../../../arm-none-eabi/lib/thumb/v7e-m+dp/hard\libcr_nohost_nf.a(__sys_tmpnam.o)
 .text          0x00000000        0x0 c:/nxp/mcuxpressoide_11.6.1_8255/ide/plugins/com.nxp.mcuxpresso.tools.win32_11.6.1.202207200623/tools/bin/../lib/gcc/arm-none-eabi/10.3.1/../../../../arm-none-eabi/lib/thumb/v7e-m+dp/hard\libcr_nohost_nf.a(__sys_write.o)
 .data          0x00000000        0x0 c:/nxp/mcuxpressoide_11.6.1_8255/ide/plugins/com.nxp.mcuxpresso.tools.win32_11.6.1.202207200623/tools/bin/../lib/gcc/arm-none-eabi/10.3.1/../../../../arm-none-eabi/lib/thumb/v7e-m+dp/hard\libcr_nohost_nf.a(__sys_write.o)
 .bss           0x00000000        0x0 c:/nxp/mcuxpressoide_11.6.1_8255/ide/plugins/com.nxp.mcuxpresso.tools.win32_11.6.1.202207200623/tools/bin/../lib/gcc/arm-none-eabi/10.3.1/../../../../arm-none-eabi/lib/thumb/v7e-m+dp/hard\libcr_nohost_nf.a(__sys_write.o)

Memory Configuration

Name             Origin             Length             Attributes
BOARD_FLASH      0x60000000         0x04000000         xr
SRAM_DTC         0x20000000         0x00020000         xrw
SRAM_ITC         0x00000000         0x00020000         xrw
SRAM_OC          0x20200000         0x00040000         xrw
BOARD_SDRAM      0x80000000         0x01e00000         xrw
NCACHE_REGION    0x81e00000         0x00200000         xrw
*default*        0x00000000         0xffffffff

Linker script and memory map

LOAD ./xip/evkbimxrt1050_flexspi_nor_config.o
LOAD ./xip/fsl_flexspi_nor_boot.o
LOAD ./utilities/fsl_assert.o
LOAD ./utilities/fsl_debug_console.o
LOAD ./startup/startup_mimxrt1052.o
LOAD ./source/flexspi_romapi.o
LOAD ./source/flexspi_romapi_ops.o
LOAD ./source/semihost_hardfault.o
LOAD ./drivers/fsl_cache.o
LOAD ./drivers/fsl_clock.o
LOAD ./drivers/fsl_common.o
LOAD ./drivers/fsl_common_arm.o
LOAD ./drivers/fsl_gpio.o
LOAD ./drivers/fsl_lpuart.o
LOAD ./drivers/fsl_romapi.o
LOAD ./device/system_MIMXRT1052.o
LOAD ./component/uart/fsl_adapter_lpuart.o
LOAD ./component/silicon_id/fsl_silicon_id.o
LOAD ./component/lists/fsl_component_generic_list.o
LOAD ./board/board.o
LOAD ./board/clock_config.o
LOAD ./board/dcd.o
LOAD ./board/pin_mux.o
START GROUP
LOAD c:/nxp/mcuxpressoide_11.6.1_8255/ide/plugins/com.nxp.mcuxpresso.tools.win32_11.6.1.202207200623/tools/bin/../lib/gcc/arm-none-eabi/10.3.1/../../../../arm-none-eabi/lib/thumb/v7e-m+dp/hard\libcr_nohost_nf.a
LOAD c:/nxp/mcuxpressoide_11.6.1_8255/ide/plugins/com.nxp.mcuxpresso.tools.win32_11.6.1.202207200623/tools/bin/../lib/gcc/arm-none-eabi/10.3.1/../../../../arm-none-eabi/lib/thumb/v7e-m+dp/hard\libcr_c.a
LOAD c:/nxp/mcuxpressoide_11.6.1_8255/ide/plugins/com.nxp.mcuxpresso.tools.win32_11.6.1.202207200623/tools/bin/../lib/gcc/arm-none-eabi/10.3.1/thumb/v7e-m+dp/hard\libcr_eabihelpers.a
LOAD c:/nxp/mcuxpressoide_11.6.1_8255/ide/plugins/com.nxp.mcuxpresso.tools.win32_11.6.1.202207200623/tools/bin/../lib/gcc/arm-none-eabi/10.3.1/thumb/v7e-m+dp/hard\libgcc.a
END GROUP
                0x60000000                __base_BOARD_FLASH = 0x60000000
                0x60000000                __base_Flash = 0x60000000
                0x64000000                __top_BOARD_FLASH = 0x64000000
                0x64000000                __top_Flash = 0x64000000
                0x20000000                __base_SRAM_DTC = 0x20000000
                0x20000000                __base_RAM = 0x20000000
                0x20020000                __top_SRAM_DTC = 0x20020000
                0x20020000                __top_RAM = 0x20020000
                0x00000000                __base_SRAM_ITC = 0x0
                0x00000000                __base_RAM2 = 0x0
                0x00020000                __top_SRAM_ITC = 0x20000
                0x00020000                __top_RAM2 = 0x20000
                0x20200000                __base_SRAM_OC = 0x20200000
                0x20200000                __base_RAM3 = 0x20200000
                0x20240000                __top_SRAM_OC = 0x20240000
                0x20240000                __top_RAM3 = 0x20240000
                0x80000000                __base_BOARD_SDRAM = 0x80000000
                0x80000000                __base_RAM4 = 0x80000000
                0x81e00000                __top_BOARD_SDRAM = 0x81e00000
                0x81e00000                __top_RAM4 = 0x81e00000
                0x81e00000                __base_NCACHE_REGION = 0x81e00000
                0x81e00000                __base_RAM5 = 0x81e00000
                0x82000000                __top_NCACHE_REGION = 0x82000000
                0x82000000                __top_RAM5 = 0x82000000

.boot_hdr       0x60000000     0x2000
 FILL mask 0xff
                0x60000000                __boot_hdr_start__ = ABSOLUTE (.)
 *(SORT_BY_ALIGNMENT(.boot_hdr.conf))
 .boot_hdr.conf
                0x60000000      0x200 ./xip/evkbimxrt1050_flexspi_nor_config.o
                0x60000000                hyperflash_config
                0x00001000                . = 0x1000
 *fill*         0x60000200      0xe00 ff
 *(SORT_BY_ALIGNMENT(.boot_hdr.ivt))
 .boot_hdr.ivt  0x60001000       0x20 ./xip/fsl_flexspi_nor_boot.o
                0x60001000                image_vector_table
                0x00001020                . = 0x1020
 *(SORT_BY_ALIGNMENT(.boot_hdr.boot_data))
 .boot_hdr.boot_data
                0x60001020       0x10 ./xip/fsl_flexspi_nor_boot.o
                0x60001020                g_boot_data
                0x00001030                . = 0x1030
 *(SORT_BY_ALIGNMENT(.boot_hdr.dcd_data))
                0x60001030                __boot_hdr_end__ = ABSOLUTE (.)
                0x00002000                . = 0x2000
 *fill*         0x60001030      0xfd0 ff

.text           0x60002000     0x4bc0
 FILL mask 0xff
                0x60002000                __vectors_start__ = ABSOLUTE (.)
 *(SORT_BY_ALIGNMENT(.isr_vector))
 .isr_vector    0x60002000      0x2a0 ./startup/startup_mimxrt1052.o
                0x60002000                g_pfnVectors
                0x60002000                __Vectors
                0x600022a0                . = ALIGN (0x4)
                0x600022a0                __section_table_start = .
                0x600022a0                __data_section_table = .
                0x600022a0        0x4 LONG 0x60006bc0 LOADADDR (.data)
                0x600022a4        0x4 LONG 0x20000000 ADDR (.data)
                0x600022a8        0x4 LONG 0x4 SIZEOF (.data)
                0x600022ac        0x4 LONG 0x60006bc0 LOADADDR (.data_RAM2)
                0x600022b0        0x4 LONG 0x0 ADDR (.data_RAM2)
                0x600022b4        0x4 LONG 0x0 SIZEOF (.data_RAM2)
                0x600022b8        0x4 LONG 0x60006bc0 LOADADDR (.data_RAM3)
                0x600022bc        0x4 LONG 0x20200000 ADDR (.data_RAM3)
                0x600022c0        0x4 LONG 0x0 SIZEOF (.data_RAM3)
                0x600022c4        0x4 LONG 0x60006bc0 LOADADDR (.data_RAM4)
                0x600022c8        0x4 LONG 0x80000000 ADDR (.data_RAM4)
                0x600022cc        0x4 LONG 0x0 SIZEOF (.data_RAM4)
                0x600022d0        0x4 LONG 0x60006bc0 LOADADDR (.data_RAM5)
                0x600022d4        0x4 LONG 0x81e00000 ADDR (.data_RAM5)
                0x600022d8        0x4 LONG 0x0 SIZEOF (.data_RAM5)
                0x600022dc                __data_section_table_end = .
                0x600022dc                __bss_section_table = .
                0x600022dc        0x4 LONG 0x20000004 ADDR (.bss)
                0x600022e0        0x4 LONG 0x6fc SIZEOF (.bss)
                0x600022e4        0x4 LONG 0x0 ADDR (.bss_RAM2)
                0x600022e8        0x4 LONG 0x0 SIZEOF (.bss_RAM2)
                0x600022ec        0x4 LONG 0x20200000 ADDR (.bss_RAM3)
                0x600022f0        0x4 LONG 0x0 SIZEOF (.bss_RAM3)
                0x600022f4        0x4 LONG 0x80000000 ADDR (.bss_RAM4)
                0x600022f8        0x4 LONG 0x0 SIZEOF (.bss_RAM4)
                0x600022fc        0x4 LONG 0x81e00000 ADDR (.bss_RAM5)
                0x60002300        0x4 LONG 0x0 SIZEOF (.bss_RAM5)
                0x60002304                __bss_section_table_end = .
                0x60002304                __section_table_end = .
 *(SORT_BY_ALIGNMENT(.after_vectors*))
 .after_vectors.reset
                0x60002304       0x54 ./startup/startup_mimxrt1052.o
                0x60002304                ResetISR
 .after_vectors.init_data
                0x60002358       0x1e ./startup/startup_mimxrt1052.o
                0x60002358                data_init
 .after_vectors.init_bss
                0x60002376       0x12 ./startup/startup_mimxrt1052.o
                0x60002376                bss_init
 .after_vectors
                0x60002388       0x14 ./startup/startup_mimxrt1052.o
                0x60002388                NMI_Handler
                0x6000238c                MemManage_Handler
                0x6000238e                BusFault_Handler
                0x60002390                UsageFault_Handler
                0x60002392                SVC_Handler
                0x60002394                DebugMon_Handler
                0x60002396                PendSV_Handler
                0x60002398                SysTick_Handler
                0x6000239a                PIT_DriverIRQHandler
                0x6000239a                PMU_EVENT_DriverIRQHandler
                0x6000239a                PWM4_FAULT_DriverIRQHandler
                0x6000239a                DMA13_DMA29_DriverIRQHandler
                0x6000239a                SAI3_RX_DriverIRQHandler
                0x6000239a                LPSPI4_DriverIRQHandler
                0x6000239a                SEMC_DriverIRQHandler
                0x6000239a                SPDIF_DriverIRQHandler
                0x6000239a                CCM_2_DriverIRQHandler
                0x6000239a                PWM4_3_DriverIRQHandler
                0x6000239a                FLEXRAM_DriverIRQHandler
                0x6000239a                LCDIF_DriverIRQHandler
                0x6000239a                USB_PHY1_DriverIRQHandler
                0x6000239a                GPIO3_Combined_0_15_DriverIRQHandler
                0x6000239a                DMA7_DMA23_DriverIRQHandler
                0x6000239a                BEE_DriverIRQHandler
                0x6000239a                LPI2C3_DriverIRQHandler
                0x6000239a                GPR_IRQ_DriverIRQHandler
                0x6000239a                PWM2_FAULT_DriverIRQHandler
                0x6000239a                PWM3_1_DriverIRQHandler
                0x6000239a                DMA14_DMA30_DriverIRQHandler
                0x6000239a                TMR1_DriverIRQHandler
                0x6000239a                TRNG_DriverIRQHandler
                0x6000239a                PWM3_2_DriverIRQHandler
                0x6000239a                ENET_1588_Timer_DriverIRQHandler
                0x6000239a                FLEXIO2_DriverIRQHandler
                0x6000239a                GPIO2_Combined_16_31_DriverIRQHandler
                0x6000239a                Reserved143_DriverIRQHandler
                0x6000239a                LPSPI2_DriverIRQHandler
                0x6000239a                PWM4_1_DriverIRQHandler
                0x6000239a                PWM3_3_DriverIRQHandler
                0x6000239a                DMA0_DMA16_DriverIRQHandler
                0x6000239a                IntDefaultHandler
                0x6000239a                DMA2_DMA18_DriverIRQHandler
                0x6000239a                SRC_DriverIRQHandler
                0x6000239a                GPIO1_INT4_DriverIRQHandler
                0x6000239a                Reserved144_DriverIRQHandler
                0x6000239a                USDHC1_DriverIRQHandler
                0x6000239a                ENC3_DriverIRQHandler
                0x6000239a                PWM3_FAULT_DriverIRQHandler
                0x6000239a                EWM_DriverIRQHandler
                0x6000239a                TSC_DIG_DriverIRQHandler
                0x6000239a                KPP_DriverIRQHandler
                0x6000239a                FLEXIO1_DriverIRQHandler
                0x6000239a                ENET_DriverIRQHandler
                0x6000239a                Reserved78_DriverIRQHandler
                0x6000239a                TMR4_DriverIRQHandler
                0x6000239a                ENC2_DriverIRQHandler
                0x6000239a                ADC_ETC_IRQ2_DriverIRQHandler
                0x6000239a                GPIO1_Combined_16_31_DriverIRQHandler
                0x6000239a                GPIO1_INT7_DriverIRQHandler
                0x6000239a                SAI1_DriverIRQHandler
                0x6000239a                DCDC_DriverIRQHandler
                0x6000239a                DMA12_DMA28_DriverIRQHandler
                0x6000239a                PWM4_0_DriverIRQHandler
                0x6000239a                ADC_ETC_ERROR_IRQ_DriverIRQHandler
                0x6000239a                ACMP2_DriverIRQHandler
                0x6000239a                GPIO5_Combined_0_15_DriverIRQHandler
                0x6000239a                GPIO1_INT0_DriverIRQHandler
                0x6000239a                GPIO1_INT2_DriverIRQHandler
                0x6000239a                RTWDOG_DriverIRQHandler
                0x6000239a                FLEXSPI_DriverIRQHandler
                0x6000239a                GPT2_DriverIRQHandler
                0x6000239a                USB_PHY2_DriverIRQHandler
                0x6000239a                DMA10_DMA26_DriverIRQHandler
                0x6000239a                PWM2_1_DriverIRQHandler
                0x6000239a                PWM1_1_DriverIRQHandler
                0x6000239a                PXP_DriverIRQHandler
                0x6000239a                ADC1_DriverIRQHandler
                0x6000239a                PWM1_0_DriverIRQHandler
                0x6000239a                SJC_DriverIRQHandler
                0x6000239a                DMA1_DMA17_DriverIRQHandler
                0x6000239a                ENC1_DriverIRQHandler
                0x6000239a                ENC4_DriverIRQHandler
                0x6000239a                CAN2_DriverIRQHandler
                0x6000239a                DCP_DriverIRQHandler
                0x6000239a                CTI0_ERROR_DriverIRQHandler
                0x6000239a                DMA8_DMA24_DriverIRQHandler
                0x6000239a                GPT1_DriverIRQHandler
                0x6000239a                ACMP3_DriverIRQHandler
                0x6000239a                DMA6_DMA22_DriverIRQHandler
                0x6000239a                CSU_DriverIRQHandler
                0x6000239a                GPIO1_INT5_DriverIRQHandler
                0x6000239a                TMR3_DriverIRQHandler
                0x6000239a                TMR2_DriverIRQHandler
                0x6000239a                CTI1_ERROR_DriverIRQHandler
                0x6000239a                GPIO1_Combined_0_15_DriverIRQHandler
                0x6000239a                USDHC2_DriverIRQHandler
                0x6000239a                PWM4_2_DriverIRQHandler
                0x6000239a                Reserved87_DriverIRQHandler
                0x6000239a                SAI2_DriverIRQHandler
                0x6000239a                CORE_DriverIRQHandler
                0x6000239a                WDOG1_DriverIRQHandler
                0x6000239a                DMA11_DMA27_DriverIRQHandler
                0x6000239a                CSI_DriverIRQHandler
                0x6000239a                PWM2_3_DriverIRQHandler
                0x6000239a                XBAR1_IRQ_2_3_DriverIRQHandler
                0x6000239a                SNVS_HP_WRAPPER_TZ_DriverIRQHandler
                0x6000239a                GPIO3_Combined_16_31_DriverIRQHandler
                0x6000239a                PWM1_FAULT_DriverIRQHandler
                0x6000239a                LPI2C1_DriverIRQHandler
                0x6000239a                PWM2_2_DriverIRQHandler
                0x6000239a                DMA4_DMA20_DriverIRQHandler
                0x6000239a                DMA9_DMA25_DriverIRQHandler
                0x6000239a                SNVS_HP_WRAPPER_DriverIRQHandler
                0x6000239a                XBAR1_IRQ_0_1_DriverIRQHandler
                0x6000239a                ADC_ETC_IRQ1_DriverIRQHandler
                0x6000239a                LPSPI1_DriverIRQHandler
                0x6000239a                DMA3_DMA19_DriverIRQHandler
                0x6000239a                GPIO1_INT3_DriverIRQHandler
                0x6000239a                DCP_VMI_DriverIRQHandler
                0x6000239a                LPI2C4_DriverIRQHandler
                0x6000239a                GPC_DriverIRQHandler
                0x6000239a                Reserved123_DriverIRQHandler
                0x6000239a                GPIO2_Combined_0_15_DriverIRQHandler
                0x6000239a                PWM1_2_DriverIRQHandler
                0x6000239a                USB_OTG1_DriverIRQHandler
                0x6000239a                TEMP_LOW_HIGH_DriverIRQHandler
                0x6000239a                SAI3_TX_DriverIRQHandler
                0x6000239a                WDOG2_DriverIRQHandler
                0x6000239a                Reserved68_DriverIRQHandler
                0x6000239a                PWM3_0_DriverIRQHandler
                0x6000239a                GPIO4_Combined_0_15_DriverIRQHandler
                0x6000239a                GPIO4_Combined_16_31_DriverIRQHandler
                0x6000239a                GPIO5_Combined_16_31_DriverIRQHandler
                0x6000239a                DMA5_DMA21_DriverIRQHandler
                0x6000239a                CCM_1_DriverIRQHandler
                0x6000239a                ADC2_DriverIRQHandler
                0x6000239a                Reserved115_DriverIRQHandler
                0x6000239a                TEMP_PANIC_DriverIRQHandler
                0x6000239a                ACMP4_DriverIRQHandler
                0x6000239a                DMA15_DMA31_DriverIRQHandler
                0x6000239a                LPSPI3_DriverIRQHandler
                0x6000239a                PWM1_3_DriverIRQHandler
                0x6000239a                ACMP1_DriverIRQHandler
                0x6000239a                LPI2C2_DriverIRQHandler
                0x6000239a                Reserved86_DriverIRQHandler
                0x6000239a                DMA_ERROR_DriverIRQHandler
                0x6000239a                ADC_ETC_IRQ0_DriverIRQHandler
                0x6000239a                CAN1_DriverIRQHandler
                0x6000239a                GPIO1_INT6_DriverIRQHandler
                0x6000239a                GPIO1_INT1_DriverIRQHandler
                0x6000239a                PWM2_0_DriverIRQHandler
                0x6000239a                SNVS_LP_WRAPPER_DriverIRQHandler
                0x6000239a                USB_OTG2_DriverIRQHandler
 *(SORT_BY_ALIGNMENT(.text*))
 .text.__assertion_failed
                0x6000239c       0x18 ./utilities/fsl_assert.o
                0x6000239c                __assertion_failed
 .text.DbgConsole_Init
                0x600023b4       0x74 ./utilities/fsl_debug_console.o
                0x600023b4                DbgConsole_Init
 .text.DbgConsole_Vprintf
                0x60002428       0x3c ./utilities/fsl_debug_console.o
                0x60002428                DbgConsole_Vprintf
 .text.DbgConsole_Putchar
                0x60002464       0x30 ./utilities/fsl_debug_console.o
                0x60002464                DbgConsole_Putchar
 .text.DbgConsole_PrintfFormattedData
                0x60002494      0x3e0 ./utilities/fsl_debug_console.o
 .text.FLEXSPI_NorFlash_GetConfig
                0x60002874      0x328 ./source/flexspi_romapi.o
                0x60002874                FLEXSPI_NorFlash_GetConfig
 .text.error_trap
                0x60002b9c       0x10 ./source/flexspi_romapi.o
                0x60002b9c                error_trap
 .text.app_finalize
                0x60002bac       0x10 ./source/flexspi_romapi.o
                0x60002bac                app_finalize
 .text.get_cache_status
                0x60002bbc       0x50 ./source/flexspi_romapi.o
                0x60002bbc                get_cache_status
 .text.flexspi_nor_handle_cache
                0x60002c0c      0x1d8 ./source/flexspi_romapi.o
                0x60002c0c                flexspi_nor_handle_cache
 .text.main     0x60002de4      0x1e8 ./source/flexspi_romapi.o
                0x60002de4                main
 .text.L1CACHE_InvalidateDCacheByRange
                0x60002fcc       0x68 ./drivers/fsl_cache.o
 .text.CLOCK_GetOscFreq
                0x60003034       0x30 ./drivers/fsl_clock.o
 .text.CLOCK_InitExternalClk
                0x60003064       0x6c ./drivers/fsl_clock.o
                0x60003064                CLOCK_InitExternalClk
 .text.CLOCK_SwitchOsc
                0x600030d0       0x34 ./drivers/fsl_clock.o
                0x600030d0                CLOCK_SwitchOsc
 .text.CLOCK_InitRcOsc24M
                0x60003104       0x24 ./drivers/fsl_clock.o
                0x60003104                CLOCK_InitRcOsc24M
 .text.CLOCK_InitArmPll
                0x60003128       0x68 ./drivers/fsl_clock.o
                0x60003128                CLOCK_InitArmPll
 .text.CLOCK_InitSysPll
                0x60003190       0x9c ./drivers/fsl_clock.o
                0x60003190                CLOCK_InitSysPll
 .text.CLOCK_DeinitUsb2Pll
                0x6000322c       0x18 ./drivers/fsl_clock.o
                0x6000322c                CLOCK_DeinitUsb2Pll
 .text.CLOCK_DeinitAudioPll
                0x60003244       0x1c ./drivers/fsl_clock.o
                0x60003244                CLOCK_DeinitAudioPll
 .text.CLOCK_DeinitEnetPll
                0x60003260       0x1c ./drivers/fsl_clock.o
                0x60003260                CLOCK_DeinitEnetPll
 .text.CLOCK_GetPllFreq
                0x6000327c      0x3a8 ./drivers/fsl_clock.o
                0x6000327c                CLOCK_GetPllFreq
 .text.CLOCK_InitSysPfd
                0x60003624       0x64 ./drivers/fsl_clock.o
                0x60003624                CLOCK_InitSysPfd
 .text.CLOCK_ControlGate
                0x60003688       0x60 ./drivers/fsl_lpuart.o
 .text.LPUART_GetInstance
                0x600036e8       0x4c ./drivers/fsl_lpuart.o
                0x600036e8                LPUART_GetInstance
 .text.LPUART_Init
                0x60003734      0x310 ./drivers/fsl_lpuart.o
                0x60003734                LPUART_Init
 .text.LPUART_GetDefaultConfig
                0x60003a44       0x88 ./drivers/fsl_lpuart.o
                0x60003a44                LPUART_GetDefaultConfig
 .text.LPUART_GetStatusFlags
                0x60003acc       0x38 ./drivers/fsl_lpuart.o
                0x60003acc                LPUART_GetStatusFlags
 .text.LPUART_ClearStatusFlags
                0x60003b04       0x7c ./drivers/fsl_lpuart.o
                0x60003b04                LPUART_ClearStatusFlags
 .text.LPUART_WriteBlocking
                0x60003b80       0x68 ./drivers/fsl_lpuart.o
                0x60003b80                LPUART_WriteBlocking
 .text.LPUART_ReadBlocking
                0x60003be8      0x160 ./drivers/fsl_lpuart.o
                0x60003be8                LPUART_ReadBlocking
 .text.LPUART1_DriverIRQHandler
                0x60003d48       0x28 ./drivers/fsl_lpuart.o
                0x60003d48                LPUART1_DriverIRQHandler
 .text.LPUART2_DriverIRQHandler
                0x60003d70       0x28 ./drivers/fsl_lpuart.o
                0x60003d70                LPUART2_DriverIRQHandler
 .text.LPUART3_DriverIRQHandler
                0x60003d98       0x28 ./drivers/fsl_lpuart.o
                0x60003d98                LPUART3_DriverIRQHandler
 .text.LPUART4_DriverIRQHandler
                0x60003dc0       0x28 ./drivers/fsl_lpuart.o
                0x60003dc0                LPUART4_DriverIRQHandler
 .text.LPUART5_DriverIRQHandler
                0x60003de8       0x28 ./drivers/fsl_lpuart.o
                0x60003de8                LPUART5_DriverIRQHandler
 .text.LPUART6_DriverIRQHandler
                0x60003e10       0x28 ./drivers/fsl_lpuart.o
                0x60003e10                LPUART6_DriverIRQHandler
 .text.LPUART7_DriverIRQHandler
                0x60003e38       0x28 ./drivers/fsl_lpuart.o
                0x60003e38                LPUART7_DriverIRQHandler
 .text.LPUART8_DriverIRQHandler
                0x60003e60       0x28 ./drivers/fsl_lpuart.o
                0x60003e60                LPUART8_DriverIRQHandler
 .text.ROM_FLEXSPI_NorFlash_Init
                0x60003e88       0x28 ./drivers/fsl_romapi.o
                0x60003e88                ROM_FLEXSPI_NorFlash_Init
 .text.ROM_FLEXSPI_NorFlash_ProgramPage
                0x60003eb0       0x30 ./drivers/fsl_romapi.o
                0x60003eb0                ROM_FLEXSPI_NorFlash_ProgramPage
 .text.ROM_FLEXSPI_NorFlash_Erase
                0x60003ee0       0x30 ./drivers/fsl_romapi.o
                0x60003ee0                ROM_FLEXSPI_NorFlash_Erase
 .text.ROM_FLEXSPI_NorFlash_ClearCache
                0x60003f10       0x20 ./drivers/fsl_romapi.o
                0x60003f10                ROM_FLEXSPI_NorFlash_ClearCache
 .text.SystemInit
                0x60003f30      0x144 ./device/system_MIMXRT1052.o
                0x60003f30                SystemInit
 .text.HAL_UartInitCommon
                0x60004074       0xac ./component/uart/fsl_adapter_lpuart.o
 .text.HAL_UartInit
                0x60004120       0x84 ./component/uart/fsl_adapter_lpuart.o
                0x60004120                HAL_UartInit
 .text.HAL_UartReceiveBlocking
                0x600041a4       0x6c ./component/uart/fsl_adapter_lpuart.o
                0x600041a4                HAL_UartReceiveBlocking
 .text.HAL_UartSendBlocking
                0x60004210       0x64 ./component/uart/fsl_adapter_lpuart.o
                0x60004210                HAL_UartSendBlocking
 .text.ARM_MPU_Enable
                0x60004274       0x44 ./board/board.o
 .text.ARM_MPU_Disable
                0x600042b8       0x40 ./board/board.o
 .text.CLOCK_GetMux
                0x600042f8       0x44 ./board/board.o
 .text.CLOCK_GetDiv
                0x6000433c       0x44 ./board/board.o
 .text.CLOCK_GetOscFreq
                0x60004380       0x30 ./board/board.o
 .text.BOARD_DebugConsoleSrcFreq
                0x600043b0       0x64 ./board/board.o
                0x600043b0                BOARD_DebugConsoleSrcFreq
 .text.BOARD_ConfigMPU
                0x60004414      0x324 ./board/board.o
                0x60004414                BOARD_ConfigMPU
 .text.CLOCK_SetMux
                0x60004738       0x9c ./board/clock_config.o
 .text.CLOCK_SetDiv
                0x600047d4       0x9c ./board/clock_config.o
 .text.CLOCK_ControlGate
                0x60004870       0x60 ./board/clock_config.o
 .text.CLOCK_SetXtalFreq
                0x600048d0       0x20 ./board/clock_config.o
 .text.CLOCK_SetRtcXtalFreq
                0x600048f0       0x20 ./board/clock_config.o
 .text.IOMUXC_EnableMode
                0x60004910       0x48 ./board/clock_config.o
 .text.IOMUXC_MQSConfig
                0x60004958       0x44 ./board/clock_config.o
 .text.BOARD_BootClockRUN
                0x6000499c      0x674 ./board/clock_config.o
                0x6000499c                BOARD_BootClockRUN
 .text.CLOCK_ControlGate
                0x60005010       0x60 ./board/pin_mux.o
 .text.BOARD_InitPins
                0x60005070      0x1f0 ./board/pin_mux.o
                0x60005070                BOARD_InitPins
 .text._initio  0x60005260       0x78 c:/nxp/mcuxpressoide_11.6.1_8255/ide/plugins/com.nxp.mcuxpresso.tools.win32_11.6.1.202207200623/tools/bin/../lib/gcc/arm-none-eabi/10.3.1/../../../../arm-none-eabi/lib/thumb/v7e-m+dp/hard\libcr_c.a(initio.o)
                0x60005260                _initio
 .text.fflush   0x600052d8       0x3c c:/nxp/mcuxpressoide_11.6.1_8255/ide/plugins/com.nxp.mcuxpresso.tools.win32_11.6.1.202207200623/tools/bin/../lib/gcc/arm-none-eabi/10.3.1/../../../../arm-none-eabi/lib/thumb/v7e-m+dp/hard\libcr_c.a(fflush.o)
                0x600052d8                fflush
 .text.fseek    0x60005314       0xfc c:/nxp/mcuxpressoide_11.6.1_8255/ide/plugins/com.nxp.mcuxpresso.tools.win32_11.6.1.202207200623/tools/bin/../lib/gcc/arm-none-eabi/10.3.1/../../../../arm-none-eabi/lib/thumb/v7e-m+dp/hard\libcr_c.a(fseek.o)
                0x60005314                fseek
 .text.ftell    0x60005410       0x44 c:/nxp/mcuxpressoide_11.6.1_8255/ide/plugins/com.nxp.mcuxpresso.tools.win32_11.6.1.202207200623/tools/bin/../lib/gcc/arm-none-eabi/10.3.1/../../../../arm-none-eabi/lib/thumb/v7e-m+dp/hard\libcr_c.a(ftell.o)
                0x60005410                ftell
 .text._Cwritebuf
                0x60005454       0x6c c:/nxp/mcuxpressoide_11.6.1_8255/ide/plugins/com.nxp.mcuxpresso.tools.win32_11.6.1.202207200623/tools/bin/../lib/gcc/arm-none-eabi/10.3.1/../../../../arm-none-eabi/lib/thumb/v7e-m+dp/hard\libcr_c.a(_writebuf.o)
                0x60005454                _Cwritebuf
 .text.DbgConsole_Printf
                0x600054c0       0x2c ./utilities/fsl_debug_console.o
                0x600054c0                DbgConsole_Printf
 .text.DbgConsole_PrintfPaddingCharacter
                0x600054ec       0x40 ./utilities/fsl_debug_console.o
 .text.DbgConsole_ConvertRadixNumToString
                0x6000552c       0xc2 ./utilities/fsl_debug_console.o
 .text.DMA0_DMA16_IRQHandler
                0x600055ee        0x8 ./startup/startup_mimxrt1052.o
                0x600055ee                DMA0_DMA16_IRQHandler
 .text.DMA1_DMA17_IRQHandler
                0x600055f6        0x8 ./startup/startup_mimxrt1052.o
                0x600055f6                DMA1_DMA17_IRQHandler
 .text.DMA2_DMA18_IRQHandler
                0x600055fe        0x8 ./startup/startup_mimxrt1052.o
                0x600055fe                DMA2_DMA18_IRQHandler
 .text.DMA3_DMA19_IRQHandler
                0x60005606        0x8 ./startup/startup_mimxrt1052.o
                0x60005606                DMA3_DMA19_IRQHandler
 .text.DMA4_DMA20_IRQHandler
                0x6000560e        0x8 ./startup/startup_mimxrt1052.o
                0x6000560e                DMA4_DMA20_IRQHandler
 .text.DMA5_DMA21_IRQHandler
                0x60005616        0x8 ./startup/startup_mimxrt1052.o
                0x60005616                DMA5_DMA21_IRQHandler
 .text.DMA6_DMA22_IRQHandler
                0x6000561e        0x8 ./startup/startup_mimxrt1052.o
                0x6000561e                DMA6_DMA22_IRQHandler
 .text.DMA7_DMA23_IRQHandler
                0x60005626        0x8 ./startup/startup_mimxrt1052.o
                0x60005626                DMA7_DMA23_IRQHandler
 .text.DMA8_DMA24_IRQHandler
                0x6000562e        0x8 ./startup/startup_mimxrt1052.o
                0x6000562e                DMA8_DMA24_IRQHandler
 .text.DMA9_DMA25_IRQHandler
                0x60005636        0x8 ./startup/startup_mimxrt1052.o
                0x60005636                DMA9_DMA25_IRQHandler
 .text.DMA10_DMA26_IRQHandler
                0x6000563e        0x8 ./startup/startup_mimxrt1052.o
                0x6000563e                DMA10_DMA26_IRQHandler
 .text.DMA11_DMA27_IRQHandler
                0x60005646        0x8 ./startup/startup_mimxrt1052.o
                0x60005646                DMA11_DMA27_IRQHandler
 .text.DMA12_DMA28_IRQHandler
                0x6000564e        0x8 ./startup/startup_mimxrt1052.o
                0x6000564e                DMA12_DMA28_IRQHandler
 .text.DMA13_DMA29_IRQHandler
                0x60005656        0x8 ./startup/startup_mimxrt1052.o
                0x60005656                DMA13_DMA29_IRQHandler
 .text.DMA14_DMA30_IRQHandler
                0x6000565e        0x8 ./startup/startup_mimxrt1052.o
                0x6000565e                DMA14_DMA30_IRQHandler
 .text.DMA15_DMA31_IRQHandler
                0x60005666        0x8 ./startup/startup_mimxrt1052.o
                0x60005666                DMA15_DMA31_IRQHandler
 .text.DMA_ERROR_IRQHandler
                0x6000566e        0x8 ./startup/startup_mimxrt1052.o
                0x6000566e                DMA_ERROR_IRQHandler
 .text.CTI0_ERROR_IRQHandler
                0x60005676        0x8 ./startup/startup_mimxrt1052.o
                0x60005676                CTI0_ERROR_IRQHandler
 .text.CTI1_ERROR_IRQHandler
                0x6000567e        0x8 ./startup/startup_mimxrt1052.o
                0x6000567e                CTI1_ERROR_IRQHandler
 .text.CORE_IRQHandler
                0x60005686        0x8 ./startup/startup_mimxrt1052.o
                0x60005686                CORE_IRQHandler
 .text.LPUART1_IRQHandler
                0x6000568e        0x8 ./startup/startup_mimxrt1052.o
                0x6000568e                LPUART1_IRQHandler
 .text.LPUART2_IRQHandler
                0x60005696        0x8 ./startup/startup_mimxrt1052.o
                0x60005696                LPUART2_IRQHandler
 .text.LPUART3_IRQHandler
                0x6000569e        0x8 ./startup/startup_mimxrt1052.o
                0x6000569e                LPUART3_IRQHandler
 .text.LPUART4_IRQHandler
                0x600056a6        0x8 ./startup/startup_mimxrt1052.o
                0x600056a6                LPUART4_IRQHandler
 .text.LPUART5_IRQHandler
                0x600056ae        0x8 ./startup/startup_mimxrt1052.o
                0x600056ae                LPUART5_IRQHandler
 .text.LPUART6_IRQHandler
                0x600056b6        0x8 ./startup/startup_mimxrt1052.o
                0x600056b6                LPUART6_IRQHandler
 .text.LPUART7_IRQHandler
                0x600056be        0x8 ./startup/startup_mimxrt1052.o
                0x600056be                LPUART7_IRQHandler
 .text.LPUART8_IRQHandler
                0x600056c6        0x8 ./startup/startup_mimxrt1052.o
                0x600056c6                LPUART8_IRQHandler
 .text.LPI2C1_IRQHandler
                0x600056ce        0x8 ./startup/startup_mimxrt1052.o
                0x600056ce                LPI2C1_IRQHandler
 .text.LPI2C2_IRQHandler
                0x600056d6        0x8 ./startup/startup_mimxrt1052.o
                0x600056d6                LPI2C2_IRQHandler
 .text.LPI2C3_IRQHandler
                0x600056de        0x8 ./startup/startup_mimxrt1052.o
                0x600056de                LPI2C3_IRQHandler
 .text.LPI2C4_IRQHandler
                0x600056e6        0x8 ./startup/startup_mimxrt1052.o
                0x600056e6                LPI2C4_IRQHandler
 .text.LPSPI1_IRQHandler
                0x600056ee        0x8 ./startup/startup_mimxrt1052.o
                0x600056ee                LPSPI1_IRQHandler
 .text.LPSPI2_IRQHandler
                0x600056f6        0x8 ./startup/startup_mimxrt1052.o
                0x600056f6                LPSPI2_IRQHandler
 .text.LPSPI3_IRQHandler
                0x600056fe        0x8 ./startup/startup_mimxrt1052.o
                0x600056fe                LPSPI3_IRQHandler
 .text.LPSPI4_IRQHandler
                0x60005706        0x8 ./startup/startup_mimxrt1052.o
                0x60005706                LPSPI4_IRQHandler
 .text.CAN1_IRQHandler
                0x6000570e        0x8 ./startup/startup_mimxrt1052.o
                0x6000570e                CAN1_IRQHandler
 .text.CAN2_IRQHandler
                0x60005716        0x8 ./startup/startup_mimxrt1052.o
                0x60005716                CAN2_IRQHandler
 .text.FLEXRAM_IRQHandler
                0x6000571e        0x8 ./startup/startup_mimxrt1052.o
                0x6000571e                FLEXRAM_IRQHandler
 .text.KPP_IRQHandler
                0x60005726        0x8 ./startup/startup_mimxrt1052.o
                0x60005726                KPP_IRQHandler
 .text.TSC_DIG_IRQHandler
                0x6000572e        0x8 ./startup/startup_mimxrt1052.o
                0x6000572e                TSC_DIG_IRQHandler
 .text.GPR_IRQ_IRQHandler
                0x60005736        0x8 ./startup/startup_mimxrt1052.o
                0x60005736                GPR_IRQ_IRQHandler
 .text.LCDIF_IRQHandler
                0x6000573e        0x8 ./startup/startup_mimxrt1052.o
                0x6000573e                LCDIF_IRQHandler
 .text.CSI_IRQHandler
                0x60005746        0x8 ./startup/startup_mimxrt1052.o
                0x60005746                CSI_IRQHandler
 .text.PXP_IRQHandler
                0x6000574e        0x8 ./startup/startup_mimxrt1052.o
                0x6000574e                PXP_IRQHandler
 .text.WDOG2_IRQHandler
                0x60005756        0x8 ./startup/startup_mimxrt1052.o
                0x60005756                WDOG2_IRQHandler
 .text.SNVS_HP_WRAPPER_IRQHandler
                0x6000575e        0x8 ./startup/startup_mimxrt1052.o
                0x6000575e                SNVS_HP_WRAPPER_IRQHandler
 .text.SNVS_HP_WRAPPER_TZ_IRQHandler
                0x60005766        0x8 ./startup/startup_mimxrt1052.o
                0x60005766                SNVS_HP_WRAPPER_TZ_IRQHandler
 .text.SNVS_LP_WRAPPER_IRQHandler
                0x6000576e        0x8 ./startup/startup_mimxrt1052.o
                0x6000576e                SNVS_LP_WRAPPER_IRQHandler
 .text.CSU_IRQHandler
                0x60005776        0x8 ./startup/startup_mimxrt1052.o
                0x60005776                CSU_IRQHandler
 .text.DCP_IRQHandler
                0x6000577e        0x8 ./startup/startup_mimxrt1052.o
                0x6000577e                DCP_IRQHandler
 .text.DCP_VMI_IRQHandler
                0x60005786        0x8 ./startup/startup_mimxrt1052.o
                0x60005786                DCP_VMI_IRQHandler
 .text.Reserved68_IRQHandler
                0x6000578e        0x8 ./startup/startup_mimxrt1052.o
                0x6000578e                Reserved68_IRQHandler
 .text.TRNG_IRQHandler
                0x60005796        0x8 ./startup/startup_mimxrt1052.o
                0x60005796                TRNG_IRQHandler
 .text.SJC_IRQHandler
                0x6000579e        0x8 ./startup/startup_mimxrt1052.o
                0x6000579e                SJC_IRQHandler
 .text.BEE_IRQHandler
                0x600057a6        0x8 ./startup/startup_mimxrt1052.o
                0x600057a6                BEE_IRQHandler
 .text.SAI1_IRQHandler
                0x600057ae        0x8 ./startup/startup_mimxrt1052.o
                0x600057ae                SAI1_IRQHandler
 .text.SAI2_IRQHandler
                0x600057b6        0x8 ./startup/startup_mimxrt1052.o
                0x600057b6                SAI2_IRQHandler
 .text.SAI3_RX_IRQHandler
                0x600057be        0x8 ./startup/startup_mimxrt1052.o
                0x600057be                SAI3_RX_IRQHandler
 .text.SAI3_TX_IRQHandler
                0x600057c6        0x8 ./startup/startup_mimxrt1052.o
                0x600057c6                SAI3_TX_IRQHandler
 .text.SPDIF_IRQHandler
                0x600057ce        0x8 ./startup/startup_mimxrt1052.o
                0x600057ce                SPDIF_IRQHandler
 .text.PMU_EVENT_IRQHandler
                0x600057d6        0x8 ./startup/startup_mimxrt1052.o
                0x600057d6                PMU_EVENT_IRQHandler
 .text.Reserved78_IRQHandler
                0x600057de        0x8 ./startup/startup_mimxrt1052.o
                0x600057de                Reserved78_IRQHandler
 .text.TEMP_LOW_HIGH_IRQHandler
                0x600057e6        0x8 ./startup/startup_mimxrt1052.o
                0x600057e6                TEMP_LOW_HIGH_IRQHandler
 .text.TEMP_PANIC_IRQHandler
                0x600057ee        0x8 ./startup/startup_mimxrt1052.o
                0x600057ee                TEMP_PANIC_IRQHandler
 .text.USB_PHY1_IRQHandler
                0x600057f6        0x8 ./startup/startup_mimxrt1052.o
                0x600057f6                USB_PHY1_IRQHandler
 .text.USB_PHY2_IRQHandler
                0x600057fe        0x8 ./startup/startup_mimxrt1052.o
                0x600057fe                USB_PHY2_IRQHandler
 .text.ADC1_IRQHandler
                0x60005806        0x8 ./startup/startup_mimxrt1052.o
                0x60005806                ADC1_IRQHandler
 .text.ADC2_IRQHandler
                0x6000580e        0x8 ./startup/startup_mimxrt1052.o
                0x6000580e                ADC2_IRQHandler
 .text.DCDC_IRQHandler
                0x60005816        0x8 ./startup/startup_mimxrt1052.o
                0x60005816                DCDC_IRQHandler
 .text.Reserved86_IRQHandler
                0x6000581e        0x8 ./startup/startup_mimxrt1052.o
                0x6000581e                Reserved86_IRQHandler
 .text.Reserved87_IRQHandler
                0x60005826        0x8 ./startup/startup_mimxrt1052.o
                0x60005826                Reserved87_IRQHandler
 .text.GPIO1_INT0_IRQHandler
                0x6000582e        0x8 ./startup/startup_mimxrt1052.o
                0x6000582e                GPIO1_INT0_IRQHandler
 .text.GPIO1_INT1_IRQHandler
                0x60005836        0x8 ./startup/startup_mimxrt1052.o
                0x60005836                GPIO1_INT1_IRQHandler
 .text.GPIO1_INT2_IRQHandler
                0x6000583e        0x8 ./startup/startup_mimxrt1052.o
                0x6000583e                GPIO1_INT2_IRQHandler
 .text.GPIO1_INT3_IRQHandler
                0x60005846        0x8 ./startup/startup_mimxrt1052.o
                0x60005846                GPIO1_INT3_IRQHandler
 .text.GPIO1_INT4_IRQHandler
                0x6000584e        0x8 ./startup/startup_mimxrt1052.o
                0x6000584e                GPIO1_INT4_IRQHandler
 .text.GPIO1_INT5_IRQHandler
                0x60005856        0x8 ./startup/startup_mimxrt1052.o
                0x60005856                GPIO1_INT5_IRQHandler
 .text.GPIO1_INT6_IRQHandler
                0x6000585e        0x8 ./startup/startup_mimxrt1052.o
                0x6000585e                GPIO1_INT6_IRQHandler
 .text.GPIO1_INT7_IRQHandler
                0x60005866        0x8 ./startup/startup_mimxrt1052.o
                0x60005866                GPIO1_INT7_IRQHandler
 .text.GPIO1_Combined_0_15_IRQHandler
                0x6000586e        0x8 ./startup/startup_mimxrt1052.o
                0x6000586e                GPIO1_Combined_0_15_IRQHandler
 .text.GPIO1_Combined_16_31_IRQHandler
                0x60005876        0x8 ./startup/startup_mimxrt1052.o
                0x60005876                GPIO1_Combined_16_31_IRQHandler
 .text.GPIO2_Combined_0_15_IRQHandler
                0x6000587e        0x8 ./startup/startup_mimxrt1052.o
                0x6000587e                GPIO2_Combined_0_15_IRQHandler
 .text.GPIO2_Combined_16_31_IRQHandler
                0x60005886        0x8 ./startup/startup_mimxrt1052.o
                0x60005886                GPIO2_Combined_16_31_IRQHandler
 .text.GPIO3_Combined_0_15_IRQHandler
                0x6000588e        0x8 ./startup/startup_mimxrt1052.o
                0x6000588e                GPIO3_Combined_0_15_IRQHandler
 .text.GPIO3_Combined_16_31_IRQHandler
                0x60005896        0x8 ./startup/startup_mimxrt1052.o
                0x60005896                GPIO3_Combined_16_31_IRQHandler
 .text.GPIO4_Combined_0_15_IRQHandler
                0x6000589e        0x8 ./startup/startup_mimxrt1052.o
                0x6000589e                GPIO4_Combined_0_15_IRQHandler
 .text.GPIO4_Combined_16_31_IRQHandler
                0x600058a6        0x8 ./startup/startup_mimxrt1052.o
                0x600058a6                GPIO4_Combined_16_31_IRQHandler
 .text.GPIO5_Combined_0_15_IRQHandler
                0x600058ae        0x8 ./startup/startup_mimxrt1052.o
                0x600058ae                GPIO5_Combined_0_15_IRQHandler
 .text.GPIO5_Combined_16_31_IRQHandler
                0x600058b6        0x8 ./startup/startup_mimxrt1052.o
                0x600058b6                GPIO5_Combined_16_31_IRQHandler
 .text.FLEXIO1_IRQHandler
                0x600058be        0x8 ./startup/startup_mimxrt1052.o
                0x600058be                FLEXIO1_IRQHandler
 .text.FLEXIO2_IRQHandler
                0x600058c6        0x8 ./startup/startup_mimxrt1052.o
                0x600058c6                FLEXIO2_IRQHandler
 .text.WDOG1_IRQHandler
                0x600058ce        0x8 ./startup/startup_mimxrt1052.o
                0x600058ce                WDOG1_IRQHandler
 .text.RTWDOG_IRQHandler
                0x600058d6        0x8 ./startup/startup_mimxrt1052.o
                0x600058d6                RTWDOG_IRQHandler
 .text.EWM_IRQHandler
                0x600058de        0x8 ./startup/startup_mimxrt1052.o
                0x600058de                EWM_IRQHandler
 .text.CCM_1_IRQHandler
                0x600058e6        0x8 ./startup/startup_mimxrt1052.o
                0x600058e6                CCM_1_IRQHandler
 .text.CCM_2_IRQHandler
                0x600058ee        0x8 ./startup/startup_mimxrt1052.o
                0x600058ee                CCM_2_IRQHandler
 .text.GPC_IRQHandler
                0x600058f6        0x8 ./startup/startup_mimxrt1052.o
                0x600058f6                GPC_IRQHandler
 .text.SRC_IRQHandler
                0x600058fe        0x8 ./startup/startup_mimxrt1052.o
                0x600058fe                SRC_IRQHandler
 .text.Reserved115_IRQHandler
                0x60005906        0x8 ./startup/startup_mimxrt1052.o
                0x60005906                Reserved115_IRQHandler
 .text.GPT1_IRQHandler
                0x6000590e        0x8 ./startup/startup_mimxrt1052.o
                0x6000590e                GPT1_IRQHandler
 .text.GPT2_IRQHandler
                0x60005916        0x8 ./startup/startup_mimxrt1052.o
                0x60005916                GPT2_IRQHandler
 .text.PWM1_0_IRQHandler
                0x6000591e        0x8 ./startup/startup_mimxrt1052.o
                0x6000591e                PWM1_0_IRQHandler
 .text.PWM1_1_IRQHandler
                0x60005926        0x8 ./startup/startup_mimxrt1052.o
                0x60005926                PWM1_1_IRQHandler
 .text.PWM1_2_IRQHandler
                0x6000592e        0x8 ./startup/startup_mimxrt1052.o
                0x6000592e                PWM1_2_IRQHandler
 .text.PWM1_3_IRQHandler
                0x60005936        0x8 ./startup/startup_mimxrt1052.o
                0x60005936                PWM1_3_IRQHandler
 .text.PWM1_FAULT_IRQHandler
                0x6000593e        0x8 ./startup/startup_mimxrt1052.o
                0x6000593e                PWM1_FAULT_IRQHandler
 .text.Reserved123_IRQHandler
                0x60005946        0x8 ./startup/startup_mimxrt1052.o
                0x60005946                Reserved123_IRQHandler
 .text.FLEXSPI_IRQHandler
                0x6000594e        0x8 ./startup/startup_mimxrt1052.o
                0x6000594e                FLEXSPI_IRQHandler
 .text.SEMC_IRQHandler
                0x60005956        0x8 ./startup/startup_mimxrt1052.o
                0x60005956                SEMC_IRQHandler
 .text.USDHC1_IRQHandler
                0x6000595e        0x8 ./startup/startup_mimxrt1052.o
                0x6000595e                USDHC1_IRQHandler
 .text.USDHC2_IRQHandler
                0x60005966        0x8 ./startup/startup_mimxrt1052.o
                0x60005966                USDHC2_IRQHandler
 .text.USB_OTG2_IRQHandler
                0x6000596e        0x8 ./startup/startup_mimxrt1052.o
                0x6000596e                USB_OTG2_IRQHandler
 .text.USB_OTG1_IRQHandler
                0x60005976        0x8 ./startup/startup_mimxrt1052.o
                0x60005976                USB_OTG1_IRQHandler
 .text.ENET_IRQHandler
                0x6000597e        0x8 ./startup/startup_mimxrt1052.o
                0x6000597e                ENET_IRQHandler
 .text.ENET_1588_Timer_IRQHandler
                0x60005986        0x8 ./startup/startup_mimxrt1052.o
                0x60005986                ENET_1588_Timer_IRQHandler
 .text.XBAR1_IRQ_0_1_IRQHandler
                0x6000598e        0x8 ./startup/startup_mimxrt1052.o
                0x6000598e                XBAR1_IRQ_0_1_IRQHandler
 .text.XBAR1_IRQ_2_3_IRQHandler
                0x60005996        0x8 ./startup/startup_mimxrt1052.o
                0x60005996                XBAR1_IRQ_2_3_IRQHandler
 .text.ADC_ETC_IRQ0_IRQHandler
                0x6000599e        0x8 ./startup/startup_mimxrt1052.o
                0x6000599e                ADC_ETC_IRQ0_IRQHandler
 .text.ADC_ETC_IRQ1_IRQHandler
                0x600059a6        0x8 ./startup/startup_mimxrt1052.o
                0x600059a6                ADC_ETC_IRQ1_IRQHandler
 .text.ADC_ETC_IRQ2_IRQHandler
                0x600059ae        0x8 ./startup/startup_mimxrt1052.o
                0x600059ae                ADC_ETC_IRQ2_IRQHandler
 .text.ADC_ETC_ERROR_IRQ_IRQHandler
                0x600059b6        0x8 ./startup/startup_mimxrt1052.o
                0x600059b6                ADC_ETC_ERROR_IRQ_IRQHandler
 .text.PIT_IRQHandler
                0x600059be        0x8 ./startup/startup_mimxrt1052.o
                0x600059be                PIT_IRQHandler
 .text.ACMP1_IRQHandler
                0x600059c6        0x8 ./startup/startup_mimxrt1052.o
                0x600059c6                ACMP1_IRQHandler
 .text.ACMP2_IRQHandler
                0x600059ce        0x8 ./startup/startup_mimxrt1052.o
                0x600059ce                ACMP2_IRQHandler
 .text.ACMP3_IRQHandler
                0x600059d6        0x8 ./startup/startup_mimxrt1052.o
                0x600059d6                ACMP3_IRQHandler
 .text.ACMP4_IRQHandler
                0x600059de        0x8 ./startup/startup_mimxrt1052.o
                0x600059de                ACMP4_IRQHandler
 .text.Reserved143_IRQHandler
                0x600059e6        0x8 ./startup/startup_mimxrt1052.o
                0x600059e6                Reserved143_IRQHandler
 .text.Reserved144_IRQHandler
                0x600059ee        0x8 ./startup/startup_mimxrt1052.o
                0x600059ee                Reserved144_IRQHandler
 .text.ENC1_IRQHandler
                0x600059f6        0x8 ./startup/startup_mimxrt1052.o
                0x600059f6                ENC1_IRQHandler
 .text.ENC2_IRQHandler
                0x600059fe        0x8 ./startup/startup_mimxrt1052.o
                0x600059fe                ENC2_IRQHandler
 .text.ENC3_IRQHandler
                0x60005a06        0x8 ./startup/startup_mimxrt1052.o
                0x60005a06                ENC3_IRQHandler
 .text.ENC4_IRQHandler
                0x60005a0e        0x8 ./startup/startup_mimxrt1052.o
                0x60005a0e                ENC4_IRQHandler
 .text.TMR1_IRQHandler
                0x60005a16        0x8 ./startup/startup_mimxrt1052.o
                0x60005a16                TMR1_IRQHandler
 .text.TMR2_IRQHandler
                0x60005a1e        0x8 ./startup/startup_mimxrt1052.o
                0x60005a1e                TMR2_IRQHandler
 .text.TMR3_IRQHandler
                0x60005a26        0x8 ./startup/startup_mimxrt1052.o
                0x60005a26                TMR3_IRQHandler
 .text.TMR4_IRQHandler
                0x60005a2e        0x8 ./startup/startup_mimxrt1052.o
                0x60005a2e                TMR4_IRQHandler
 .text.PWM2_0_IRQHandler
                0x60005a36        0x8 ./startup/startup_mimxrt1052.o
                0x60005a36                PWM2_0_IRQHandler
 .text.PWM2_1_IRQHandler
                0x60005a3e        0x8 ./startup/startup_mimxrt1052.o
                0x60005a3e                PWM2_1_IRQHandler
 .text.PWM2_2_IRQHandler
                0x60005a46        0x8 ./startup/startup_mimxrt1052.o
                0x60005a46                PWM2_2_IRQHandler
 .text.PWM2_3_IRQHandler
                0x60005a4e        0x8 ./startup/startup_mimxrt1052.o
                0x60005a4e                PWM2_3_IRQHandler
 .text.PWM2_FAULT_IRQHandler
                0x60005a56        0x8 ./startup/startup_mimxrt1052.o
                0x60005a56                PWM2_FAULT_IRQHandler
 .text.PWM3_0_IRQHandler
                0x60005a5e        0x8 ./startup/startup_mimxrt1052.o
                0x60005a5e                PWM3_0_IRQHandler
 .text.PWM3_1_IRQHandler
                0x60005a66        0x8 ./startup/startup_mimxrt1052.o
                0x60005a66                PWM3_1_IRQHandler
 .text.PWM3_2_IRQHandler
                0x60005a6e        0x8 ./startup/startup_mimxrt1052.o
                0x60005a6e                PWM3_2_IRQHandler
 .text.PWM3_3_IRQHandler
                0x60005a76        0x8 ./startup/startup_mimxrt1052.o
                0x60005a76                PWM3_3_IRQHandler
 .text.PWM3_FAULT_IRQHandler
                0x60005a7e        0x8 ./startup/startup_mimxrt1052.o
                0x60005a7e                PWM3_FAULT_IRQHandler
 .text.PWM4_0_IRQHandler
                0x60005a86        0x8 ./startup/startup_mimxrt1052.o
                0x60005a86                PWM4_0_IRQHandler
 .text.PWM4_1_IRQHandler
                0x60005a8e        0x8 ./startup/startup_mimxrt1052.o
                0x60005a8e                PWM4_1_IRQHandler
 .text.PWM4_2_IRQHandler
                0x60005a96        0x8 ./startup/startup_mimxrt1052.o
                0x60005a96                PWM4_2_IRQHandler
 .text.PWM4_3_IRQHandler
                0x60005a9e        0x8 ./startup/startup_mimxrt1052.o
                0x60005a9e                PWM4_3_IRQHandler
 .text.PWM4_FAULT_IRQHandler
                0x60005aa6        0x8 ./startup/startup_mimxrt1052.o
                0x60005aa6                PWM4_FAULT_IRQHandler
 .text.HardFault_Handler
                0x60005aae       0x2c ./source/semihost_hardfault.o
                0x60005aae                HardFault_Handler
 .text.DCACHE_InvalidateByRange
                0x60005ada       0x1a ./drivers/fsl_cache.o
                0x60005ada                DCACHE_InvalidateByRange
 .text.CLOCK_IsPllBypassed
                0x60005af4       0x32 ./drivers/fsl_clock.o
 .text.CLOCK_IsPllEnabled
                0x60005b26       0x3c ./drivers/fsl_clock.o
 .text.CLOCK_GetPllBypassRefClk
                0x60005b62       0x34 ./drivers/fsl_clock.o
 .text._SDK_AtomicLocalClearAndSet4Byte
                0x60005b96       0x50 ./drivers/fsl_lpuart.o
 .text.CLOCK_EnableClock
                0x60005be6       0x1e ./drivers/fsl_lpuart.o
 .text.LPUART_SoftwareReset
                0x60005c04       0x2c ./drivers/fsl_lpuart.o
 .text.SystemInitHook
                0x60005c30        0xe ./device/system_MIMXRT1052.o
                0x60005c30                SystemInitHook
 .text.HAL_UartGetStatus
                0x60005c3e       0x28 ./component/uart/fsl_adapter_lpuart.o
 .text.BOARD_InitDebugConsole
                0x60005c66       0x22 ./board/board.o
                0x60005c66                BOARD_InitDebugConsole
 .text._SDK_AtomicLocalClearAndSet4Byte
                0x60005c88       0x50 ./board/clock_config.o
 .text.CLOCK_DisableClock
                0x60005cd8       0x1e ./board/clock_config.o
 .text.CLOCK_SetPllBypass
                0x60005cf6       0x4e ./board/clock_config.o
 .text.IOMUXC_SetSaiMClkClockSource
                0x60005d44       0x6c ./board/clock_config.o
 .text.BOARD_InitBootClocks
                0x60005db0        0xc ./board/clock_config.o
                0x60005db0                BOARD_InitBootClocks
 .text._SDK_AtomicLocalClearAndSet4Byte
                0x60005dbc       0x50 ./board/pin_mux.o
 .text.CLOCK_EnableClock
                0x60005e0c       0x1e ./board/pin_mux.o
 .text.IOMUXC_SetPinMux
                0x60005e2a       0x3a ./board/pin_mux.o
 .text.IOMUXC_SetPinConfig
                0x60005e64       0x26 ./board/pin_mux.o
 .text.BOARD_InitBootPins
                0x60005e8a        0xc ./board/pin_mux.o
                0x60005e8a                BOARD_InitBootPins
 .text.__main   0x60005e96        0xe c:/nxp/mcuxpressoide_11.6.1_8255/ide/plugins/com.nxp.mcuxpresso.tools.win32_11.6.1.202207200623/tools/bin/../lib/gcc/arm-none-eabi/10.3.1/../../../../arm-none-eabi/lib/thumb/v7e-m+dp/hard\libcr_nohost_nf.a(_cr__main.o)
                0x60005e96                __main
 .text.memcpy   0x60005ea4        0x4 c:/nxp/mcuxpressoide_11.6.1_8255/ide/plugins/com.nxp.mcuxpresso.tools.win32_11.6.1.202207200623/tools/bin/../lib/gcc/arm-none-eabi/10.3.1/../../../../arm-none-eabi/lib/thumb/v7e-m+dp/hard\libcr_c.a(memcpy.o)
                0x60005ea4                memcpy
 .text.memset   0x60005ea8        0x4 c:/nxp/mcuxpressoide_11.6.1_8255/ide/plugins/com.nxp.mcuxpresso.tools.win32_11.6.1.202207200623/tools/bin/../lib/gcc/arm-none-eabi/10.3.1/../../../../arm-none-eabi/lib/thumb/v7e-m+dp/hard\libcr_c.a(memset.o)
                0x60005ea8                memset
 .text.free     0x60005eac       0x30 c:/nxp/mcuxpressoide_11.6.1_8255/ide/plugins/com.nxp.mcuxpresso.tools.win32_11.6.1.202207200623/tools/bin/../lib/gcc/arm-none-eabi/10.3.1/../../../../arm-none-eabi/lib/thumb/v7e-m+dp/hard\libcr_c.a(alloc.o)
                0x60005eac                free
 .text.memcmp   0x60005edc       0x40 c:/nxp/mcuxpressoide_11.6.1_8255/ide/plugins/com.nxp.mcuxpresso.tools.win32_11.6.1.202207200623/tools/bin/../lib/gcc/arm-none-eabi/10.3.1/../../../../arm-none-eabi/lib/thumb/v7e-m+dp/hard\libcr_c.a(memcmp.o)
                0x60005edc                memcmp
 .text.setvbuf  0x60005f1c       0x3e c:/nxp/mcuxpressoide_11.6.1_8255/ide/plugins/com.nxp.mcuxpresso.tools.win32_11.6.1.202207200623/tools/bin/../lib/gcc/arm-none-eabi/10.3.1/../../../../arm-none-eabi/lib/thumb/v7e-m+dp/hard\libcr_c.a(setvbuf.o)
                0x60005f1c                setvbuf
 .text.strlen   0x60005f5a       0x48 c:/nxp/mcuxpressoide_11.6.1_8255/ide/plugins/com.nxp.mcuxpresso.tools.win32_11.6.1.202207200623/tools/bin/../lib/gcc/arm-none-eabi/10.3.1/../../../../arm-none-eabi/lib/thumb/v7e-m+dp/hard\libcr_c.a(strlen.o)
                0x60005f5a                strlen
 .text._fdopen  0x60005fa2       0x68 c:/nxp/mcuxpressoide_11.6.1_8255/ide/plugins/com.nxp.mcuxpresso.tools.win32_11.6.1.202207200623/tools/bin/../lib/gcc/arm-none-eabi/10.3.1/../../../../arm-none-eabi/lib/thumb/v7e-m+dp/hard\libcr_c.a(_fdopen.o)
                0x60005fa2                _fdopen
 .text.fclose   0x6000600a       0x58 c:/nxp/mcuxpressoide_11.6.1_8255/ide/plugins/com.nxp.mcuxpresso.tools.win32_11.6.1.202207200623/tools/bin/../lib/gcc/arm-none-eabi/10.3.1/../../../../arm-none-eabi/lib/thumb/v7e-m+dp/hard\libcr_c.a(fclose.o)
                0x6000600a                fclose
 .text.remove   0x60006062       0x14 c:/nxp/mcuxpressoide_11.6.1_8255/ide/plugins/com.nxp.mcuxpresso.tools.win32_11.6.1.202207200623/tools/bin/../lib/gcc/arm-none-eabi/10.3.1/../../../../arm-none-eabi/lib/thumb/v7e-m+dp/hard\libcr_c.a(remove.o)
                0x60006062                remove
 .text._do_fflush
                0x60006076       0x40 c:/nxp/mcuxpressoide_11.6.1_8255/ide/plugins/com.nxp.mcuxpresso.tools.win32_11.6.1.202207200623/tools/bin/../lib/gcc/arm-none-eabi/10.3.1/../../../../arm-none-eabi/lib/thumb/v7e-m+dp/hard\libcr_c.a(_do_fflush.o)
                0x60006076                _do_fflush
 .text._fflush  0x600060b6       0x52 c:/nxp/mcuxpressoide_11.6.1_8255/ide/plugins/com.nxp.mcuxpresso.tools.win32_11.6.1.202207200623/tools/bin/../lib/gcc/arm-none-eabi/10.3.1/../../../../arm-none-eabi/lib/thumb/v7e-m+dp/hard\libcr_c.a(_fflush.o)
                0x600060b6                _fflush
 .text._deferredlazyseek
                0x60006108       0x40 c:/nxp/mcuxpressoide_11.6.1_8255/ide/plugins/com.nxp.mcuxpresso.tools.win32_11.6.1.202207200623/tools/bin/../lib/gcc/arm-none-eabi/10.3.1/../../../../arm-none-eabi/lib/thumb/v7e-m+dp/hard\libcr_c.a(_deferredlazyseek.o)
                0x60006108                _deferredlazyseek
 .text.__aeabi_memcpy
                0x60006148       0x34 c:/nxp/mcuxpressoide_11.6.1_8255/ide/plugins/com.nxp.mcuxpresso.tools.win32_11.6.1.202207200623/tools/bin/../lib/gcc/arm-none-eabi/10.3.1/thumb/v7e-m+dp/hard\libcr_eabihelpers.a(memcpy.o)
                0x60006148                __aeabi_memcpy
                0x60006152                __aeabi_memcpy8
                0x60006152                __aeabi_memcpy4
 .text.__aeabi_memset_lowlevel
                0x6000617c       0x32 c:/nxp/mcuxpressoide_11.6.1_8255/ide/plugins/com.nxp.mcuxpresso.tools.win32_11.6.1.202207200623/tools/bin/../lib/gcc/arm-none-eabi/10.3.1/thumb/v7e-m+dp/hard\libcr_eabihelpers.a(memcpy.o)
                0x6000617c                __aeabi_lowlevel_memset
 .text.__sys_close
                0x600061ae        0x6 c:/nxp/mcuxpressoide_11.6.1_8255/ide/plugins/com.nxp.mcuxpresso.tools.win32_11.6.1.202207200623/tools/bin/../lib/gcc/arm-none-eabi/10.3.1/../../../../arm-none-eabi/lib/thumb/v7e-m+dp/hard\libcr_nohost_nf.a(__sys_close.o)
                0x600061ae                __sys_close
 .text.__sys_flen
                0x600061b4        0x6 c:/nxp/mcuxpressoide_11.6.1_8255/ide/plugins/com.nxp.mcuxpresso.tools.win32_11.6.1.202207200623/tools/bin/../lib/gcc/arm-none-eabi/10.3.1/../../../../arm-none-eabi/lib/thumb/v7e-m+dp/hard\libcr_nohost_nf.a(__sys_flen.o)
                0x600061b4                __sys_flen
 .text.__sys_istty
                0x600061ba        0x6 c:/nxp/mcuxpressoide_11.6.1_8255/ide/plugins/com.nxp.mcuxpresso.tools.win32_11.6.1.202207200623/tools/bin/../lib/gcc/arm-none-eabi/10.3.1/../../../../arm-none-eabi/lib/thumb/v7e-m+dp/hard\libcr_nohost_nf.a(__sys_istty.o)
                0x600061ba                __sys_istty
 .text.__sys_remove
                0x600061c0        0x6 c:/nxp/mcuxpressoide_11.6.1_8255/ide/plugins/com.nxp.mcuxpresso.tools.win32_11.6.1.202207200623/tools/bin/../lib/gcc/arm-none-eabi/10.3.1/../../../../arm-none-eabi/lib/thumb/v7e-m+dp/hard\libcr_nohost_nf.a(__sys_remove.o)
                0x600061c0                __sys_remove
 .text.__sys_seek
                0x600061c6        0x6 c:/nxp/mcuxpressoide_11.6.1_8255/ide/plugins/com.nxp.mcuxpresso.tools.win32_11.6.1.202207200623/tools/bin/../lib/gcc/arm-none-eabi/10.3.1/../../../../arm-none-eabi/lib/thumb/v7e-m+dp/hard\libcr_nohost_nf.a(__sys_seek.o)
                0x600061c6                __sys_seek
 .text.__sys_tmpnam
                0x600061cc        0x6 c:/nxp/mcuxpressoide_11.6.1_8255/ide/plugins/com.nxp.mcuxpresso.tools.win32_11.6.1.202207200623/tools/bin/../lib/gcc/arm-none-eabi/10.3.1/../../../../arm-none-eabi/lib/thumb/v7e-m+dp/hard\libcr_nohost_nf.a(__sys_tmpnam.o)
                0x600061cc                __sys_tmpnam
 .text.__sys_write
                0x600061d2        0x4 c:/nxp/mcuxpressoide_11.6.1_8255/ide/plugins/com.nxp.mcuxpresso.tools.win32_11.6.1.202207200623/tools/bin/../lib/gcc/arm-none-eabi/10.3.1/../../../../arm-none-eabi/lib/thumb/v7e-m+dp/hard\libcr_nohost_nf.a(__sys_write.o)
                0x600061d2                __sys_write
 *(SORT_BY_ALIGNMENT(.rodata) SORT_BY_ALIGNMENT(.rodata.*) SORT_BY_ALIGNMENT(.constdata) SORT_BY_ALIGNMENT(.constdata.*))
 *fill*         0x600061d6        0x2 ff
 .rodata.__assertion_failed.str1.4
                0x600061d8       0x14 ./utilities/fsl_assert.o
 .rodata.error_trap.str1.4
                0x600061ec       0x32 ./source/flexspi_romapi.o
 *fill*         0x6000621e        0x2 ff
 .rodata.app_finalize.str1.4
                0x60006220       0x22 ./source/flexspi_romapi.o
 *fill*         0x60006242        0x2 ff
 .rodata.main.str1.4
                0x60006244      0x281 ./source/flexspi_romapi.o
 *fill*         0x600064c5        0x3 ff
 .rodata.CLOCK_InitExternalClk.str1.4
                0x600064c8       0x21 ./drivers/fsl_clock.o
 *fill*         0x600064e9        0x3 ff
 .rodata.CLOCK_GetPllFreq.str1.4
                0x600064ec       0x6d ./drivers/fsl_clock.o
 *fill*         0x60006559        0x3 ff
 .rodata.enetRefClkFreq.1
                0x6000655c       0x10 ./drivers/fsl_clock.o
 .rodata.CLOCK_ControlGate.str1.4
                0x6000656c       0x20 ./drivers/fsl_lpuart.o
 .rodata.s_lpuartBases
                0x6000658c       0x24 ./drivers/fsl_lpuart.o
 .rodata.s_lpuartClock
                0x600065b0       0x12 ./drivers/fsl_lpuart.o
 *fill*         0x600065c2        0x2 ff
 .rodata.LPUART_GetInstance.str1.4
                0x600065c4       0x38 ./drivers/fsl_lpuart.o
 .rodata.LPUART_Init.str1.4
                0x600065fc      0x10a ./drivers/fsl_lpuart.o
 *fill*         0x60006706        0x2 ff
 .rodata.LPUART_GetDefaultConfig.str1.4
                0x60006708       0x22 ./drivers/fsl_lpuart.o
 *fill*         0x6000672a        0x2 ff
 .rodata.LPUART_WriteBlocking.str1.4
                0x6000672c       0x20 ./drivers/fsl_lpuart.o
 .rodata.LPUART_ReadBlocking.str1.4
                0x6000674c       0x20 ./drivers/fsl_lpuart.o
 .rodata.s_LpuartAdapterBase
                0x6000676c       0x24 ./component/uart/fsl_adapter_lpuart.o
 .rodata.HAL_UartInit.str1.4
                0x60006790      0x105 ./component/uart/fsl_adapter_lpuart.o
 *fill*         0x60006895        0x3 ff
 .rodata.HAL_UartReceiveBlocking.str1.4
                0x60006898       0x7b ./component/uart/fsl_adapter_lpuart.o
 *fill*         0x60006913        0x1 ff
 .rodata.HAL_UartSendBlocking.str1.4
                0x60006914       0x7b ./component/uart/fsl_adapter_lpuart.o
 *fill*         0x6000698f        0x1 ff
 .rodata.BOARD_ConfigMPU.str1.4
                0x60006990       0x69 ./board/board.o
 *fill*         0x600069f9        0x3 ff
 .rodata.CLOCK_SetMux.str1.4
                0x600069fc       0x8e ./board/clock_config.o
 *fill*         0x60006a8a        0x2 ff
 .rodata.CLOCK_SetDiv.str1.4
                0x60006a8c       0x8e ./board/clock_config.o
 *fill*         0x60006b1a        0x2 ff
 .rodata.CLOCK_ControlGate.str1.4
                0x60006b1c       0x7d ./board/clock_config.o
 *fill*         0x60006b99        0x3 ff
 .rodata.armPllConfig_BOARD_BootClockRUN
                0x60006b9c        0x8 ./board/clock_config.o
                0x60006b9c                armPllConfig_BOARD_BootClockRUN
 .rodata.sysPllConfig_BOARD_BootClockRUN
                0x60006ba4       0x14 ./board/clock_config.o
                0x60006ba4                sysPllConfig_BOARD_BootClockRUN
 .rodata.CLOCK_ControlGate.str1.4
                0x60006bb8       0x7d ./board/pin_mux.o
 .rodata.__num_Ciob_streams
                0x60006bb8        0x4 c:/nxp/mcuxpressoide_11.6.1_8255/ide/plugins/com.nxp.mcuxpresso.tools.win32_11.6.1.202207200623/tools/bin/../lib/gcc/arm-none-eabi/10.3.1/../../../../arm-none-eabi/lib/thumb/v7e-m+dp/hard\libcr_nohost_nf.a(__ciob.o)
                0x60006bb8                __num_Ciob_streams
 .rodata._initio.str1.1
                0x60006bbc        0x4 c:/nxp/mcuxpressoide_11.6.1_8255/ide/plugins/com.nxp.mcuxpresso.tools.win32_11.6.1.202207200623/tools/bin/../lib/gcc/arm-none-eabi/10.3.1/../../../../arm-none-eabi/lib/thumb/v7e-m+dp/hard\libcr_c.a(initio.o)
                0x60006c38                . = ALIGN (0x4)
                0x60006bc0                _etext = .

.glue_7         0x60006bc0        0x0
 .glue_7        0x60006bc0        0x0 linker stubs

.glue_7t        0x60006bc0        0x0
 .glue_7t       0x60006bc0        0x0 linker stubs

.vfp11_veneer   0x60006bc0        0x0
 .vfp11_veneer  0x60006bc0        0x0 linker stubs

.v4_bx          0x60006bc0        0x0
 .v4_bx         0x60006bc0        0x0 linker stubs

.iplt           0x60006bc0        0x0
 .iplt          0x60006bc0        0x0 ./xip/fsl_flexspi_nor_boot.o

.rel.dyn        0x60006bc0        0x0
 .rel.iplt      0x60006bc0        0x0 ./xip/fsl_flexspi_nor_boot.o

.data_RAM2      0x00000000        0x0 load address 0x60006bc0
 FILL mask 0xff
                [!provide]                PROVIDE (__start_data_RAM2 = .)
                [!provide]                PROVIDE (__start_data_SRAM_ITC = .)
 *(SORT_BY_ALIGNMENT(.ramfunc.$RAM2))
 *(SORT_BY_ALIGNMENT(.ramfunc.$SRAM_ITC))
 *(SORT_BY_ALIGNMENT(.data.$RAM2))
 *(SORT_BY_ALIGNMENT(.data.$SRAM_ITC))
 *(SORT_BY_ALIGNMENT(.data.$RAM2.*))
 *(SORT_BY_ALIGNMENT(.data.$SRAM_ITC.*))
                0x00000000                . = ALIGN (0x4)
                [!provide]                PROVIDE (__end_data_RAM2 = .)
                [!provide]                PROVIDE (__end_data_SRAM_ITC = .)

.data_RAM3      0x20200000        0x0 load address 0x60006bc0
 FILL mask 0xff
                [!provide]                PROVIDE (__start_data_RAM3 = .)
                [!provide]                PROVIDE (__start_data_SRAM_OC = .)
 *(SORT_BY_ALIGNMENT(.ramfunc.$RAM3))
 *(SORT_BY_ALIGNMENT(.ramfunc.$SRAM_OC))
 *(SORT_BY_ALIGNMENT(.data.$RAM3))
 *(SORT_BY_ALIGNMENT(.data.$SRAM_OC))
 *(SORT_BY_ALIGNMENT(.data.$RAM3.*))
 *(SORT_BY_ALIGNMENT(.data.$SRAM_OC.*))
                0x20200000                . = ALIGN (0x4)
                [!provide]                PROVIDE (__end_data_RAM3 = .)
                [!provide]                PROVIDE (__end_data_SRAM_OC = .)

.data_RAM4      0x80000000        0x0 load address 0x60006bc0
 FILL mask 0xff
                [!provide]                PROVIDE (__start_data_RAM4 = .)
                [!provide]                PROVIDE (__start_data_BOARD_SDRAM = .)
 *(SORT_BY_ALIGNMENT(.ramfunc.$RAM4))
 *(SORT_BY_ALIGNMENT(.ramfunc.$BOARD_SDRAM))
 *(SORT_BY_ALIGNMENT(.data.$RAM4))
 *(SORT_BY_ALIGNMENT(.data.$BOARD_SDRAM))
 *(SORT_BY_ALIGNMENT(.data.$RAM4.*))
 *(SORT_BY_ALIGNMENT(.data.$BOARD_SDRAM.*))
                0x80000000                . = ALIGN (0x4)
                [!provide]                PROVIDE (__end_data_RAM4 = .)
                [!provide]                PROVIDE (__end_data_BOARD_SDRAM = .)

.data_RAM5      0x81e00000        0x0 load address 0x60006bc0
 FILL mask 0xff
                [!provide]                PROVIDE (__start_data_RAM5 = .)
                [!provide]                PROVIDE (__start_data_NCACHE_REGION = .)
 *(SORT_BY_ALIGNMENT(.ramfunc.$RAM5))
 *(SORT_BY_ALIGNMENT(.ramfunc.$NCACHE_REGION))
 *(SORT_BY_ALIGNMENT(.data.$RAM5))
 *(SORT_BY_ALIGNMENT(.data.$NCACHE_REGION))
 *(SORT_BY_ALIGNMENT(.data.$RAM5.*))
 *(SORT_BY_ALIGNMENT(.data.$NCACHE_REGION.*))
                0x81e00000                . = ALIGN (0x4)
                [!provide]                PROVIDE (__end_data_RAM5 = .)
                [!provide]                PROVIDE (__end_data_NCACHE_REGION = .)

.uninit_RESERVED
                0x20000000        0x0
                0x20000000                _start_uninit_RESERVED = .
 *(SORT_BY_ALIGNMENT(.bss.$RESERVED*))
                0x20000000                . = ALIGN (0x4)
                0x20000000                _end_uninit_RESERVED = .

.data           0x20000000        0x4 load address 0x60006bc0
 FILL mask 0xff
                0x20000000                _data = .
                [!provide]                PROVIDE (__start_data_RAM = .)
                [!provide]                PROVIDE (__start_data_SRAM_DTC = .)
 *(SORT_BY_ALIGNMENT(vtable))
 *(SORT_BY_ALIGNMENT(.ramfunc*))
 *(SORT_BY_ALIGNMENT(CodeQuickAccess))
 *(SORT_BY_ALIGNMENT(DataQuickAccess))
 *(SORT_BY_ALIGNMENT(RamFunction))
 *(SORT_BY_ALIGNMENT(NonCacheable.init))
 *(SORT_BY_ALIGNMENT(.data*))
 .data.SystemCoreClock
                0x20000000        0x4 ./device/system_MIMXRT1052.o
                0x20000000                SystemCoreClock
                0x20000004                . = ALIGN (0x4)
                0x20000004                _edata = .
                [!provide]                PROVIDE (__end_data_RAM = .)
                [!provide]                PROVIDE (__end_data_SRAM_DTC = .)

.igot.plt       0x20000004        0x0 load address 0x60006bc4
 .igot.plt      0x20000004        0x0 ./xip/fsl_flexspi_nor_boot.o

.bss_RAM2       0x00000000        0x0
                [!provide]                PROVIDE (__start_bss_RAM2 = .)
                [!provide]                PROVIDE (__start_bss_SRAM_ITC = .)
 *(SORT_BY_ALIGNMENT(.bss.$RAM2))
 *(SORT_BY_ALIGNMENT(.bss.$SRAM_ITC))
 *(SORT_BY_ALIGNMENT(.bss.$RAM2.*))
 *(SORT_BY_ALIGNMENT(.bss.$SRAM_ITC.*))
                0x00000000                . = ALIGN ((. != 0x0)?0x4:0x1)
                [!provide]                PROVIDE (__end_bss_RAM2 = .)
                [!provide]                PROVIDE (__end_bss_SRAM_ITC = .)

.bss_RAM3       0x20200000        0x0
                [!provide]                PROVIDE (__start_bss_RAM3 = .)
                [!provide]                PROVIDE (__start_bss_SRAM_OC = .)
 *(SORT_BY_ALIGNMENT(.bss.$RAM3))
 *(SORT_BY_ALIGNMENT(.bss.$SRAM_OC))
 *(SORT_BY_ALIGNMENT(.bss.$RAM3.*))
 *(SORT_BY_ALIGNMENT(.bss.$SRAM_OC.*))
                0x20200000                . = ALIGN ((. != 0x0)?0x4:0x1)
                [!provide]                PROVIDE (__end_bss_RAM3 = .)
                [!provide]                PROVIDE (__end_bss_SRAM_OC = .)

.bss_RAM4       0x80000000        0x0
                [!provide]                PROVIDE (__start_bss_RAM4 = .)
                [!provide]                PROVIDE (__start_bss_BOARD_SDRAM = .)
 *(SORT_BY_ALIGNMENT(.bss.$RAM4))
 *(SORT_BY_ALIGNMENT(.bss.$BOARD_SDRAM))
 *(SORT_BY_ALIGNMENT(.bss.$RAM4.*))
 *(SORT_BY_ALIGNMENT(.bss.$BOARD_SDRAM.*))
                0x80000000                . = ALIGN ((. != 0x0)?0x4:0x1)
                [!provide]                PROVIDE (__end_bss_RAM4 = .)
                [!provide]                PROVIDE (__end_bss_BOARD_SDRAM = .)

.bss_RAM5       0x81e00000        0x0
                [!provide]                PROVIDE (__start_bss_RAM5 = .)
                [!provide]                PROVIDE (__start_bss_NCACHE_REGION = .)
 *(SORT_BY_ALIGNMENT(.bss.$RAM5))
 *(SORT_BY_ALIGNMENT(.bss.$NCACHE_REGION))
 *(SORT_BY_ALIGNMENT(.bss.$RAM5.*))
 *(SORT_BY_ALIGNMENT(.bss.$NCACHE_REGION.*))
                0x81e00000                . = ALIGN ((. != 0x0)?0x4:0x1)
                [!provide]                PROVIDE (__end_bss_RAM5 = .)
                [!provide]                PROVIDE (__end_bss_NCACHE_REGION = .)

.bss            0x20000004      0x6fc
                0x20000004                _bss = .
                [!provide]                PROVIDE (__start_bss_RAM = .)
                [!provide]                PROVIDE (__start_bss_SRAM_DTC = .)
 *(SORT_BY_ALIGNMENT(NonCacheable))
 *(SORT_BY_ALIGNMENT(.bss*))
 .bss.s_debugConsole
                0x20000004       0x14 ./utilities/fsl_debug_console.o
 .bss.norConfig
                0x20000018      0x200 ./source/flexspi_romapi.o
 .bss.s_buffer  0x20000218      0x200 ./source/flexspi_romapi.o
 .bss.s_buffer_rbc
                0x20000418      0x200 ./source/flexspi_romapi.o
 .bss.g_xtalFreq
                0x20000618        0x4 ./drivers/fsl_clock.o
                0x20000618                g_xtalFreq
 .bss.g_rtcXtalFreq
                0x2000061c        0x4 ./drivers/fsl_clock.o
                0x2000061c                g_rtcXtalFreq
 .bss.s_lpuartHandle
                0x20000620       0x24 ./drivers/fsl_lpuart.o
                0x20000620                s_lpuartHandle
 .bss.s_lpuartIsr
                0x20000644        0x4 ./drivers/fsl_lpuart.o
                0x20000644                s_lpuartIsr
 .bss.errno     0x20000648        0x4 c:/nxp/mcuxpressoide_11.6.1_8255/ide/plugins/com.nxp.mcuxpresso.tools.win32_11.6.1.202207200623/tools/bin/../lib/gcc/arm-none-eabi/10.3.1/../../../../arm-none-eabi/lib/thumb/v7e-m+dp/hard\libcr_c.a(errno.o)
                0x20000648                errno
 .bss.__Ciob    0x2000064c       0xb4 c:/nxp/mcuxpressoide_11.6.1_8255/ide/plugins/com.nxp.mcuxpresso.tools.win32_11.6.1.202207200623/tools/bin/../lib/gcc/arm-none-eabi/10.3.1/../../../../arm-none-eabi/lib/thumb/v7e-m+dp/hard\libcr_nohost_nf.a(__ciob.o)
                0x2000064c                __Ciob
 *(SORT_BY_ALIGNMENT(COMMON))
                0x20000700                . = ALIGN (0x4)
                0x20000700                _ebss = .
                [!provide]                PROVIDE (__end_bss_RAM = .)
                [!provide]                PROVIDE (__end_bss_SRAM_DTC = .)
                [!provide]                PROVIDE (end = .)

.noinit_RAM2    0x00000000        0x0
                [!provide]                PROVIDE (__start_noinit_RAM2 = .)
                [!provide]                PROVIDE (__start_noinit_SRAM_ITC = .)
 *(SORT_BY_ALIGNMENT(.noinit.$RAM2))
 *(SORT_BY_ALIGNMENT(.noinit.$SRAM_ITC))
 *(SORT_BY_ALIGNMENT(.noinit.$RAM2.*))
 *(SORT_BY_ALIGNMENT(.noinit.$SRAM_ITC.*))
                0x00000000                . = ALIGN (0x4)
                [!provide]                PROVIDE (__end_noinit_RAM2 = .)
                [!provide]                PROVIDE (__end_noinit_SRAM_ITC = .)

.noinit_RAM3    0x20200000        0x0
                [!provide]                PROVIDE (__start_noinit_RAM3 = .)
                [!provide]                PROVIDE (__start_noinit_SRAM_OC = .)
 *(SORT_BY_ALIGNMENT(.noinit.$RAM3))
 *(SORT_BY_ALIGNMENT(.noinit.$SRAM_OC))
 *(SORT_BY_ALIGNMENT(.noinit.$RAM3.*))
 *(SORT_BY_ALIGNMENT(.noinit.$SRAM_OC.*))
                0x20200000                . = ALIGN (0x4)
                [!provide]                PROVIDE (__end_noinit_RAM3 = .)
                [!provide]                PROVIDE (__end_noinit_SRAM_OC = .)

.noinit_RAM4    0x80000000        0x0
                [!provide]                PROVIDE (__start_noinit_RAM4 = .)
                [!provide]                PROVIDE (__start_noinit_BOARD_SDRAM = .)
 *(SORT_BY_ALIGNMENT(.noinit.$RAM4))
 *(SORT_BY_ALIGNMENT(.noinit.$BOARD_SDRAM))
 *(SORT_BY_ALIGNMENT(.noinit.$RAM4.*))
 *(SORT_BY_ALIGNMENT(.noinit.$BOARD_SDRAM.*))
                0x80000000                . = ALIGN (0x4)
                [!provide]                PROVIDE (__end_noinit_RAM4 = .)
                [!provide]                PROVIDE (__end_noinit_BOARD_SDRAM = .)

.noinit_RAM5    0x81e00000        0x0
                [!provide]                PROVIDE (__start_noinit_RAM5 = .)
                [!provide]                PROVIDE (__start_noinit_NCACHE_REGION = .)
 *(SORT_BY_ALIGNMENT(.noinit.$RAM5))
 *(SORT_BY_ALIGNMENT(.noinit.$NCACHE_REGION))
 *(SORT_BY_ALIGNMENT(.noinit.$RAM5.*))
 *(SORT_BY_ALIGNMENT(.noinit.$NCACHE_REGION.*))
                0x81e00000                . = ALIGN (0x4)
                [!provide]                PROVIDE (__end_noinit_RAM5 = .)
                [!provide]                PROVIDE (__end_noinit_NCACHE_REGION = .)

.noinit         0x20000700        0x0
                0x20000700                _noinit = .
                [!provide]                PROVIDE (__start_noinit_RAM = .)
                [!provide]                PROVIDE (__start_noinit_SRAM_DTC = .)
 *(SORT_BY_ALIGNMENT(.noinit*))
                0x20000700                . = ALIGN (0x4)
                0x20000700                _end_noinit = .
                [!provide]                PROVIDE (__end_noinit_RAM = .)
                [!provide]                PROVIDE (__end_noinit_SRAM_DTC = .)

.ARM.extab
 *(SORT_BY_ALIGNMENT(.ARM.extab*) SORT_BY_ALIGNMENT(.gnu.linkonce.armextab.*))

.ARM.exidx      0x60006bc4        0x0
                0x60006bc4                __exidx_start = .
 *(SORT_BY_ALIGNMENT(.ARM.exidx*) SORT_BY_ALIGNMENT(.gnu.linkonce.armexidx.*))
                0x60006bc4                __exidx_end = .
                0x00001000                _HeapSize = 0x1000

.heap           0x20000700     0x1000
                0x20000700                _pvHeapStart = .
                0x20001700                . = (. + _HeapSize)
 *fill*         0x20000700     0x1000 
                0x20001700                . = ALIGN (0x4)
                0x20001700                _pvHeapLimit = .
                0x00001000                _StackSize = 0x1000

.heap2stackfill
                0x20001700     0x1000
                0x20002700                . = (. + _StackSize)
 *fill*         0x20001700     0x1000 

.stack          0x2001f000        0x0
                0x2001f000                _vStackBase = .
                0x2001f000                . = ALIGN (0x4)
                0x20020000                _vStackTop = (. + _StackSize)
                0x60002000                _image_start = LOADADDR (.text)
                0x60006bc4                _image_end = (LOADADDR (.data) + SIZEOF (.data))
                0x00004bc4                _image_size = (_image_end - _image_start)
OUTPUT(evkbimxrt1050_fsl_romapi.axf elf32-littlearm)
LOAD linker stubs

.debug_info     0x00000000     0xe0a2
 .debug_info    0x00000000      0x842 ./xip/evkbimxrt1050_flexspi_nor_config.o
 .debug_info    0x00000842      0x46a ./xip/fsl_flexspi_nor_boot.o
 .debug_info    0x00000cac       0xb1 ./utilities/fsl_assert.o
 .debug_info    0x00000d5d      0xcf2 ./utilities/fsl_debug_console.o
 .debug_info    0x00001a4f      0xdcb ./startup/startup_mimxrt1052.o
 .debug_info    0x0000281a     0x1118 ./source/flexspi_romapi.o
 .debug_info    0x00003932       0x3c ./source/semihost_hardfault.o
 .debug_info    0x0000396e      0x8aa ./drivers/fsl_cache.o
 .debug_info    0x00004218     0x24d5 ./drivers/fsl_clock.o
 .debug_info    0x000066ed     0x267c ./drivers/fsl_lpuart.o
 .debug_info    0x00008d69      0x9bf ./drivers/fsl_romapi.o
 .debug_info    0x00009728      0xc5a ./device/system_MIMXRT1052.o
 .debug_info    0x0000a382      0xaf2 ./component/uart/fsl_adapter_lpuart.o
 .debug_info    0x0000ae74      0xfaa ./board/board.o
 .debug_info    0x0000be1e     0x19ca ./board/clock_config.o
 .debug_info    0x0000d7e8      0x8ba ./board/pin_mux.o

.debug_abbrev   0x00000000     0x1e69
 .debug_abbrev  0x00000000      0x10a ./xip/evkbimxrt1050_flexspi_nor_config.o
 .debug_abbrev  0x0000010a       0xe2 ./xip/fsl_flexspi_nor_boot.o
 .debug_abbrev  0x000001ec       0x66 ./utilities/fsl_assert.o
 .debug_abbrev  0x00000252      0x24b ./utilities/fsl_debug_console.o
 .debug_abbrev  0x0000049d      0x152 ./startup/startup_mimxrt1052.o
 .debug_abbrev  0x000005ef      0x29b ./source/flexspi_romapi.o
 .debug_abbrev  0x0000088a       0x31 ./source/semihost_hardfault.o
 .debug_abbrev  0x000008bb      0x1c6 ./drivers/fsl_cache.o
 .debug_abbrev  0x00000a81      0x33b ./drivers/fsl_clock.o
 .debug_abbrev  0x00000dbc      0x468 ./drivers/fsl_lpuart.o
 .debug_abbrev  0x00001224      0x1bc ./drivers/fsl_romapi.o
 .debug_abbrev  0x000013e0      0x16e ./device/system_MIMXRT1052.o
 .debug_abbrev  0x0000154e      0x1ad ./component/uart/fsl_adapter_lpuart.o
 .debug_abbrev  0x000016fb      0x2ab ./board/board.o
 .debug_abbrev  0x000019a6      0x2b5 ./board/clock_config.o
 .debug_abbrev  0x00001c5b      0x20e ./board/pin_mux.o

.debug_aranges  0x00000000      0xc08
 .debug_aranges
                0x00000000       0x18 ./xip/evkbimxrt1050_flexspi_nor_config.o
 .debug_aranges
                0x00000018       0x18 ./xip/fsl_flexspi_nor_boot.o
 .debug_aranges
                0x00000030       0x20 ./utilities/fsl_assert.o
 .debug_aranges
                0x00000050       0x78 ./utilities/fsl_debug_console.o
 .debug_aranges
                0x000000c8      0x540 ./startup/startup_mimxrt1052.o
 .debug_aranges
                0x00000608       0x48 ./source/flexspi_romapi.o
 .debug_aranges
                0x00000650       0x20 ./source/semihost_hardfault.o
 .debug_aranges
                0x00000670       0x58 ./drivers/fsl_cache.o
 .debug_aranges
                0x000006c8      0x1b0 ./drivers/fsl_clock.o
 .debug_aranges
                0x00000878      0x188 ./drivers/fsl_lpuart.o
 .debug_aranges
                0x00000a00       0x58 ./drivers/fsl_romapi.o
 .debug_aranges
                0x00000a58       0x30 ./device/system_MIMXRT1052.o
 .debug_aranges
                0x00000a88       0x58 ./component/uart/fsl_adapter_lpuart.o
 .debug_aranges
                0x00000ae0       0x58 ./board/board.o
 .debug_aranges
                0x00000b38       0x80 ./board/clock_config.o
 .debug_aranges
                0x00000bb8       0x50 ./board/pin_mux.o

.debug_macro    0x00000000    0x2b2d8
 .debug_macro   0x00000000      0x142 ./xip/evkbimxrt1050_flexspi_nor_config.o
 .debug_macro   0x00000142      0xacc ./xip/evkbimxrt1050_flexspi_nor_config.o
 .debug_macro   0x00000c0e       0x10 ./xip/evkbimxrt1050_flexspi_nor_config.o
 .debug_macro   0x00000c1e      0x12e ./xip/evkbimxrt1050_flexspi_nor_config.o
 .debug_macro   0x00000d4c      0x5b4 ./xip/evkbimxrt1050_flexspi_nor_config.o
 .debug_macro   0x00001300       0x22 ./xip/evkbimxrt1050_flexspi_nor_config.o
 .debug_macro   0x00001322       0x16 ./xip/evkbimxrt1050_flexspi_nor_config.o
 .debug_macro   0x00001338       0x22 ./xip/evkbimxrt1050_flexspi_nor_config.o
 .debug_macro   0x0000135a       0x10 ./xip/evkbimxrt1050_flexspi_nor_config.o
 .debug_macro   0x0000136a       0x4d ./xip/evkbimxrt1050_flexspi_nor_config.o
 .debug_macro   0x000013b7       0x1c ./xip/evkbimxrt1050_flexspi_nor_config.o
 .debug_macro   0x000013d3       0x22 ./xip/evkbimxrt1050_flexspi_nor_config.o
 .debug_macro   0x000013f5       0xfb ./xip/evkbimxrt1050_flexspi_nor_config.o
 .debug_macro   0x000014f0     0x1313 ./xip/evkbimxrt1050_flexspi_nor_config.o
 .debug_macro   0x00002803      0x11f ./xip/evkbimxrt1050_flexspi_nor_config.o
 .debug_macro   0x00002922       0x22 ./xip/evkbimxrt1050_flexspi_nor_config.o
 .debug_macro   0x00002944       0x22 ./xip/evkbimxrt1050_flexspi_nor_config.o
 .debug_macro   0x00002966    0x24b4f ./xip/evkbimxrt1050_flexspi_nor_config.o
 .debug_macro   0x000274b5      0x86b ./xip/evkbimxrt1050_flexspi_nor_config.o
 .debug_macro   0x00027d20       0x7a ./xip/evkbimxrt1050_flexspi_nor_config.o
 .debug_macro   0x00027d9a       0xaf ./xip/evkbimxrt1050_flexspi_nor_config.o
 .debug_macro   0x00027e49      0x24e ./xip/evkbimxrt1050_flexspi_nor_config.o
 .debug_macro   0x00028097      0x1a4 ./xip/evkbimxrt1050_flexspi_nor_config.o
 .debug_macro   0x0002823b      0x167 ./xip/fsl_flexspi_nor_boot.o
 .debug_macro   0x000283a2      0x130 ./xip/fsl_flexspi_nor_boot.o
 .debug_macro   0x000284d2       0x10 ./xip/fsl_flexspi_nor_boot.o
 .debug_macro   0x000284e2      0x16c ./xip/fsl_flexspi_nor_boot.o
 .debug_macro   0x0002864e       0x7c ./xip/fsl_flexspi_nor_boot.o
 .debug_macro   0x000286ca      0x13e ./utilities/fsl_assert.o
 .debug_macro   0x00028808       0x1c ./utilities/fsl_assert.o
 .debug_macro   0x00028824       0x1c ./utilities/fsl_assert.o
 .debug_macro   0x00028840       0x1c ./utilities/fsl_assert.o
 .debug_macro   0x0002885c       0x34 ./utilities/fsl_assert.o
 .debug_macro   0x00028890      0x164 ./utilities/fsl_debug_console.o
 .debug_macro   0x000289f4       0x16 ./utilities/fsl_debug_console.o
 .debug_macro   0x00028a0a       0x10 ./utilities/fsl_debug_console.o
 .debug_macro   0x00028a1a       0x28 ./utilities/fsl_debug_console.o
 .debug_macro   0x00028a42       0xc4 ./utilities/fsl_debug_console.o
 .debug_macro   0x00028b06       0x16 ./utilities/fsl_debug_console.o
 .debug_macro   0x00028b1c       0x46 ./utilities/fsl_debug_console.o
 .debug_macro   0x00028b62       0x29 ./startup/startup_mimxrt1052.o
 .debug_macro   0x00028b8b      0x1c4 ./source/flexspi_romapi.o
 .debug_macro   0x00028d4f      0x1af ./source/flexspi_romapi.o
 .debug_macro   0x00028efe       0x10 ./source/flexspi_romapi.o
 .debug_macro   0x00028f0e       0x11 ./source/semihost_hardfault.o
 .debug_macro   0x00028f1f      0x13d ./drivers/fsl_cache.o
 .debug_macro   0x0002905c      0x12d ./drivers/fsl_clock.o
 .debug_macro   0x00029189      0x13c ./drivers/fsl_lpuart.o
 .debug_macro   0x000292c5       0x10 ./drivers/fsl_lpuart.o
 .debug_macro   0x000292d5      0x148 ./drivers/fsl_romapi.o
 .debug_macro   0x0002941d       0xb3 ./device/system_MIMXRT1052.o
 .debug_macro   0x000294d0      0x155 ./component/uart/fsl_adapter_lpuart.o
 .debug_macro   0x00029625       0x40 ./component/uart/fsl_adapter_lpuart.o
 .debug_macro   0x00029665      0x16c ./board/board.o
 .debug_macro   0x000297d1     0x1764 ./board/board.o
 .debug_macro   0x0002af35      0x13f ./board/clock_config.o
 .debug_macro   0x0002b074      0x12a ./board/clock_config.o
 .debug_macro   0x0002b19e      0x13a ./board/pin_mux.o

.debug_line     0x00000000     0x8084
 .debug_line    0x00000000      0x3e4 ./xip/evkbimxrt1050_flexspi_nor_config.o
 .debug_line    0x000003e4      0x452 ./xip/fsl_flexspi_nor_boot.o
 .debug_line    0x00000836      0x3ec ./utilities/fsl_assert.o
 .debug_line    0x00000c22      0xca4 ./utilities/fsl_debug_console.o
 .debug_line    0x000018c6      0xf45 ./startup/startup_mimxrt1052.o
 .debug_line    0x0000280b      0x886 ./source/flexspi_romapi.o
 .debug_line    0x00003091       0x59 ./source/semihost_hardfault.o
 .debug_line    0x000030ea      0x551 ./drivers/fsl_cache.o
 .debug_line    0x0000363b     0x11ab ./drivers/fsl_clock.o
 .debug_line    0x000047e6     0x1443 ./drivers/fsl_lpuart.o
 .debug_line    0x00005c29      0x45e ./drivers/fsl_romapi.o
 .debug_line    0x00006087      0x4fa ./device/system_MIMXRT1052.o
 .debug_line    0x00006581      0x590 ./component/uart/fsl_adapter_lpuart.o
 .debug_line    0x00006b11      0x884 ./board/board.o
 .debug_line    0x00007395      0x7f4 ./board/clock_config.o
 .debug_line    0x00007b89      0x4fb ./board/pin_mux.o

.debug_str      0x00000000   0x15a541
 .debug_str     0x00000000   0x141d73 ./xip/evkbimxrt1050_flexspi_nor_config.o
                             0x141eed (size before relaxing)
 .debug_str     0x00141d73     0x159e ./xip/fsl_flexspi_nor_boot.o
                             0x142619 (size before relaxing)
 .debug_str     0x00143311      0x1e1 ./utilities/fsl_assert.o
                             0x1408db (size before relaxing)
 .debug_str     0x001434f2      0xdd4 ./utilities/fsl_debug_console.o
                             0x142062 (size before relaxing)
 .debug_str     0x001442c6      0xdb3 ./startup/startup_mimxrt1052.o
                               0x3c46 (size before relaxing)
 .debug_str     0x00145079     0x110f ./source/flexspi_romapi.o
                             0x1439ac (size before relaxing)
 .debug_str     0x00146188       0x1f ./source/semihost_hardfault.o
                               0x2e4e (size before relaxing)
 .debug_str     0x001461a7      0x1b7 ./drivers/fsl_cache.o
                             0x140a71 (size before relaxing)
 .debug_str     0x0014635e     0x1a54 ./drivers/fsl_clock.o
                             0x142b91 (size before relaxing)
 .debug_str     0x00147db2     0x21a2 ./drivers/fsl_lpuart.o
                             0x1434f2 (size before relaxing)
 .debug_str     0x00149f54      0x39e ./drivers/fsl_romapi.o
                             0x14172c (size before relaxing)
 .debug_str     0x0014a2f2       0xbc ./device/system_MIMXRT1052.o
                             0x13dd02 (size before relaxing)
 .debug_str     0x0014a3ae      0x152 ./component/uart/fsl_adapter_lpuart.o
                             0x141ae8 (size before relaxing)
 .debug_str     0x0014a500     0xfb6d ./board/board.o
                             0x151f02 (size before relaxing)
 .debug_str     0x0015a06d      0x425 ./board/clock_config.o
                             0x15288f (size before relaxing)
 .debug_str     0x0015a492       0xaf ./board/pin_mux.o
                             0x150a05 (size before relaxing)

.comment        0x00000000       0x49
 .comment       0x00000000       0x49 ./xip/evkbimxrt1050_flexspi_nor_config.o
                                 0x4a (size before relaxing)
 .comment       0x00000049       0x4a ./xip/fsl_flexspi_nor_boot.o
 .comment       0x00000049       0x4a ./utilities/fsl_assert.o
 .comment       0x00000049       0x4a ./utilities/fsl_debug_console.o
 .comment       0x00000049       0x4a ./startup/startup_mimxrt1052.o
 .comment       0x00000049       0x4a ./source/flexspi_romapi.o
 .comment       0x00000049       0x4a ./source/semihost_hardfault.o
 .comment       0x00000049       0x4a ./drivers/fsl_cache.o
 .comment       0x00000049       0x4a ./drivers/fsl_clock.o
 .comment       0x00000049       0x4a ./drivers/fsl_lpuart.o
 .comment       0x00000049       0x4a ./drivers/fsl_romapi.o
 .comment       0x00000049       0x4a ./device/system_MIMXRT1052.o
 .comment       0x00000049       0x4a ./component/uart/fsl_adapter_lpuart.o
 .comment       0x00000049       0x4a ./board/board.o
 .comment       0x00000049       0x4a ./board/clock_config.o
 .comment       0x00000049       0x4a ./board/pin_mux.o
 .comment       0x00000049       0x4a c:/nxp/mcuxpressoide_11.6.1_8255/ide/plugins/com.nxp.mcuxpresso.tools.win32_11.6.1.202207200623/tools/bin/../lib/gcc/arm-none-eabi/10.3.1/../../../../arm-none-eabi/lib/thumb/v7e-m+dp/hard\libcr_nohost_nf.a(_cr__main.o)
 .comment       0x00000049       0x4a c:/nxp/mcuxpressoide_11.6.1_8255/ide/plugins/com.nxp.mcuxpresso.tools.win32_11.6.1.202207200623/tools/bin/../lib/gcc/arm-none-eabi/10.3.1/../../../../arm-none-eabi/lib/thumb/v7e-m+dp/hard\libcr_c.a(memcpy.o)
 .comment       0x00000049       0x4a c:/nxp/mcuxpressoide_11.6.1_8255/ide/plugins/com.nxp.mcuxpresso.tools.win32_11.6.1.202207200623/tools/bin/../lib/gcc/arm-none-eabi/10.3.1/../../../../arm-none-eabi/lib/thumb/v7e-m+dp/hard\libcr_c.a(memset.o)
 .comment       0x00000049       0x4a c:/nxp/mcuxpressoide_11.6.1_8255/ide/plugins/com.nxp.mcuxpresso.tools.win32_11.6.1.202207200623/tools/bin/../lib/gcc/arm-none-eabi/10.3.1/../../../../arm-none-eabi/lib/thumb/v7e-m+dp/hard\libcr_c.a(alloc.o)
 .comment       0x00000049       0x4a c:/nxp/mcuxpressoide_11.6.1_8255/ide/plugins/com.nxp.mcuxpresso.tools.win32_11.6.1.202207200623/tools/bin/../lib/gcc/arm-none-eabi/10.3.1/../../../../arm-none-eabi/lib/thumb/v7e-m+dp/hard\libcr_c.a(initio.o)
 .comment       0x00000049       0x4a c:/nxp/mcuxpressoide_11.6.1_8255/ide/plugins/com.nxp.mcuxpresso.tools.win32_11.6.1.202207200623/tools/bin/../lib/gcc/arm-none-eabi/10.3.1/../../../../arm-none-eabi/lib/thumb/v7e-m+dp/hard\libcr_c.a(memcmp.o)
 .comment       0x00000049       0x4a c:/nxp/mcuxpressoide_11.6.1_8255/ide/plugins/com.nxp.mcuxpresso.tools.win32_11.6.1.202207200623/tools/bin/../lib/gcc/arm-none-eabi/10.3.1/../../../../arm-none-eabi/lib/thumb/v7e-m+dp/hard\libcr_c.a(setvbuf.o)
 .comment       0x00000049       0x4a c:/nxp/mcuxpressoide_11.6.1_8255/ide/plugins/com.nxp.mcuxpresso.tools.win32_11.6.1.202207200623/tools/bin/../lib/gcc/arm-none-eabi/10.3.1/../../../../arm-none-eabi/lib/thumb/v7e-m+dp/hard\libcr_c.a(strlen.o)
 .comment       0x00000049       0x4a c:/nxp/mcuxpressoide_11.6.1_8255/ide/plugins/com.nxp.mcuxpresso.tools.win32_11.6.1.202207200623/tools/bin/../lib/gcc/arm-none-eabi/10.3.1/../../../../arm-none-eabi/lib/thumb/v7e-m+dp/hard\libcr_c.a(_fdopen.o)
 .comment       0x00000049       0x4a c:/nxp/mcuxpressoide_11.6.1_8255/ide/plugins/com.nxp.mcuxpresso.tools.win32_11.6.1.202207200623/tools/bin/../lib/gcc/arm-none-eabi/10.3.1/../../../../arm-none-eabi/lib/thumb/v7e-m+dp/hard\libcr_c.a(errno.o)
 .comment       0x00000049       0x4a c:/nxp/mcuxpressoide_11.6.1_8255/ide/plugins/com.nxp.mcuxpresso.tools.win32_11.6.1.202207200623/tools/bin/../lib/gcc/arm-none-eabi/10.3.1/../../../../arm-none-eabi/lib/thumb/v7e-m+dp/hard\libcr_c.a(fclose.o)
 .comment       0x00000049       0x4a c:/nxp/mcuxpressoide_11.6.1_8255/ide/plugins/com.nxp.mcuxpresso.tools.win32_11.6.1.202207200623/tools/bin/../lib/gcc/arm-none-eabi/10.3.1/../../../../arm-none-eabi/lib/thumb/v7e-m+dp/hard\libcr_c.a(fflush.o)
 .comment       0x00000049       0x4a c:/nxp/mcuxpressoide_11.6.1_8255/ide/plugins/com.nxp.mcuxpresso.tools.win32_11.6.1.202207200623/tools/bin/../lib/gcc/arm-none-eabi/10.3.1/../../../../arm-none-eabi/lib/thumb/v7e-m+dp/hard\libcr_c.a(fseek.o)
 .comment       0x00000049       0x4a c:/nxp/mcuxpressoide_11.6.1_8255/ide/plugins/com.nxp.mcuxpresso.tools.win32_11.6.1.202207200623/tools/bin/../lib/gcc/arm-none-eabi/10.3.1/../../../../arm-none-eabi/lib/thumb/v7e-m+dp/hard\libcr_c.a(ftell.o)
 .comment       0x00000049       0x4a c:/nxp/mcuxpressoide_11.6.1_8255/ide/plugins/com.nxp.mcuxpresso.tools.win32_11.6.1.202207200623/tools/bin/../lib/gcc/arm-none-eabi/10.3.1/../../../../arm-none-eabi/lib/thumb/v7e-m+dp/hard\libcr_c.a(remove.o)
 .comment       0x00000049       0x4a c:/nxp/mcuxpressoide_11.6.1_8255/ide/plugins/com.nxp.mcuxpresso.tools.win32_11.6.1.202207200623/tools/bin/../lib/gcc/arm-none-eabi/10.3.1/../../../../arm-none-eabi/lib/thumb/v7e-m+dp/hard\libcr_c.a(_do_fflush.o)
 .comment       0x00000049       0x4a c:/nxp/mcuxpressoide_11.6.1_8255/ide/plugins/com.nxp.mcuxpresso.tools.win32_11.6.1.202207200623/tools/bin/../lib/gcc/arm-none-eabi/10.3.1/../../../../arm-none-eabi/lib/thumb/v7e-m+dp/hard\libcr_c.a(_fflush.o)
 .comment       0x00000049       0x4a c:/nxp/mcuxpressoide_11.6.1_8255/ide/plugins/com.nxp.mcuxpresso.tools.win32_11.6.1.202207200623/tools/bin/../lib/gcc/arm-none-eabi/10.3.1/../../../../arm-none-eabi/lib/thumb/v7e-m+dp/hard\libcr_c.a(_writebuf.o)
 .comment       0x00000049       0x4a c:/nxp/mcuxpressoide_11.6.1_8255/ide/plugins/com.nxp.mcuxpresso.tools.win32_11.6.1.202207200623/tools/bin/../lib/gcc/arm-none-eabi/10.3.1/../../../../arm-none-eabi/lib/thumb/v7e-m+dp/hard\libcr_c.a(_deferredlazyseek.o)
 .comment       0x00000049       0x4a c:/nxp/mcuxpressoide_11.6.1_8255/ide/plugins/com.nxp.mcuxpresso.tools.win32_11.6.1.202207200623/tools/bin/../lib/gcc/arm-none-eabi/10.3.1/../../../../arm-none-eabi/lib/thumb/v7e-m+dp/hard\libcr_nohost_nf.a(__ciob.o)
 .comment       0x00000049       0x4a c:/nxp/mcuxpressoide_11.6.1_8255/ide/plugins/com.nxp.mcuxpresso.tools.win32_11.6.1.202207200623/tools/bin/../lib/gcc/arm-none-eabi/10.3.1/../../../../arm-none-eabi/lib/thumb/v7e-m+dp/hard\libcr_nohost_nf.a(__sys_close.o)
 .comment       0x00000049       0x4a c:/nxp/mcuxpressoide_11.6.1_8255/ide/plugins/com.nxp.mcuxpresso.tools.win32_11.6.1.202207200623/tools/bin/../lib/gcc/arm-none-eabi/10.3.1/../../../../arm-none-eabi/lib/thumb/v7e-m+dp/hard\libcr_nohost_nf.a(__sys_flen.o)
 .comment       0x00000049       0x4a c:/nxp/mcuxpressoide_11.6.1_8255/ide/plugins/com.nxp.mcuxpresso.tools.win32_11.6.1.202207200623/tools/bin/../lib/gcc/arm-none-eabi/10.3.1/../../../../arm-none-eabi/lib/thumb/v7e-m+dp/hard\libcr_nohost_nf.a(__sys_istty.o)
 .comment       0x00000049       0x4a c:/nxp/mcuxpressoide_11.6.1_8255/ide/plugins/com.nxp.mcuxpresso.tools.win32_11.6.1.202207200623/tools/bin/../lib/gcc/arm-none-eabi/10.3.1/../../../../arm-none-eabi/lib/thumb/v7e-m+dp/hard\libcr_nohost_nf.a(__sys_remove.o)
 .comment       0x00000049       0x4a c:/nxp/mcuxpressoide_11.6.1_8255/ide/plugins/com.nxp.mcuxpresso.tools.win32_11.6.1.202207200623/tools/bin/../lib/gcc/arm-none-eabi/10.3.1/../../../../arm-none-eabi/lib/thumb/v7e-m+dp/hard\libcr_nohost_nf.a(__sys_seek.o)
 .comment       0x00000049       0x4a c:/nxp/mcuxpressoide_11.6.1_8255/ide/plugins/com.nxp.mcuxpresso.tools.win32_11.6.1.202207200623/tools/bin/../lib/gcc/arm-none-eabi/10.3.1/../../../../arm-none-eabi/lib/thumb/v7e-m+dp/hard\libcr_nohost_nf.a(__sys_tmpnam.o)
 .comment       0x00000049       0x4a c:/nxp/mcuxpressoide_11.6.1_8255/ide/plugins/com.nxp.mcuxpresso.tools.win32_11.6.1.202207200623/tools/bin/../lib/gcc/arm-none-eabi/10.3.1/../../../../arm-none-eabi/lib/thumb/v7e-m+dp/hard\libcr_nohost_nf.a(__sys_write.o)

.ARM.attributes
                0x00000000       0x30
 .ARM.attributes
                0x00000000       0x32 ./xip/evkbimxrt1050_flexspi_nor_config.o
 .ARM.attributes
                0x00000032       0x32 ./xip/fsl_flexspi_nor_boot.o
 .ARM.attributes
                0x00000064       0x32 ./utilities/fsl_assert.o
 .ARM.attributes
                0x00000096       0x32 ./utilities/fsl_debug_console.o
 .ARM.attributes
                0x000000c8       0x32 ./startup/startup_mimxrt1052.o
 .ARM.attributes
                0x000000fa       0x32 ./source/flexspi_romapi.o
 .ARM.attributes
                0x0000012c       0x32 ./source/semihost_hardfault.o
 .ARM.attributes
                0x0000015e       0x32 ./drivers/fsl_cache.o
 .ARM.attributes
                0x00000190       0x32 ./drivers/fsl_clock.o
 .ARM.attributes
                0x000001c2       0x32 ./drivers/fsl_lpuart.o
 .ARM.attributes
                0x000001f4       0x32 ./drivers/fsl_romapi.o
 .ARM.attributes
                0x00000226       0x32 ./device/system_MIMXRT1052.o
 .ARM.attributes
                0x00000258       0x32 ./component/uart/fsl_adapter_lpuart.o
 .ARM.attributes
                0x0000028a       0x32 ./board/board.o
 .ARM.attributes
                0x000002bc       0x32 ./board/clock_config.o
 .ARM.attributes
                0x000002ee       0x32 ./board/pin_mux.o
 .ARM.attributes
                0x00000320       0x32 c:/nxp/mcuxpressoide_11.6.1_8255/ide/plugins/com.nxp.mcuxpresso.tools.win32_11.6.1.202207200623/tools/bin/../lib/gcc/arm-none-eabi/10.3.1/../../../../arm-none-eabi/lib/thumb/v7e-m+dp/hard\libcr_nohost_nf.a(_cr__main.o)
 .ARM.attributes
                0x00000352       0x32 c:/nxp/mcuxpressoide_11.6.1_8255/ide/plugins/com.nxp.mcuxpresso.tools.win32_11.6.1.202207200623/tools/bin/../lib/gcc/arm-none-eabi/10.3.1/../../../../arm-none-eabi/lib/thumb/v7e-m+dp/hard\libcr_c.a(memcpy.o)
 .ARM.attributes
                0x00000384       0x32 c:/nxp/mcuxpressoide_11.6.1_8255/ide/plugins/com.nxp.mcuxpresso.tools.win32_11.6.1.202207200623/tools/bin/../lib/gcc/arm-none-eabi/10.3.1/../../../../arm-none-eabi/lib/thumb/v7e-m+dp/hard\libcr_c.a(memset.o)
 .ARM.attributes
                0x000003b6       0x32 c:/nxp/mcuxpressoide_11.6.1_8255/ide/plugins/com.nxp.mcuxpresso.tools.win32_11.6.1.202207200623/tools/bin/../lib/gcc/arm-none-eabi/10.3.1/../../../../arm-none-eabi/lib/thumb/v7e-m+dp/hard\libcr_c.a(alloc.o)
 .ARM.attributes
                0x000003e8       0x32 c:/nxp/mcuxpressoide_11.6.1_8255/ide/plugins/com.nxp.mcuxpresso.tools.win32_11.6.1.202207200623/tools/bin/../lib/gcc/arm-none-eabi/10.3.1/../../../../arm-none-eabi/lib/thumb/v7e-m+dp/hard\libcr_c.a(initio.o)
 .ARM.attributes
                0x0000041a       0x32 c:/nxp/mcuxpressoide_11.6.1_8255/ide/plugins/com.nxp.mcuxpresso.tools.win32_11.6.1.202207200623/tools/bin/../lib/gcc/arm-none-eabi/10.3.1/../../../../arm-none-eabi/lib/thumb/v7e-m+dp/hard\libcr_c.a(memcmp.o)
 .ARM.attributes
                0x0000044c       0x32 c:/nxp/mcuxpressoide_11.6.1_8255/ide/plugins/com.nxp.mcuxpresso.tools.win32_11.6.1.202207200623/tools/bin/../lib/gcc/arm-none-eabi/10.3.1/../../../../arm-none-eabi/lib/thumb/v7e-m+dp/hard\libcr_c.a(setvbuf.o)
 .ARM.attributes
                0x0000047e       0x32 c:/nxp/mcuxpressoide_11.6.1_8255/ide/plugins/com.nxp.mcuxpresso.tools.win32_11.6.1.202207200623/tools/bin/../lib/gcc/arm-none-eabi/10.3.1/../../../../arm-none-eabi/lib/thumb/v7e-m+dp/hard\libcr_c.a(strlen.o)
 .ARM.attributes
                0x000004b0       0x32 c:/nxp/mcuxpressoide_11.6.1_8255/ide/plugins/com.nxp.mcuxpresso.tools.win32_11.6.1.202207200623/tools/bin/../lib/gcc/arm-none-eabi/10.3.1/../../../../arm-none-eabi/lib/thumb/v7e-m+dp/hard\libcr_c.a(_fdopen.o)
 .ARM.attributes
                0x000004e2       0x32 c:/nxp/mcuxpressoide_11.6.1_8255/ide/plugins/com.nxp.mcuxpresso.tools.win32_11.6.1.202207200623/tools/bin/../lib/gcc/arm-none-eabi/10.3.1/../../../../arm-none-eabi/lib/thumb/v7e-m+dp/hard\libcr_c.a(errno.o)
 .ARM.attributes
                0x00000514       0x32 c:/nxp/mcuxpressoide_11.6.1_8255/ide/plugins/com.nxp.mcuxpresso.tools.win32_11.6.1.202207200623/tools/bin/../lib/gcc/arm-none-eabi/10.3.1/../../../../arm-none-eabi/lib/thumb/v7e-m+dp/hard\libcr_c.a(fclose.o)
 .ARM.attributes
                0x00000546       0x32 c:/nxp/mcuxpressoide_11.6.1_8255/ide/plugins/com.nxp.mcuxpresso.tools.win32_11.6.1.202207200623/tools/bin/../lib/gcc/arm-none-eabi/10.3.1/../../../../arm-none-eabi/lib/thumb/v7e-m+dp/hard\libcr_c.a(fflush.o)
 .ARM.attributes
                0x00000578       0x32 c:/nxp/mcuxpressoide_11.6.1_8255/ide/plugins/com.nxp.mcuxpresso.tools.win32_11.6.1.202207200623/tools/bin/../lib/gcc/arm-none-eabi/10.3.1/../../../../arm-none-eabi/lib/thumb/v7e-m+dp/hard\libcr_c.a(fseek.o)
 .ARM.attributes
                0x000005aa       0x32 c:/nxp/mcuxpressoide_11.6.1_8255/ide/plugins/com.nxp.mcuxpresso.tools.win32_11.6.1.202207200623/tools/bin/../lib/gcc/arm-none-eabi/10.3.1/../../../../arm-none-eabi/lib/thumb/v7e-m+dp/hard\libcr_c.a(ftell.o)
 .ARM.attributes
                0x000005dc       0x32 c:/nxp/mcuxpressoide_11.6.1_8255/ide/plugins/com.nxp.mcuxpresso.tools.win32_11.6.1.202207200623/tools/bin/../lib/gcc/arm-none-eabi/10.3.1/../../../../arm-none-eabi/lib/thumb/v7e-m+dp/hard\libcr_c.a(remove.o)
 .ARM.attributes
                0x0000060e       0x32 c:/nxp/mcuxpressoide_11.6.1_8255/ide/plugins/com.nxp.mcuxpresso.tools.win32_11.6.1.202207200623/tools/bin/../lib/gcc/arm-none-eabi/10.3.1/../../../../arm-none-eabi/lib/thumb/v7e-m+dp/hard\libcr_c.a(_do_fflush.o)
 .ARM.attributes
                0x00000640       0x32 c:/nxp/mcuxpressoide_11.6.1_8255/ide/plugins/com.nxp.mcuxpresso.tools.win32_11.6.1.202207200623/tools/bin/../lib/gcc/arm-none-eabi/10.3.1/../../../../arm-none-eabi/lib/thumb/v7e-m+dp/hard\libcr_c.a(_fflush.o)
 .ARM.attributes
                0x00000672       0x32 c:/nxp/mcuxpressoide_11.6.1_8255/ide/plugins/com.nxp.mcuxpresso.tools.win32_11.6.1.202207200623/tools/bin/../lib/gcc/arm-none-eabi/10.3.1/../../../../arm-none-eabi/lib/thumb/v7e-m+dp/hard\libcr_c.a(_writebuf.o)
 .ARM.attributes
                0x000006a4       0x32 c:/nxp/mcuxpressoide_11.6.1_8255/ide/plugins/com.nxp.mcuxpresso.tools.win32_11.6.1.202207200623/tools/bin/../lib/gcc/arm-none-eabi/10.3.1/../../../../arm-none-eabi/lib/thumb/v7e-m+dp/hard\libcr_c.a(_deferredlazyseek.o)
 .ARM.attributes
                0x000006d6       0x1e c:/nxp/mcuxpressoide_11.6.1_8255/ide/plugins/com.nxp.mcuxpresso.tools.win32_11.6.1.202207200623/tools/bin/../lib/gcc/arm-none-eabi/10.3.1/thumb/v7e-m+dp/hard\libcr_eabihelpers.a(memcpy.o)
 .ARM.attributes
                0x000006f4       0x32 c:/nxp/mcuxpressoide_11.6.1_8255/ide/plugins/com.nxp.mcuxpresso.tools.win32_11.6.1.202207200623/tools/bin/../lib/gcc/arm-none-eabi/10.3.1/../../../../arm-none-eabi/lib/thumb/v7e-m+dp/hard\libcr_nohost_nf.a(__ciob.o)
 .ARM.attributes
                0x00000726       0x32 c:/nxp/mcuxpressoide_11.6.1_8255/ide/plugins/com.nxp.mcuxpresso.tools.win32_11.6.1.202207200623/tools/bin/../lib/gcc/arm-none-eabi/10.3.1/../../../../arm-none-eabi/lib/thumb/v7e-m+dp/hard\libcr_nohost_nf.a(__sys_close.o)
 .ARM.attributes
                0x00000758       0x32 c:/nxp/mcuxpressoide_11.6.1_8255/ide/plugins/com.nxp.mcuxpresso.tools.win32_11.6.1.202207200623/tools/bin/../lib/gcc/arm-none-eabi/10.3.1/../../../../arm-none-eabi/lib/thumb/v7e-m+dp/hard\libcr_nohost_nf.a(__sys_flen.o)
 .ARM.attributes
                0x0000078a       0x32 c:/nxp/mcuxpressoide_11.6.1_8255/ide/plugins/com.nxp.mcuxpresso.tools.win32_11.6.1.202207200623/tools/bin/../lib/gcc/arm-none-eabi/10.3.1/../../../../arm-none-eabi/lib/thumb/v7e-m+dp/hard\libcr_nohost_nf.a(__sys_istty.o)
 .ARM.attributes
                0x000007bc       0x32 c:/nxp/mcuxpressoide_11.6.1_8255/ide/plugins/com.nxp.mcuxpresso.tools.win32_11.6.1.202207200623/tools/bin/../lib/gcc/arm-none-eabi/10.3.1/../../../../arm-none-eabi/lib/thumb/v7e-m+dp/hard\libcr_nohost_nf.a(__sys_remove.o)
 .ARM.attributes
                0x000007ee       0x32 c:/nxp/mcuxpressoide_11.6.1_8255/ide/plugins/com.nxp.mcuxpresso.tools.win32_11.6.1.202207200623/tools/bin/../lib/gcc/arm-none-eabi/10.3.1/../../../../arm-none-eabi/lib/thumb/v7e-m+dp/hard\libcr_nohost_nf.a(__sys_seek.o)
 .ARM.attributes
                0x00000820       0x32 c:/nxp/mcuxpressoide_11.6.1_8255/ide/plugins/com.nxp.mcuxpresso.tools.win32_11.6.1.202207200623/tools/bin/../lib/gcc/arm-none-eabi/10.3.1/../../../../arm-none-eabi/lib/thumb/v7e-m+dp/hard\libcr_nohost_nf.a(__sys_tmpnam.o)
 .ARM.attributes
                0x00000852       0x32 c:/nxp/mcuxpressoide_11.6.1_8255/ide/plugins/com.nxp.mcuxpresso.tools.win32_11.6.1.202207200623/tools/bin/../lib/gcc/arm-none-eabi/10.3.1/../../../../arm-none-eabi/lib/thumb/v7e-m+dp/hard\libcr_nohost_nf.a(__sys_write.o)

.debug_ranges   0x00000000      0xaf8
 .debug_ranges  0x00000000       0x10 ./utilities/fsl_assert.o
 .debug_ranges  0x00000010       0x68 ./utilities/fsl_debug_console.o
 .debug_ranges  0x00000078      0x530 ./startup/startup_mimxrt1052.o
 .debug_ranges  0x000005a8       0x38 ./source/flexspi_romapi.o
 .debug_ranges  0x000005e0       0x10 ./source/semihost_hardfault.o
 .debug_ranges  0x000005f0       0x48 ./drivers/fsl_cache.o
 .debug_ranges  0x00000638      0x1a0 ./drivers/fsl_clock.o
 .debug_ranges  0x000007d8      0x178 ./drivers/fsl_lpuart.o
 .debug_ranges  0x00000950       0x48 ./drivers/fsl_romapi.o
 .debug_ranges  0x00000998       0x20 ./device/system_MIMXRT1052.o
 .debug_ranges  0x000009b8       0x48 ./component/uart/fsl_adapter_lpuart.o
 .debug_ranges  0x00000a00       0x48 ./board/board.o
 .debug_ranges  0x00000a48       0x70 ./board/clock_config.o
 .debug_ranges  0x00000ab8       0x40 ./board/pin_mux.o

.debug_frame    0x00000000     0x2894
 .debug_frame   0x00000000       0x30 ./utilities/fsl_assert.o
 .debug_frame   0x00000030      0x1f8 ./utilities/fsl_debug_console.o
 .debug_frame   0x00000228      0xf2c ./startup/startup_mimxrt1052.o
 .debug_frame   0x00001154       0xe4 ./source/flexspi_romapi.o
 .debug_frame   0x00001238       0x20 ./source/semihost_hardfault.o
 .debug_frame   0x00001258      0x140 ./drivers/fsl_cache.o
 .debug_frame   0x00001398      0x748 ./drivers/fsl_clock.o
 .debug_frame   0x00001ae0      0x67c ./drivers/fsl_lpuart.o
 .debug_frame   0x0000215c      0x13c ./drivers/fsl_romapi.o
 .debug_frame   0x00002298       0x7c ./device/system_MIMXRT1052.o
 .debug_frame   0x00002314      0x138 ./component/uart/fsl_adapter_lpuart.o
 .debug_frame   0x0000244c      0x13c ./board/board.o
 .debug_frame   0x00002588      0x1fc ./board/clock_config.o
 .debug_frame   0x00002784      0x110 ./board/pin_mux.o

Cross Reference Table

Symbol                                            File
ACMP1_DriverIRQHandler                            ./startup/startup_mimxrt1052.o
ACMP1_IRQHandler                                  ./startup/startup_mimxrt1052.o
ACMP2_DriverIRQHandler                            ./startup/startup_mimxrt1052.o
ACMP2_IRQHandler                                  ./startup/startup_mimxrt1052.o
ACMP3_DriverIRQHandler                            ./startup/startup_mimxrt1052.o
ACMP3_IRQHandler                                  ./startup/startup_mimxrt1052.o
ACMP4_DriverIRQHandler                            ./startup/startup_mimxrt1052.o
ACMP4_IRQHandler                                  ./startup/startup_mimxrt1052.o
ADC1_DriverIRQHandler                             ./startup/startup_mimxrt1052.o
ADC1_IRQHandler                                   ./startup/startup_mimxrt1052.o
ADC2_DriverIRQHandler                             ./startup/startup_mimxrt1052.o
ADC2_IRQHandler                                   ./startup/startup_mimxrt1052.o
ADC_ETC_ERROR_IRQ_DriverIRQHandler                ./startup/startup_mimxrt1052.o
ADC_ETC_ERROR_IRQ_IRQHandler                      ./startup/startup_mimxrt1052.o
ADC_ETC_IRQ0_DriverIRQHandler                     ./startup/startup_mimxrt1052.o
ADC_ETC_IRQ0_IRQHandler                           ./startup/startup_mimxrt1052.o
ADC_ETC_IRQ1_DriverIRQHandler                     ./startup/startup_mimxrt1052.o
ADC_ETC_IRQ1_IRQHandler                           ./startup/startup_mimxrt1052.o
ADC_ETC_IRQ2_DriverIRQHandler                     ./startup/startup_mimxrt1052.o
ADC_ETC_IRQ2_IRQHandler                           ./startup/startup_mimxrt1052.o
BEE_DriverIRQHandler                              ./startup/startup_mimxrt1052.o
BEE_IRQHandler                                    ./startup/startup_mimxrt1052.o
BOARD_BootClockRUN                                ./board/clock_config.o
BOARD_ConfigMPU                                   ./board/board.o
                                                  ./source/flexspi_romapi.o
BOARD_DebugConsoleSrcFreq                         ./board/board.o
BOARD_InitBootClocks                              ./board/clock_config.o
                                                  ./source/flexspi_romapi.o
BOARD_InitBootPins                                ./board/pin_mux.o
                                                  ./source/flexspi_romapi.o
BOARD_InitDebugConsole                            ./board/board.o
                                                  ./source/flexspi_romapi.o
BOARD_InitPins                                    ./board/pin_mux.o
BusFault_Handler                                  ./startup/startup_mimxrt1052.o
CAN1_DriverIRQHandler                             ./startup/startup_mimxrt1052.o
CAN1_IRQHandler                                   ./startup/startup_mimxrt1052.o
CAN2_DriverIRQHandler                             ./startup/startup_mimxrt1052.o
CAN2_IRQHandler                                   ./startup/startup_mimxrt1052.o
CCM_1_DriverIRQHandler                            ./startup/startup_mimxrt1052.o
CCM_1_IRQHandler                                  ./startup/startup_mimxrt1052.o
CCM_2_DriverIRQHandler                            ./startup/startup_mimxrt1052.o
CCM_2_IRQHandler                                  ./startup/startup_mimxrt1052.o
CLOCK_DeinitArmPll                                ./drivers/fsl_clock.o
CLOCK_DeinitAudioPll                              ./drivers/fsl_clock.o
                                                  ./board/clock_config.o
CLOCK_DeinitEnetPll                               ./drivers/fsl_clock.o
                                                  ./board/clock_config.o
CLOCK_DeinitExternalClk                           ./drivers/fsl_clock.o
CLOCK_DeinitRcOsc24M                              ./drivers/fsl_clock.o
CLOCK_DeinitSysPfd                                ./drivers/fsl_clock.o
CLOCK_DeinitSysPll                                ./drivers/fsl_clock.o
CLOCK_DeinitUsb1Pfd                               ./drivers/fsl_clock.o
CLOCK_DeinitUsb1Pll                               ./drivers/fsl_clock.o
CLOCK_DeinitUsb2Pll                               ./drivers/fsl_clock.o
                                                  ./board/clock_config.o
CLOCK_DeinitVideoPll                              ./drivers/fsl_clock.o
CLOCK_DisableUsbhs0PhyPllClock                    ./drivers/fsl_clock.o
CLOCK_DisableUsbhs1PhyPllClock                    ./drivers/fsl_clock.o
CLOCK_EnableUsbhs0Clock                           ./drivers/fsl_clock.o
CLOCK_EnableUsbhs0PhyPllClock                     ./drivers/fsl_clock.o
CLOCK_EnableUsbhs1Clock                           ./drivers/fsl_clock.o
CLOCK_EnableUsbhs1PhyPllClock                     ./drivers/fsl_clock.o
CLOCK_GetAhbFreq                                  ./drivers/fsl_clock.o
CLOCK_GetClockOutCLKO1Freq                        ./drivers/fsl_clock.o
CLOCK_GetClockOutClkO2Freq                        ./drivers/fsl_clock.o
CLOCK_GetClockRootFreq                            ./drivers/fsl_clock.o
CLOCK_GetFreq                                     ./drivers/fsl_clock.o
CLOCK_GetIpgFreq                                  ./drivers/fsl_clock.o
CLOCK_GetPerClkFreq                               ./drivers/fsl_clock.o
CLOCK_GetPllFreq                                  ./drivers/fsl_clock.o
                                                  ./board/board.o
CLOCK_GetSemcFreq                                 ./drivers/fsl_clock.o
CLOCK_GetSysPfdFreq                               ./drivers/fsl_clock.o
CLOCK_GetUsb1PfdFreq                              ./drivers/fsl_clock.o
CLOCK_InitArmPll                                  ./drivers/fsl_clock.o
                                                  ./board/clock_config.o
CLOCK_InitAudioPll                                ./drivers/fsl_clock.o
CLOCK_InitEnetPll                                 ./drivers/fsl_clock.o
CLOCK_InitExternalClk                             ./drivers/fsl_clock.o
                                                  ./board/clock_config.o
CLOCK_InitRcOsc24M                                ./drivers/fsl_clock.o
                                                  ./board/clock_config.o
CLOCK_InitSysPfd                                  ./drivers/fsl_clock.o
                                                  ./board/clock_config.o
CLOCK_InitSysPll                                  ./drivers/fsl_clock.o
                                                  ./board/clock_config.o
CLOCK_InitUsb1Pfd                                 ./drivers/fsl_clock.o
CLOCK_InitUsb1Pll                                 ./drivers/fsl_clock.o
CLOCK_InitUsb2Pll                                 ./drivers/fsl_clock.o
CLOCK_InitVideoPll                                ./drivers/fsl_clock.o
CLOCK_IsSysPfdEnabled                             ./drivers/fsl_clock.o
CLOCK_IsUsb1PfdEnabled                            ./drivers/fsl_clock.o
CLOCK_SetClockOutput1                             ./drivers/fsl_clock.o
CLOCK_SetClockOutput2                             ./drivers/fsl_clock.o
CLOCK_SwitchOsc                                   ./drivers/fsl_clock.o
                                                  ./board/clock_config.o
CORE_DriverIRQHandler                             ./startup/startup_mimxrt1052.o
CORE_IRQHandler                                   ./startup/startup_mimxrt1052.o
CSI_DriverIRQHandler                              ./startup/startup_mimxrt1052.o
CSI_IRQHandler                                    ./startup/startup_mimxrt1052.o
CSU_DriverIRQHandler                              ./startup/startup_mimxrt1052.o
CSU_IRQHandler                                    ./startup/startup_mimxrt1052.o
CTI0_ERROR_DriverIRQHandler                       ./startup/startup_mimxrt1052.o
CTI0_ERROR_IRQHandler                             ./startup/startup_mimxrt1052.o
CTI1_ERROR_DriverIRQHandler                       ./startup/startup_mimxrt1052.o
CTI1_ERROR_IRQHandler                             ./startup/startup_mimxrt1052.o
DCACHE_CleanByRange                               ./drivers/fsl_cache.o
DCACHE_CleanInvalidateByRange                     ./drivers/fsl_cache.o
DCACHE_InvalidateByRange                          ./drivers/fsl_cache.o
                                                  ./source/flexspi_romapi.o
DCDC_DriverIRQHandler                             ./startup/startup_mimxrt1052.o
DCDC_IRQHandler                                   ./startup/startup_mimxrt1052.o
DCP_DriverIRQHandler                              ./startup/startup_mimxrt1052.o
DCP_IRQHandler                                    ./startup/startup_mimxrt1052.o
DCP_VMI_DriverIRQHandler                          ./startup/startup_mimxrt1052.o
DCP_VMI_IRQHandler                                ./startup/startup_mimxrt1052.o
DMA0_DMA16_DriverIRQHandler                       ./startup/startup_mimxrt1052.o
DMA0_DMA16_IRQHandler                             ./startup/startup_mimxrt1052.o
DMA10_DMA26_DriverIRQHandler                      ./startup/startup_mimxrt1052.o
DMA10_DMA26_IRQHandler                            ./startup/startup_mimxrt1052.o
DMA11_DMA27_DriverIRQHandler                      ./startup/startup_mimxrt1052.o
DMA11_DMA27_IRQHandler                            ./startup/startup_mimxrt1052.o
DMA12_DMA28_DriverIRQHandler                      ./startup/startup_mimxrt1052.o
DMA12_DMA28_IRQHandler                            ./startup/startup_mimxrt1052.o
DMA13_DMA29_DriverIRQHandler                      ./startup/startup_mimxrt1052.o
DMA13_DMA29_IRQHandler                            ./startup/startup_mimxrt1052.o
DMA14_DMA30_DriverIRQHandler                      ./startup/startup_mimxrt1052.o
DMA14_DMA30_IRQHandler                            ./startup/startup_mimxrt1052.o
DMA15_DMA31_DriverIRQHandler                      ./startup/startup_mimxrt1052.o
DMA15_DMA31_IRQHandler                            ./startup/startup_mimxrt1052.o
DMA1_DMA17_DriverIRQHandler                       ./startup/startup_mimxrt1052.o
DMA1_DMA17_IRQHandler                             ./startup/startup_mimxrt1052.o
DMA2_DMA18_DriverIRQHandler                       ./startup/startup_mimxrt1052.o
DMA2_DMA18_IRQHandler                             ./startup/startup_mimxrt1052.o
DMA3_DMA19_DriverIRQHandler                       ./startup/startup_mimxrt1052.o
DMA3_DMA19_IRQHandler                             ./startup/startup_mimxrt1052.o
DMA4_DMA20_DriverIRQHandler                       ./startup/startup_mimxrt1052.o
DMA4_DMA20_IRQHandler                             ./startup/startup_mimxrt1052.o
DMA5_DMA21_DriverIRQHandler                       ./startup/startup_mimxrt1052.o
DMA5_DMA21_IRQHandler                             ./startup/startup_mimxrt1052.o
DMA6_DMA22_DriverIRQHandler                       ./startup/startup_mimxrt1052.o
DMA6_DMA22_IRQHandler                             ./startup/startup_mimxrt1052.o
DMA7_DMA23_DriverIRQHandler                       ./startup/startup_mimxrt1052.o
DMA7_DMA23_IRQHandler                             ./startup/startup_mimxrt1052.o
DMA8_DMA24_DriverIRQHandler                       ./startup/startup_mimxrt1052.o
DMA8_DMA24_IRQHandler                             ./startup/startup_mimxrt1052.o
DMA9_DMA25_DriverIRQHandler                       ./startup/startup_mimxrt1052.o
DMA9_DMA25_IRQHandler                             ./startup/startup_mimxrt1052.o
DMA_ERROR_DriverIRQHandler                        ./startup/startup_mimxrt1052.o
DMA_ERROR_IRQHandler                              ./startup/startup_mimxrt1052.o
DbgConsole_Deinit                                 ./utilities/fsl_debug_console.o
DbgConsole_Getchar                                ./utilities/fsl_debug_console.o
DbgConsole_Init                                   ./utilities/fsl_debug_console.o
                                                  ./board/board.o
DbgConsole_Printf                                 ./utilities/fsl_debug_console.o
                                                  ./source/flexspi_romapi.o
                                                  ./utilities/fsl_assert.o
DbgConsole_Putchar                                ./utilities/fsl_debug_console.o
DbgConsole_Scanf                                  ./utilities/fsl_debug_console.o
DbgConsole_Vprintf                                ./utilities/fsl_debug_console.o
DebugMon_Handler                                  ./startup/startup_mimxrt1052.o
ENC1_DriverIRQHandler                             ./startup/startup_mimxrt1052.o
ENC1_IRQHandler                                   ./startup/startup_mimxrt1052.o
ENC2_DriverIRQHandler                             ./startup/startup_mimxrt1052.o
ENC2_IRQHandler                                   ./startup/startup_mimxrt1052.o
ENC3_DriverIRQHandler                             ./startup/startup_mimxrt1052.o
ENC3_IRQHandler                                   ./startup/startup_mimxrt1052.o
ENC4_DriverIRQHandler                             ./startup/startup_mimxrt1052.o
ENC4_IRQHandler                                   ./startup/startup_mimxrt1052.o
ENET_1588_Timer_DriverIRQHandler                  ./startup/startup_mimxrt1052.o
ENET_1588_Timer_IRQHandler                        ./startup/startup_mimxrt1052.o
ENET_DriverIRQHandler                             ./startup/startup_mimxrt1052.o
ENET_IRQHandler                                   ./startup/startup_mimxrt1052.o
EWM_DriverIRQHandler                              ./startup/startup_mimxrt1052.o
EWM_IRQHandler                                    ./startup/startup_mimxrt1052.o
FLEXIO1_DriverIRQHandler                          ./startup/startup_mimxrt1052.o
FLEXIO1_IRQHandler                                ./startup/startup_mimxrt1052.o
FLEXIO2_DriverIRQHandler                          ./startup/startup_mimxrt1052.o
FLEXIO2_IRQHandler                                ./startup/startup_mimxrt1052.o
FLEXRAM_DriverIRQHandler                          ./startup/startup_mimxrt1052.o
FLEXRAM_IRQHandler                                ./startup/startup_mimxrt1052.o
FLEXSPI_DriverIRQHandler                          ./startup/startup_mimxrt1052.o
FLEXSPI_IRQHandler                                ./startup/startup_mimxrt1052.o
FLEXSPI_NorFlash_GetConfig                        ./source/flexspi_romapi.o
GPC_DriverIRQHandler                              ./startup/startup_mimxrt1052.o
GPC_IRQHandler                                    ./startup/startup_mimxrt1052.o
GPIO1_Combined_0_15_DriverIRQHandler              ./startup/startup_mimxrt1052.o
GPIO1_Combined_0_15_IRQHandler                    ./startup/startup_mimxrt1052.o
GPIO1_Combined_16_31_DriverIRQHandler             ./startup/startup_mimxrt1052.o
GPIO1_Combined_16_31_IRQHandler                   ./startup/startup_mimxrt1052.o
GPIO1_INT0_DriverIRQHandler                       ./startup/startup_mimxrt1052.o
GPIO1_INT0_IRQHandler                             ./startup/startup_mimxrt1052.o
GPIO1_INT1_DriverIRQHandler                       ./startup/startup_mimxrt1052.o
GPIO1_INT1_IRQHandler                             ./startup/startup_mimxrt1052.o
GPIO1_INT2_DriverIRQHandler                       ./startup/startup_mimxrt1052.o
GPIO1_INT2_IRQHandler                             ./startup/startup_mimxrt1052.o
GPIO1_INT3_DriverIRQHandler                       ./startup/startup_mimxrt1052.o
GPIO1_INT3_IRQHandler                             ./startup/startup_mimxrt1052.o
GPIO1_INT4_DriverIRQHandler                       ./startup/startup_mimxrt1052.o
GPIO1_INT4_IRQHandler                             ./startup/startup_mimxrt1052.o
GPIO1_INT5_DriverIRQHandler                       ./startup/startup_mimxrt1052.o
GPIO1_INT5_IRQHandler                             ./startup/startup_mimxrt1052.o
GPIO1_INT6_DriverIRQHandler                       ./startup/startup_mimxrt1052.o
GPIO1_INT6_IRQHandler                             ./startup/startup_mimxrt1052.o
GPIO1_INT7_DriverIRQHandler                       ./startup/startup_mimxrt1052.o
GPIO1_INT7_IRQHandler                             ./startup/startup_mimxrt1052.o
GPIO2_Combined_0_15_DriverIRQHandler              ./startup/startup_mimxrt1052.o
GPIO2_Combined_0_15_IRQHandler                    ./startup/startup_mimxrt1052.o
GPIO2_Combined_16_31_DriverIRQHandler             ./startup/startup_mimxrt1052.o
GPIO2_Combined_16_31_IRQHandler                   ./startup/startup_mimxrt1052.o
GPIO3_Combined_0_15_DriverIRQHandler              ./startup/startup_mimxrt1052.o
GPIO3_Combined_0_15_IRQHandler                    ./startup/startup_mimxrt1052.o
GPIO3_Combined_16_31_DriverIRQHandler             ./startup/startup_mimxrt1052.o
GPIO3_Combined_16_31_IRQHandler                   ./startup/startup_mimxrt1052.o
GPIO4_Combined_0_15_DriverIRQHandler              ./startup/startup_mimxrt1052.o
GPIO4_Combined_0_15_IRQHandler                    ./startup/startup_mimxrt1052.o
GPIO4_Combined_16_31_DriverIRQHandler             ./startup/startup_mimxrt1052.o
GPIO4_Combined_16_31_IRQHandler                   ./startup/startup_mimxrt1052.o
GPIO5_Combined_0_15_DriverIRQHandler              ./startup/startup_mimxrt1052.o
GPIO5_Combined_0_15_IRQHandler                    ./startup/startup_mimxrt1052.o
GPIO5_Combined_16_31_DriverIRQHandler             ./startup/startup_mimxrt1052.o
GPIO5_Combined_16_31_IRQHandler                   ./startup/startup_mimxrt1052.o
GPIO_PinInit                                      ./drivers/fsl_gpio.o
GPIO_PinSetInterruptConfig                        ./drivers/fsl_gpio.o
GPIO_PinWrite                                     ./drivers/fsl_gpio.o
GPR_IRQ_DriverIRQHandler                          ./startup/startup_mimxrt1052.o
GPR_IRQ_IRQHandler                                ./startup/startup_mimxrt1052.o
GPT1_DriverIRQHandler                             ./startup/startup_mimxrt1052.o
GPT1_IRQHandler                                   ./startup/startup_mimxrt1052.o
GPT2_DriverIRQHandler                             ./startup/startup_mimxrt1052.o
GPT2_IRQHandler                                   ./startup/startup_mimxrt1052.o
HAL_UartDeinit                                    ./component/uart/fsl_adapter_lpuart.o
                                                  ./utilities/fsl_debug_console.o
HAL_UartEnterLowpower                             ./component/uart/fsl_adapter_lpuart.o
HAL_UartExitLowpower                              ./component/uart/fsl_adapter_lpuart.o
HAL_UartInit                                      ./component/uart/fsl_adapter_lpuart.o
                                                  ./utilities/fsl_debug_console.o
HAL_UartReceiveBlocking                           ./component/uart/fsl_adapter_lpuart.o
                                                  ./utilities/fsl_debug_console.o
HAL_UartSendBlocking                              ./component/uart/fsl_adapter_lpuart.o
                                                  ./utilities/fsl_debug_console.o
HardFault_Handler                                 ./source/semihost_hardfault.o
                                                  ./startup/startup_mimxrt1052.o
ICACHE_InvalidateByRange                          ./drivers/fsl_cache.o
IntDefaultHandler                                 ./startup/startup_mimxrt1052.o
KPP_DriverIRQHandler                              ./startup/startup_mimxrt1052.o
KPP_IRQHandler                                    ./startup/startup_mimxrt1052.o
L1CACHE_InvalidateICacheByRange                   ./drivers/fsl_cache.o
LCDIF_DriverIRQHandler                            ./startup/startup_mimxrt1052.o
LCDIF_IRQHandler                                  ./startup/startup_mimxrt1052.o
LIST_AddHead                                      ./component/lists/fsl_component_generic_list.o
LIST_AddPrevElement                               ./component/lists/fsl_component_generic_list.o
LIST_AddTail                                      ./component/lists/fsl_component_generic_list.o
LIST_GetAvailableSize                             ./component/lists/fsl_component_generic_list.o
LIST_GetHead                                      ./component/lists/fsl_component_generic_list.o
LIST_GetList                                      ./component/lists/fsl_component_generic_list.o
LIST_GetNext                                      ./component/lists/fsl_component_generic_list.o
LIST_GetPrev                                      ./component/lists/fsl_component_generic_list.o
LIST_GetSize                                      ./component/lists/fsl_component_generic_list.o
LIST_Init                                         ./component/lists/fsl_component_generic_list.o
LIST_RemoveElement                                ./component/lists/fsl_component_generic_list.o
LIST_RemoveHead                                   ./component/lists/fsl_component_generic_list.o
LPI2C1_DriverIRQHandler                           ./startup/startup_mimxrt1052.o
LPI2C1_IRQHandler                                 ./startup/startup_mimxrt1052.o
LPI2C2_DriverIRQHandler                           ./startup/startup_mimxrt1052.o
LPI2C2_IRQHandler                                 ./startup/startup_mimxrt1052.o
LPI2C3_DriverIRQHandler                           ./startup/startup_mimxrt1052.o
LPI2C3_IRQHandler                                 ./startup/startup_mimxrt1052.o
LPI2C4_DriverIRQHandler                           ./startup/startup_mimxrt1052.o
LPI2C4_IRQHandler                                 ./startup/startup_mimxrt1052.o
LPSPI1_DriverIRQHandler                           ./startup/startup_mimxrt1052.o
LPSPI1_IRQHandler                                 ./startup/startup_mimxrt1052.o
LPSPI2_DriverIRQHandler                           ./startup/startup_mimxrt1052.o
LPSPI2_IRQHandler                                 ./startup/startup_mimxrt1052.o
LPSPI3_DriverIRQHandler                           ./startup/startup_mimxrt1052.o
LPSPI3_IRQHandler                                 ./startup/startup_mimxrt1052.o
LPSPI4_DriverIRQHandler                           ./startup/startup_mimxrt1052.o
LPSPI4_IRQHandler                                 ./startup/startup_mimxrt1052.o
LPUART1_DriverIRQHandler                          ./drivers/fsl_lpuart.o
                                                  ./startup/startup_mimxrt1052.o
LPUART1_IRQHandler                                ./startup/startup_mimxrt1052.o
LPUART2_DriverIRQHandler                          ./drivers/fsl_lpuart.o
                                                  ./startup/startup_mimxrt1052.o
LPUART2_IRQHandler                                ./startup/startup_mimxrt1052.o
LPUART3_DriverIRQHandler                          ./drivers/fsl_lpuart.o
                                                  ./startup/startup_mimxrt1052.o
LPUART3_IRQHandler                                ./startup/startup_mimxrt1052.o
LPUART4_DriverIRQHandler                          ./drivers/fsl_lpuart.o
                                                  ./startup/startup_mimxrt1052.o
LPUART4_IRQHandler                                ./startup/startup_mimxrt1052.o
LPUART5_DriverIRQHandler                          ./drivers/fsl_lpuart.o
                                                  ./startup/startup_mimxrt1052.o
LPUART5_IRQHandler                                ./startup/startup_mimxrt1052.o
LPUART6_DriverIRQHandler                          ./drivers/fsl_lpuart.o
                                                  ./startup/startup_mimxrt1052.o
LPUART6_IRQHandler                                ./startup/startup_mimxrt1052.o
LPUART7_DriverIRQHandler                          ./drivers/fsl_lpuart.o
                                                  ./startup/startup_mimxrt1052.o
LPUART7_IRQHandler                                ./startup/startup_mimxrt1052.o
LPUART8_DriverIRQHandler                          ./drivers/fsl_lpuart.o
                                                  ./startup/startup_mimxrt1052.o
LPUART8_IRQHandler                                ./startup/startup_mimxrt1052.o
LPUART_ClearStatusFlags                           ./drivers/fsl_lpuart.o
LPUART_Deinit                                     ./drivers/fsl_lpuart.o
                                                  ./component/uart/fsl_adapter_lpuart.o
LPUART_DisableInterrupts                          ./drivers/fsl_lpuart.o
LPUART_Enable9bitMode                             ./drivers/fsl_lpuart.o
LPUART_EnableInterrupts                           ./drivers/fsl_lpuart.o
LPUART_GetDefaultConfig                           ./drivers/fsl_lpuart.o
                                                  ./component/uart/fsl_adapter_lpuart.o
LPUART_GetEnabledInterrupts                       ./drivers/fsl_lpuart.o
LPUART_GetInstance                                ./drivers/fsl_lpuart.o
LPUART_GetStatusFlags                             ./drivers/fsl_lpuart.o
LPUART_Init                                       ./drivers/fsl_lpuart.o
                                                  ./component/uart/fsl_adapter_lpuart.o
LPUART_ReadBlocking                               ./drivers/fsl_lpuart.o
                                                  ./component/uart/fsl_adapter_lpuart.o
LPUART_SendAddress                                ./drivers/fsl_lpuart.o
LPUART_SetBaudRate                                ./drivers/fsl_lpuart.o
LPUART_TransferAbortReceive                       ./drivers/fsl_lpuart.o
LPUART_TransferAbortSend                          ./drivers/fsl_lpuart.o
LPUART_TransferCreateHandle                       ./drivers/fsl_lpuart.o
LPUART_TransferGetReceiveCount                    ./drivers/fsl_lpuart.o
LPUART_TransferGetRxRingBufferLength              ./drivers/fsl_lpuart.o
LPUART_TransferGetSendCount                       ./drivers/fsl_lpuart.o
LPUART_TransferHandleErrorIRQ                     ./drivers/fsl_lpuart.o
LPUART_TransferHandleIRQ                          ./drivers/fsl_lpuart.o
LPUART_TransferReceiveNonBlocking                 ./drivers/fsl_lpuart.o
LPUART_TransferSendNonBlocking                    ./drivers/fsl_lpuart.o
LPUART_TransferStartRingBuffer                    ./drivers/fsl_lpuart.o
LPUART_TransferStopRingBuffer                     ./drivers/fsl_lpuart.o
LPUART_WriteBlocking                              ./drivers/fsl_lpuart.o
                                                  ./component/uart/fsl_adapter_lpuart.o
MemManage_Handler                                 ./startup/startup_mimxrt1052.o
NMI_Handler                                       ./startup/startup_mimxrt1052.o
PIT_DriverIRQHandler                              ./startup/startup_mimxrt1052.o
PIT_IRQHandler                                    ./startup/startup_mimxrt1052.o
PMU_EVENT_DriverIRQHandler                        ./startup/startup_mimxrt1052.o
PMU_EVENT_IRQHandler                              ./startup/startup_mimxrt1052.o
PWM1_0_DriverIRQHandler                           ./startup/startup_mimxrt1052.o
PWM1_0_IRQHandler                                 ./startup/startup_mimxrt1052.o
PWM1_1_DriverIRQHandler                           ./startup/startup_mimxrt1052.o
PWM1_1_IRQHandler                                 ./startup/startup_mimxrt1052.o
PWM1_2_DriverIRQHandler                           ./startup/startup_mimxrt1052.o
PWM1_2_IRQHandler                                 ./startup/startup_mimxrt1052.o
PWM1_3_DriverIRQHandler                           ./startup/startup_mimxrt1052.o
PWM1_3_IRQHandler                                 ./startup/startup_mimxrt1052.o
PWM1_FAULT_DriverIRQHandler                       ./startup/startup_mimxrt1052.o
PWM1_FAULT_IRQHandler                             ./startup/startup_mimxrt1052.o
PWM2_0_DriverIRQHandler                           ./startup/startup_mimxrt1052.o
PWM2_0_IRQHandler                                 ./startup/startup_mimxrt1052.o
PWM2_1_DriverIRQHandler                           ./startup/startup_mimxrt1052.o
PWM2_1_IRQHandler                                 ./startup/startup_mimxrt1052.o
PWM2_2_DriverIRQHandler                           ./startup/startup_mimxrt1052.o
PWM2_2_IRQHandler                                 ./startup/startup_mimxrt1052.o
PWM2_3_DriverIRQHandler                           ./startup/startup_mimxrt1052.o
PWM2_3_IRQHandler                                 ./startup/startup_mimxrt1052.o
PWM2_FAULT_DriverIRQHandler                       ./startup/startup_mimxrt1052.o
PWM2_FAULT_IRQHandler                             ./startup/startup_mimxrt1052.o
PWM3_0_DriverIRQHandler                           ./startup/startup_mimxrt1052.o
PWM3_0_IRQHandler                                 ./startup/startup_mimxrt1052.o
PWM3_1_DriverIRQHandler                           ./startup/startup_mimxrt1052.o
PWM3_1_IRQHandler                                 ./startup/startup_mimxrt1052.o
PWM3_2_DriverIRQHandler                           ./startup/startup_mimxrt1052.o
PWM3_2_IRQHandler                                 ./startup/startup_mimxrt1052.o
PWM3_3_DriverIRQHandler                           ./startup/startup_mimxrt1052.o
PWM3_3_IRQHandler                                 ./startup/startup_mimxrt1052.o
PWM3_FAULT_DriverIRQHandler                       ./startup/startup_mimxrt1052.o
PWM3_FAULT_IRQHandler                             ./startup/startup_mimxrt1052.o
PWM4_0_DriverIRQHandler                           ./startup/startup_mimxrt1052.o
PWM4_0_IRQHandler                                 ./startup/startup_mimxrt1052.o
PWM4_1_DriverIRQHandler                           ./startup/startup_mimxrt1052.o
PWM4_1_IRQHandler                                 ./startup/startup_mimxrt1052.o
PWM4_2_DriverIRQHandler                           ./startup/startup_mimxrt1052.o
PWM4_2_IRQHandler                                 ./startup/startup_mimxrt1052.o
PWM4_3_DriverIRQHandler                           ./startup/startup_mimxrt1052.o
PWM4_3_IRQHandler                                 ./startup/startup_mimxrt1052.o
PWM4_FAULT_DriverIRQHandler                       ./startup/startup_mimxrt1052.o
PWM4_FAULT_IRQHandler                             ./startup/startup_mimxrt1052.o
PXP_DriverIRQHandler                              ./startup/startup_mimxrt1052.o
PXP_IRQHandler                                    ./startup/startup_mimxrt1052.o
PendSV_Handler                                    ./startup/startup_mimxrt1052.o
ROM_FLEXSPI_NorFlash_ClearCache                   ./drivers/fsl_romapi.o
                                                  ./source/flexspi_romapi.o
ROM_FLEXSPI_NorFlash_CommandXfer                  ./drivers/fsl_romapi.o
ROM_FLEXSPI_NorFlash_Erase                        ./drivers/fsl_romapi.o
                                                  ./source/flexspi_romapi.o
ROM_FLEXSPI_NorFlash_EraseAll                     ./drivers/fsl_romapi.o
ROM_FLEXSPI_NorFlash_EraseSector                  ./drivers/fsl_romapi.o
ROM_FLEXSPI_NorFlash_Init                         ./drivers/fsl_romapi.o
                                                  ./source/flexspi_romapi.o
ROM_FLEXSPI_NorFlash_ProgramPage                  ./drivers/fsl_romapi.o
                                                  ./source/flexspi_romapi.o
ROM_FLEXSPI_NorFlash_UpdateLut                    ./drivers/fsl_romapi.o
RTWDOG_DriverIRQHandler                           ./startup/startup_mimxrt1052.o
RTWDOG_IRQHandler                                 ./startup/startup_mimxrt1052.o
Reserved115_DriverIRQHandler                      ./startup/startup_mimxrt1052.o
Reserved115_IRQHandler                            ./startup/startup_mimxrt1052.o
Reserved123_DriverIRQHandler                      ./startup/startup_mimxrt1052.o
Reserved123_IRQHandler                            ./startup/startup_mimxrt1052.o
Reserved143_DriverIRQHandler                      ./startup/startup_mimxrt1052.o
Reserved143_IRQHandler                            ./startup/startup_mimxrt1052.o
Reserved144_DriverIRQHandler                      ./startup/startup_mimxrt1052.o
Reserved144_IRQHandler                            ./startup/startup_mimxrt1052.o
Reserved68_DriverIRQHandler                       ./startup/startup_mimxrt1052.o
Reserved68_IRQHandler                             ./startup/startup_mimxrt1052.o
Reserved78_DriverIRQHandler                       ./startup/startup_mimxrt1052.o
Reserved78_IRQHandler                             ./startup/startup_mimxrt1052.o
Reserved86_DriverIRQHandler                       ./startup/startup_mimxrt1052.o
Reserved86_IRQHandler                             ./startup/startup_mimxrt1052.o
Reserved87_DriverIRQHandler                       ./startup/startup_mimxrt1052.o
Reserved87_IRQHandler                             ./startup/startup_mimxrt1052.o
ResetISR                                          ./startup/startup_mimxrt1052.o
SAI1_DriverIRQHandler                             ./startup/startup_mimxrt1052.o
SAI1_IRQHandler                                   ./startup/startup_mimxrt1052.o
SAI2_DriverIRQHandler                             ./startup/startup_mimxrt1052.o
SAI2_IRQHandler                                   ./startup/startup_mimxrt1052.o
SAI3_RX_DriverIRQHandler                          ./startup/startup_mimxrt1052.o
SAI3_RX_IRQHandler                                ./startup/startup_mimxrt1052.o
SAI3_TX_DriverIRQHandler                          ./startup/startup_mimxrt1052.o
SAI3_TX_IRQHandler                                ./startup/startup_mimxrt1052.o
SDK_DelayAtLeastUs                                ./drivers/fsl_common_arm.o
SDK_Free                                          ./drivers/fsl_common.o
SDK_Malloc                                        ./drivers/fsl_common.o
SEMC_DriverIRQHandler                             ./startup/startup_mimxrt1052.o
SEMC_IRQHandler                                   ./startup/startup_mimxrt1052.o
SILICONID_ConvertToMacAddr                        ./component/silicon_id/fsl_silicon_id.o
SILICONID_GetID                                   ./component/silicon_id/fsl_silicon_id.o
SJC_DriverIRQHandler                              ./startup/startup_mimxrt1052.o
SJC_IRQHandler                                    ./startup/startup_mimxrt1052.o
SNVS_HP_WRAPPER_DriverIRQHandler                  ./startup/startup_mimxrt1052.o
SNVS_HP_WRAPPER_IRQHandler                        ./startup/startup_mimxrt1052.o
SNVS_HP_WRAPPER_TZ_DriverIRQHandler               ./startup/startup_mimxrt1052.o
SNVS_HP_WRAPPER_TZ_IRQHandler                     ./startup/startup_mimxrt1052.o
SNVS_LP_WRAPPER_DriverIRQHandler                  ./startup/startup_mimxrt1052.o
SNVS_LP_WRAPPER_IRQHandler                        ./startup/startup_mimxrt1052.o
SPDIF_DriverIRQHandler                            ./startup/startup_mimxrt1052.o
SPDIF_IRQHandler                                  ./startup/startup_mimxrt1052.o
SRC_DriverIRQHandler                              ./startup/startup_mimxrt1052.o
SRC_IRQHandler                                    ./startup/startup_mimxrt1052.o
SVC_Handler                                       ./startup/startup_mimxrt1052.o
SysTick_Handler                                   ./startup/startup_mimxrt1052.o
SystemCoreClock                                   ./device/system_MIMXRT1052.o
                                                  ./board/clock_config.o
SystemCoreClockUpdate                             ./device/system_MIMXRT1052.o
SystemInit                                        ./device/system_MIMXRT1052.o
                                                  ./startup/startup_mimxrt1052.o
SystemInitHook                                    ./device/system_MIMXRT1052.o
TEMP_LOW_HIGH_DriverIRQHandler                    ./startup/startup_mimxrt1052.o
TEMP_LOW_HIGH_IRQHandler                          ./startup/startup_mimxrt1052.o
TEMP_PANIC_DriverIRQHandler                       ./startup/startup_mimxrt1052.o
TEMP_PANIC_IRQHandler                             ./startup/startup_mimxrt1052.o
TMR1_DriverIRQHandler                             ./startup/startup_mimxrt1052.o
TMR1_IRQHandler                                   ./startup/startup_mimxrt1052.o
TMR2_DriverIRQHandler                             ./startup/startup_mimxrt1052.o
TMR2_IRQHandler                                   ./startup/startup_mimxrt1052.o
TMR3_DriverIRQHandler                             ./startup/startup_mimxrt1052.o
TMR3_IRQHandler                                   ./startup/startup_mimxrt1052.o
TMR4_DriverIRQHandler                             ./startup/startup_mimxrt1052.o
TMR4_IRQHandler                                   ./startup/startup_mimxrt1052.o
TRNG_DriverIRQHandler                             ./startup/startup_mimxrt1052.o
TRNG_IRQHandler                                   ./startup/startup_mimxrt1052.o
TSC_DIG_DriverIRQHandler                          ./startup/startup_mimxrt1052.o
TSC_DIG_IRQHandler                                ./startup/startup_mimxrt1052.o
USB_OTG1_DriverIRQHandler                         ./startup/startup_mimxrt1052.o
USB_OTG1_IRQHandler                               ./startup/startup_mimxrt1052.o
USB_OTG2_DriverIRQHandler                         ./startup/startup_mimxrt1052.o
USB_OTG2_IRQHandler                               ./startup/startup_mimxrt1052.o
USB_PHY1_DriverIRQHandler                         ./startup/startup_mimxrt1052.o
USB_PHY1_IRQHandler                               ./startup/startup_mimxrt1052.o
USB_PHY2_DriverIRQHandler                         ./startup/startup_mimxrt1052.o
USB_PHY2_IRQHandler                               ./startup/startup_mimxrt1052.o
USDHC1_DriverIRQHandler                           ./startup/startup_mimxrt1052.o
USDHC1_IRQHandler                                 ./startup/startup_mimxrt1052.o
USDHC2_DriverIRQHandler                           ./startup/startup_mimxrt1052.o
USDHC2_IRQHandler                                 ./startup/startup_mimxrt1052.o
UsageFault_Handler                                ./startup/startup_mimxrt1052.o
WDOG1_DriverIRQHandler                            ./startup/startup_mimxrt1052.o
WDOG1_IRQHandler                                  ./startup/startup_mimxrt1052.o
WDOG2_DriverIRQHandler                            ./startup/startup_mimxrt1052.o
WDOG2_IRQHandler                                  ./startup/startup_mimxrt1052.o
XBAR1_IRQ_0_1_DriverIRQHandler                    ./startup/startup_mimxrt1052.o
XBAR1_IRQ_0_1_IRQHandler                          ./startup/startup_mimxrt1052.o
XBAR1_IRQ_2_3_DriverIRQHandler                    ./startup/startup_mimxrt1052.o
XBAR1_IRQ_2_3_IRQHandler                          ./startup/startup_mimxrt1052.o
_Csys_alloc                                       c:/nxp/mcuxpressoide_11.6.1_8255/ide/plugins/com.nxp.mcuxpresso.tools.win32_11.6.1.202207200623/tools/bin/../lib/gcc/arm-none-eabi/10.3.1/../../../../arm-none-eabi/lib/thumb/v7e-m+dp/hard\libcr_c.a(alloc.o)
                                                  c:/nxp/mcuxpressoide_11.6.1_8255/ide/plugins/com.nxp.mcuxpresso.tools.win32_11.6.1.202207200623/tools/bin/../lib/gcc/arm-none-eabi/10.3.1/../../../../arm-none-eabi/lib/thumb/v7e-m+dp/hard\libcr_c.a(_deferredlazyseek.o)
_Cwritebuf                                        c:/nxp/mcuxpressoide_11.6.1_8255/ide/plugins/com.nxp.mcuxpresso.tools.win32_11.6.1.202207200623/tools/bin/../lib/gcc/arm-none-eabi/10.3.1/../../../../arm-none-eabi/lib/thumb/v7e-m+dp/hard\libcr_c.a(_writebuf.o)
                                                  c:/nxp/mcuxpressoide_11.6.1_8255/ide/plugins/com.nxp.mcuxpresso.tools.win32_11.6.1.202207200623/tools/bin/../lib/gcc/arm-none-eabi/10.3.1/../../../../arm-none-eabi/lib/thumb/v7e-m+dp/hard\libcr_c.a(_deferredlazyseek.o)
                                                  c:/nxp/mcuxpressoide_11.6.1_8255/ide/plugins/com.nxp.mcuxpresso.tools.win32_11.6.1.202207200623/tools/bin/../lib/gcc/arm-none-eabi/10.3.1/../../../../arm-none-eabi/lib/thumb/v7e-m+dp/hard\libcr_c.a(_fflush.o)
__Ciob                                            c:/nxp/mcuxpressoide_11.6.1_8255/ide/plugins/com.nxp.mcuxpresso.tools.win32_11.6.1.202207200623/tools/bin/../lib/gcc/arm-none-eabi/10.3.1/../../../../arm-none-eabi/lib/thumb/v7e-m+dp/hard\libcr_nohost_nf.a(__ciob.o)
                                                  c:/nxp/mcuxpressoide_11.6.1_8255/ide/plugins/com.nxp.mcuxpresso.tools.win32_11.6.1.202207200623/tools/bin/../lib/gcc/arm-none-eabi/10.3.1/../../../../arm-none-eabi/lib/thumb/v7e-m+dp/hard\libcr_c.a(fflush.o)
                                                  c:/nxp/mcuxpressoide_11.6.1_8255/ide/plugins/com.nxp.mcuxpresso.tools.win32_11.6.1.202207200623/tools/bin/../lib/gcc/arm-none-eabi/10.3.1/../../../../arm-none-eabi/lib/thumb/v7e-m+dp/hard\libcr_c.a(initio.o)
__Vectors                                         ./startup/startup_mimxrt1052.o
                                                  ./xip/fsl_flexspi_nor_boot.o
__aeabi_idiv0                                     c:/nxp/mcuxpressoide_11.6.1_8255/ide/plugins/com.nxp.mcuxpresso.tools.win32_11.6.1.202207200623/tools/bin/../lib/gcc/arm-none-eabi/10.3.1/thumb/v7e-m+dp/hard\libcr_eabihelpers.a(division_idiv0.o)
                                                  c:/nxp/mcuxpressoide_11.6.1_8255/ide/plugins/com.nxp.mcuxpresso.tools.win32_11.6.1.202207200623/tools/bin/../lib/gcc/arm-none-eabi/10.3.1/thumb/v7e-m+dp/hard\libcr_eabihelpers.a(division_64.o)
__aeabi_ldivmod                                   c:/nxp/mcuxpressoide_11.6.1_8255/ide/plugins/com.nxp.mcuxpresso.tools.win32_11.6.1.202207200623/tools/bin/../lib/gcc/arm-none-eabi/10.3.1/thumb/v7e-m+dp/hard\libcr_eabihelpers.a(division_64.o)
__aeabi_lowlevel_memset                           c:/nxp/mcuxpressoide_11.6.1_8255/ide/plugins/com.nxp.mcuxpresso.tools.win32_11.6.1.202207200623/tools/bin/../lib/gcc/arm-none-eabi/10.3.1/thumb/v7e-m+dp/hard\libcr_eabihelpers.a(memcpy.o)
                                                  c:/nxp/mcuxpressoide_11.6.1_8255/ide/plugins/com.nxp.mcuxpresso.tools.win32_11.6.1.202207200623/tools/bin/../lib/gcc/arm-none-eabi/10.3.1/../../../../arm-none-eabi/lib/thumb/v7e-m+dp/hard\libcr_c.a(memset.o)
__aeabi_memclr                                    c:/nxp/mcuxpressoide_11.6.1_8255/ide/plugins/com.nxp.mcuxpresso.tools.win32_11.6.1.202207200623/tools/bin/../lib/gcc/arm-none-eabi/10.3.1/thumb/v7e-m+dp/hard\libcr_eabihelpers.a(memcpy.o)
__aeabi_memclr4                                   c:/nxp/mcuxpressoide_11.6.1_8255/ide/plugins/com.nxp.mcuxpresso.tools.win32_11.6.1.202207200623/tools/bin/../lib/gcc/arm-none-eabi/10.3.1/thumb/v7e-m+dp/hard\libcr_eabihelpers.a(memcpy.o)
__aeabi_memclr8                                   c:/nxp/mcuxpressoide_11.6.1_8255/ide/plugins/com.nxp.mcuxpresso.tools.win32_11.6.1.202207200623/tools/bin/../lib/gcc/arm-none-eabi/10.3.1/thumb/v7e-m+dp/hard\libcr_eabihelpers.a(memcpy.o)
__aeabi_memcpy                                    c:/nxp/mcuxpressoide_11.6.1_8255/ide/plugins/com.nxp.mcuxpresso.tools.win32_11.6.1.202207200623/tools/bin/../lib/gcc/arm-none-eabi/10.3.1/thumb/v7e-m+dp/hard\libcr_eabihelpers.a(memcpy.o)
                                                  c:/nxp/mcuxpressoide_11.6.1_8255/ide/plugins/com.nxp.mcuxpresso.tools.win32_11.6.1.202207200623/tools/bin/../lib/gcc/arm-none-eabi/10.3.1/../../../../arm-none-eabi/lib/thumb/v7e-m+dp/hard\libcr_c.a(memcpy.o)
__aeabi_memcpy4                                   c:/nxp/mcuxpressoide_11.6.1_8255/ide/plugins/com.nxp.mcuxpresso.tools.win32_11.6.1.202207200623/tools/bin/../lib/gcc/arm-none-eabi/10.3.1/thumb/v7e-m+dp/hard\libcr_eabihelpers.a(memcpy.o)
__aeabi_memcpy8                                   c:/nxp/mcuxpressoide_11.6.1_8255/ide/plugins/com.nxp.mcuxpresso.tools.win32_11.6.1.202207200623/tools/bin/../lib/gcc/arm-none-eabi/10.3.1/thumb/v7e-m+dp/hard\libcr_eabihelpers.a(memcpy.o)
__aeabi_memmove                                   c:/nxp/mcuxpressoide_11.6.1_8255/ide/plugins/com.nxp.mcuxpresso.tools.win32_11.6.1.202207200623/tools/bin/../lib/gcc/arm-none-eabi/10.3.1/thumb/v7e-m+dp/hard\libcr_eabihelpers.a(memcpy.o)
__aeabi_memmove4                                  c:/nxp/mcuxpressoide_11.6.1_8255/ide/plugins/com.nxp.mcuxpresso.tools.win32_11.6.1.202207200623/tools/bin/../lib/gcc/arm-none-eabi/10.3.1/thumb/v7e-m+dp/hard\libcr_eabihelpers.a(memcpy.o)
__aeabi_memmove8                                  c:/nxp/mcuxpressoide_11.6.1_8255/ide/plugins/com.nxp.mcuxpresso.tools.win32_11.6.1.202207200623/tools/bin/../lib/gcc/arm-none-eabi/10.3.1/thumb/v7e-m+dp/hard\libcr_eabihelpers.a(memcpy.o)
__aeabi_memset                                    c:/nxp/mcuxpressoide_11.6.1_8255/ide/plugins/com.nxp.mcuxpresso.tools.win32_11.6.1.202207200623/tools/bin/../lib/gcc/arm-none-eabi/10.3.1/thumb/v7e-m+dp/hard\libcr_eabihelpers.a(memcpy.o)
__aeabi_memset4                                   c:/nxp/mcuxpressoide_11.6.1_8255/ide/plugins/com.nxp.mcuxpresso.tools.win32_11.6.1.202207200623/tools/bin/../lib/gcc/arm-none-eabi/10.3.1/thumb/v7e-m+dp/hard\libcr_eabihelpers.a(memcpy.o)
__aeabi_memset8                                   c:/nxp/mcuxpressoide_11.6.1_8255/ide/plugins/com.nxp.mcuxpresso.tools.win32_11.6.1.202207200623/tools/bin/../lib/gcc/arm-none-eabi/10.3.1/thumb/v7e-m+dp/hard\libcr_eabihelpers.a(memcpy.o)
__aeabi_uldivmod                                  c:/nxp/mcuxpressoide_11.6.1_8255/ide/plugins/com.nxp.mcuxpresso.tools.win32_11.6.1.202207200623/tools/bin/../lib/gcc/arm-none-eabi/10.3.1/thumb/v7e-m+dp/hard\libcr_eabihelpers.a(division_64.o)
                                                  ./device/system_MIMXRT1052.o
                                                  ./drivers/fsl_common_arm.o
__assertion_failed                                ./utilities/fsl_assert.o
                                                  ./board/pin_mux.o
                                                  ./board/clock_config.o
                                                  ./board/board.o
                                                  ./component/silicon_id/fsl_silicon_id.o
                                                  ./component/uart/fsl_adapter_lpuart.o
                                                  ./drivers/fsl_lpuart.o
                                                  ./drivers/fsl_gpio.o
                                                  ./drivers/fsl_common_arm.o
                                                  ./drivers/fsl_clock.o
__base_NCACHE_REGION                              ./board/board.o
__bhs_ldivmod1                                    c:/nxp/mcuxpressoide_11.6.1_8255/ide/plugins/com.nxp.mcuxpresso.tools.win32_11.6.1.202207200623/tools/bin/../lib/gcc/arm-none-eabi/10.3.1/thumb/v7e-m+dp/hard\libcr_eabihelpers.a(division_64.o)
__bss_section_table_end                           ./startup/startup_mimxrt1052.o
__check_heap_overflow                             c:/nxp/mcuxpressoide_11.6.1_8255/ide/plugins/com.nxp.mcuxpresso.tools.win32_11.6.1.202207200623/tools/bin/../lib/gcc/arm-none-eabi/10.3.1/../../../../arm-none-eabi/lib/thumb/v7e-m+dp/hard\libcr_c.a(_cr_check_heap.o)
                                                  c:/nxp/mcuxpressoide_11.6.1_8255/ide/plugins/com.nxp.mcuxpresso.tools.win32_11.6.1.202207200623/tools/bin/../lib/gcc/arm-none-eabi/10.3.1/../../../../arm-none-eabi/lib/thumb/v7e-m+dp/hard\libcr_c.a(_cr_sbrk.o)
__data_section_table                              ./startup/startup_mimxrt1052.o
__data_section_table_end                          ./startup/startup_mimxrt1052.o
__end_of_heap                                     c:/nxp/mcuxpressoide_11.6.1_8255/ide/plugins/com.nxp.mcuxpresso.tools.win32_11.6.1.202207200623/tools/bin/../lib/gcc/arm-none-eabi/10.3.1/../../../../arm-none-eabi/lib/thumb/v7e-m+dp/hard\libcr_c.a(__init_alloc.o)
                                                  c:/nxp/mcuxpressoide_11.6.1_8255/ide/plugins/com.nxp.mcuxpresso.tools.win32_11.6.1.202207200623/tools/bin/../lib/gcc/arm-none-eabi/10.3.1/../../../../arm-none-eabi/lib/thumb/v7e-m+dp/hard\libcr_c.a(_cr_sbrk.o)
__exit                                            c:/nxp/mcuxpressoide_11.6.1_8255/ide/plugins/com.nxp.mcuxpresso.tools.win32_11.6.1.202207200623/tools/bin/../lib/gcc/arm-none-eabi/10.3.1/../../../../arm-none-eabi/lib/thumb/v7e-m+dp/hard\libcr_nohost_nf.a(__sys_appexit.o)
__flsbuf                                          c:/nxp/mcuxpressoide_11.6.1_8255/ide/plugins/com.nxp.mcuxpresso.tools.win32_11.6.1.202207200623/tools/bin/../lib/gcc/arm-none-eabi/10.3.1/../../../../arm-none-eabi/lib/thumb/v7e-m+dp/hard\libcr_c.a(_deferredlazyseek.o)
__heaps                                           c:/nxp/mcuxpressoide_11.6.1_8255/ide/plugins/com.nxp.mcuxpresso.tools.win32_11.6.1.202207200623/tools/bin/../lib/gcc/arm-none-eabi/10.3.1/../../../../arm-none-eabi/lib/thumb/v7e-m+dp/hard\libcr_c.a(__init_alloc.o)
                                                  c:/nxp/mcuxpressoide_11.6.1_8255/ide/plugins/com.nxp.mcuxpresso.tools.win32_11.6.1.202207200623/tools/bin/../lib/gcc/arm-none-eabi/10.3.1/../../../../arm-none-eabi/lib/thumb/v7e-m+dp/hard\libcr_c.a(alloc.o)
__main                                            c:/nxp/mcuxpressoide_11.6.1_8255/ide/plugins/com.nxp.mcuxpresso.tools.win32_11.6.1.202207200623/tools/bin/../lib/gcc/arm-none-eabi/10.3.1/../../../../arm-none-eabi/lib/thumb/v7e-m+dp/hard\libcr_nohost_nf.a(_cr__main.o)
                                                  ./startup/startup_mimxrt1052.o
__num_Ciob_streams                                c:/nxp/mcuxpressoide_11.6.1_8255/ide/plugins/com.nxp.mcuxpresso.tools.win32_11.6.1.202207200623/tools/bin/../lib/gcc/arm-none-eabi/10.3.1/../../../../arm-none-eabi/lib/thumb/v7e-m+dp/hard\libcr_nohost_nf.a(__ciob.o)
                                                  c:/nxp/mcuxpressoide_11.6.1_8255/ide/plugins/com.nxp.mcuxpresso.tools.win32_11.6.1.202207200623/tools/bin/../lib/gcc/arm-none-eabi/10.3.1/../../../../arm-none-eabi/lib/thumb/v7e-m+dp/hard\libcr_c.a(fflush.o)
                                                  c:/nxp/mcuxpressoide_11.6.1_8255/ide/plugins/com.nxp.mcuxpresso.tools.win32_11.6.1.202207200623/tools/bin/../lib/gcc/arm-none-eabi/10.3.1/../../../../arm-none-eabi/lib/thumb/v7e-m+dp/hard\libcr_c.a(initio.o)
__sys_appexit                                     c:/nxp/mcuxpressoide_11.6.1_8255/ide/plugins/com.nxp.mcuxpresso.tools.win32_11.6.1.202207200623/tools/bin/../lib/gcc/arm-none-eabi/10.3.1/../../../../arm-none-eabi/lib/thumb/v7e-m+dp/hard\libcr_nohost_nf.a(__sys_appexit.o)
                                                  c:/nxp/mcuxpressoide_11.6.1_8255/ide/plugins/com.nxp.mcuxpresso.tools.win32_11.6.1.202207200623/tools/bin/../lib/gcc/arm-none-eabi/10.3.1/../../../../arm-none-eabi/lib/thumb/v7e-m+dp/hard\libcr_c.a(alloc.o)
__sys_close                                       c:/nxp/mcuxpressoide_11.6.1_8255/ide/plugins/com.nxp.mcuxpresso.tools.win32_11.6.1.202207200623/tools/bin/../lib/gcc/arm-none-eabi/10.3.1/../../../../arm-none-eabi/lib/thumb/v7e-m+dp/hard\libcr_nohost_nf.a(__sys_close.o)
                                                  c:/nxp/mcuxpressoide_11.6.1_8255/ide/plugins/com.nxp.mcuxpresso.tools.win32_11.6.1.202207200623/tools/bin/../lib/gcc/arm-none-eabi/10.3.1/../../../../arm-none-eabi/lib/thumb/v7e-m+dp/hard\libcr_c.a(fclose.o)
__sys_flen                                        c:/nxp/mcuxpressoide_11.6.1_8255/ide/plugins/com.nxp.mcuxpresso.tools.win32_11.6.1.202207200623/tools/bin/../lib/gcc/arm-none-eabi/10.3.1/../../../../arm-none-eabi/lib/thumb/v7e-m+dp/hard\libcr_nohost_nf.a(__sys_flen.o)
                                                  c:/nxp/mcuxpressoide_11.6.1_8255/ide/plugins/com.nxp.mcuxpresso.tools.win32_11.6.1.202207200623/tools/bin/../lib/gcc/arm-none-eabi/10.3.1/../../../../arm-none-eabi/lib/thumb/v7e-m+dp/hard\libcr_c.a(_writebuf.o)
                                                  c:/nxp/mcuxpressoide_11.6.1_8255/ide/plugins/com.nxp.mcuxpresso.tools.win32_11.6.1.202207200623/tools/bin/../lib/gcc/arm-none-eabi/10.3.1/../../../../arm-none-eabi/lib/thumb/v7e-m+dp/hard\libcr_c.a(fseek.o)
__sys_istty                                       c:/nxp/mcuxpressoide_11.6.1_8255/ide/plugins/com.nxp.mcuxpresso.tools.win32_11.6.1.202207200623/tools/bin/../lib/gcc/arm-none-eabi/10.3.1/../../../../arm-none-eabi/lib/thumb/v7e-m+dp/hard\libcr_nohost_nf.a(__sys_istty.o)
                                                  c:/nxp/mcuxpressoide_11.6.1_8255/ide/plugins/com.nxp.mcuxpresso.tools.win32_11.6.1.202207200623/tools/bin/../lib/gcc/arm-none-eabi/10.3.1/../../../../arm-none-eabi/lib/thumb/v7e-m+dp/hard\libcr_c.a(_deferredlazyseek.o)
                                                  c:/nxp/mcuxpressoide_11.6.1_8255/ide/plugins/com.nxp.mcuxpresso.tools.win32_11.6.1.202207200623/tools/bin/../lib/gcc/arm-none-eabi/10.3.1/../../../../arm-none-eabi/lib/thumb/v7e-m+dp/hard\libcr_c.a(fseek.o)
__sys_remove                                      c:/nxp/mcuxpressoide_11.6.1_8255/ide/plugins/com.nxp.mcuxpresso.tools.win32_11.6.1.202207200623/tools/bin/../lib/gcc/arm-none-eabi/10.3.1/../../../../arm-none-eabi/lib/thumb/v7e-m+dp/hard\libcr_nohost_nf.a(__sys_remove.o)
                                                  c:/nxp/mcuxpressoide_11.6.1_8255/ide/plugins/com.nxp.mcuxpresso.tools.win32_11.6.1.202207200623/tools/bin/../lib/gcc/arm-none-eabi/10.3.1/../../../../arm-none-eabi/lib/thumb/v7e-m+dp/hard\libcr_c.a(remove.o)
__sys_rename                                      c:/nxp/mcuxpressoide_11.6.1_8255/ide/plugins/com.nxp.mcuxpresso.tools.win32_11.6.1.202207200623/tools/bin/../lib/gcc/arm-none-eabi/10.3.1/../../../../arm-none-eabi/lib/thumb/v7e-m+dp/hard\libcr_nohost_nf.a(__sys_rename.o)
                                                  c:/nxp/mcuxpressoide_11.6.1_8255/ide/plugins/com.nxp.mcuxpresso.tools.win32_11.6.1.202207200623/tools/bin/../lib/gcc/arm-none-eabi/10.3.1/../../../../arm-none-eabi/lib/thumb/v7e-m+dp/hard\libcr_c.a(remove.o)
__sys_seek                                        c:/nxp/mcuxpressoide_11.6.1_8255/ide/plugins/com.nxp.mcuxpresso.tools.win32_11.6.1.202207200623/tools/bin/../lib/gcc/arm-none-eabi/10.3.1/../../../../arm-none-eabi/lib/thumb/v7e-m+dp/hard\libcr_nohost_nf.a(__sys_seek.o)
                                                  c:/nxp/mcuxpressoide_11.6.1_8255/ide/plugins/com.nxp.mcuxpresso.tools.win32_11.6.1.202207200623/tools/bin/../lib/gcc/arm-none-eabi/10.3.1/../../../../arm-none-eabi/lib/thumb/v7e-m+dp/hard\libcr_c.a(_writebuf.o)
__sys_tmpnam                                      c:/nxp/mcuxpressoide_11.6.1_8255/ide/plugins/com.nxp.mcuxpresso.tools.win32_11.6.1.202207200623/tools/bin/../lib/gcc/arm-none-eabi/10.3.1/../../../../arm-none-eabi/lib/thumb/v7e-m+dp/hard\libcr_nohost_nf.a(__sys_tmpnam.o)
                                                  c:/nxp/mcuxpressoide_11.6.1_8255/ide/plugins/com.nxp.mcuxpresso.tools.win32_11.6.1.202207200623/tools/bin/../lib/gcc/arm-none-eabi/10.3.1/../../../../arm-none-eabi/lib/thumb/v7e-m+dp/hard\libcr_c.a(fclose.o)
__sys_write                                       c:/nxp/mcuxpressoide_11.6.1_8255/ide/plugins/com.nxp.mcuxpresso.tools.win32_11.6.1.202207200623/tools/bin/../lib/gcc/arm-none-eabi/10.3.1/../../../../arm-none-eabi/lib/thumb/v7e-m+dp/hard\libcr_nohost_nf.a(__sys_write.o)
                                                  c:/nxp/mcuxpressoide_11.6.1_8255/ide/plugins/com.nxp.mcuxpresso.tools.win32_11.6.1.202207200623/tools/bin/../lib/gcc/arm-none-eabi/10.3.1/../../../../arm-none-eabi/lib/thumb/v7e-m+dp/hard\libcr_c.a(_writebuf.o)
                                                  c:/nxp/mcuxpressoide_11.6.1_8255/ide/plugins/com.nxp.mcuxpresso.tools.win32_11.6.1.202207200623/tools/bin/../lib/gcc/arm-none-eabi/10.3.1/../../../../arm-none-eabi/lib/thumb/v7e-m+dp/hard\libcr_c.a(alloc.o)
__top_NCACHE_REGION                               ./board/board.o
_deferredlazyseek                                 c:/nxp/mcuxpressoide_11.6.1_8255/ide/plugins/com.nxp.mcuxpresso.tools.win32_11.6.1.202207200623/tools/bin/../lib/gcc/arm-none-eabi/10.3.1/../../../../arm-none-eabi/lib/thumb/v7e-m+dp/hard\libcr_c.a(_deferredlazyseek.o)
                                                  c:/nxp/mcuxpressoide_11.6.1_8255/ide/plugins/com.nxp.mcuxpresso.tools.win32_11.6.1.202207200623/tools/bin/../lib/gcc/arm-none-eabi/10.3.1/../../../../arm-none-eabi/lib/thumb/v7e-m+dp/hard\libcr_c.a(_do_fflush.o)
_do_fflush                                        c:/nxp/mcuxpressoide_11.6.1_8255/ide/plugins/com.nxp.mcuxpresso.tools.win32_11.6.1.202207200623/tools/bin/../lib/gcc/arm-none-eabi/10.3.1/../../../../arm-none-eabi/lib/thumb/v7e-m+dp/hard\libcr_c.a(_do_fflush.o)
                                                  c:/nxp/mcuxpressoide_11.6.1_8255/ide/plugins/com.nxp.mcuxpresso.tools.win32_11.6.1.202207200623/tools/bin/../lib/gcc/arm-none-eabi/10.3.1/../../../../arm-none-eabi/lib/thumb/v7e-m+dp/hard\libcr_c.a(fflush.o)
_fdopen                                           c:/nxp/mcuxpressoide_11.6.1_8255/ide/plugins/com.nxp.mcuxpresso.tools.win32_11.6.1.202207200623/tools/bin/../lib/gcc/arm-none-eabi/10.3.1/../../../../arm-none-eabi/lib/thumb/v7e-m+dp/hard\libcr_c.a(_fdopen.o)
                                                  c:/nxp/mcuxpressoide_11.6.1_8255/ide/plugins/com.nxp.mcuxpresso.tools.win32_11.6.1.202207200623/tools/bin/../lib/gcc/arm-none-eabi/10.3.1/../../../../arm-none-eabi/lib/thumb/v7e-m+dp/hard\libcr_c.a(initio.o)
_fflush                                           c:/nxp/mcuxpressoide_11.6.1_8255/ide/plugins/com.nxp.mcuxpresso.tools.win32_11.6.1.202207200623/tools/bin/../lib/gcc/arm-none-eabi/10.3.1/../../../../arm-none-eabi/lib/thumb/v7e-m+dp/hard\libcr_c.a(_fflush.o)
                                                  c:/nxp/mcuxpressoide_11.6.1_8255/ide/plugins/com.nxp.mcuxpresso.tools.win32_11.6.1.202207200623/tools/bin/../lib/gcc/arm-none-eabi/10.3.1/../../../../arm-none-eabi/lib/thumb/v7e-m+dp/hard\libcr_c.a(_deferredlazyseek.o)
                                                  c:/nxp/mcuxpressoide_11.6.1_8255/ide/plugins/com.nxp.mcuxpresso.tools.win32_11.6.1.202207200623/tools/bin/../lib/gcc/arm-none-eabi/10.3.1/../../../../arm-none-eabi/lib/thumb/v7e-m+dp/hard\libcr_c.a(_do_fflush.o)
_init_alloc                                       c:/nxp/mcuxpressoide_11.6.1_8255/ide/plugins/com.nxp.mcuxpresso.tools.win32_11.6.1.202207200623/tools/bin/../lib/gcc/arm-none-eabi/10.3.1/../../../../arm-none-eabi/lib/thumb/v7e-m+dp/hard\libcr_c.a(__init_alloc.o)
_initio                                           c:/nxp/mcuxpressoide_11.6.1_8255/ide/plugins/com.nxp.mcuxpresso.tools.win32_11.6.1.202207200623/tools/bin/../lib/gcc/arm-none-eabi/10.3.1/../../../../arm-none-eabi/lib/thumb/v7e-m+dp/hard\libcr_c.a(initio.o)
                                                  c:/nxp/mcuxpressoide_11.6.1_8255/ide/plugins/com.nxp.mcuxpresso.tools.win32_11.6.1.202207200623/tools/bin/../lib/gcc/arm-none-eabi/10.3.1/../../../../arm-none-eabi/lib/thumb/v7e-m+dp/hard\libcr_nohost_nf.a(_cr__main.o)
_pvHeapLimit                                      c:/nxp/mcuxpressoide_11.6.1_8255/ide/plugins/com.nxp.mcuxpresso.tools.win32_11.6.1.202207200623/tools/bin/../lib/gcc/arm-none-eabi/10.3.1/../../../../arm-none-eabi/lib/thumb/v7e-m+dp/hard\libcr_c.a(_cr_check_heap.o)
_pvHeapStart                                      c:/nxp/mcuxpressoide_11.6.1_8255/ide/plugins/com.nxp.mcuxpresso.tools.win32_11.6.1.202207200623/tools/bin/../lib/gcc/arm-none-eabi/10.3.1/../../../../arm-none-eabi/lib/thumb/v7e-m+dp/hard\libcr_c.a(_cr_sbrk.o)
_sbrk                                             c:/nxp/mcuxpressoide_11.6.1_8255/ide/plugins/com.nxp.mcuxpresso.tools.win32_11.6.1.202207200623/tools/bin/../lib/gcc/arm-none-eabi/10.3.1/../../../../arm-none-eabi/lib/thumb/v7e-m+dp/hard\libcr_c.a(_cr_sbrk.o)
                                                  c:/nxp/mcuxpressoide_11.6.1_8255/ide/plugins/com.nxp.mcuxpresso.tools.win32_11.6.1.202207200623/tools/bin/../lib/gcc/arm-none-eabi/10.3.1/../../../../arm-none-eabi/lib/thumb/v7e-m+dp/hard\libcr_c.a(alloc.o)
_terminateio                                      c:/nxp/mcuxpressoide_11.6.1_8255/ide/plugins/com.nxp.mcuxpresso.tools.win32_11.6.1.202207200623/tools/bin/../lib/gcc/arm-none-eabi/10.3.1/../../../../arm-none-eabi/lib/thumb/v7e-m+dp/hard\libcr_c.a(initio.o)
_vStackTop                                        ./startup/startup_mimxrt1052.o
app_finalize                                      ./source/flexspi_romapi.o
armPllConfig_BOARD_BootClockRUN                   ./board/clock_config.o
bss_init                                          ./startup/startup_mimxrt1052.o
calloc                                            c:/nxp/mcuxpressoide_11.6.1_8255/ide/plugins/com.nxp.mcuxpresso.tools.win32_11.6.1.202207200623/tools/bin/../lib/gcc/arm-none-eabi/10.3.1/../../../../arm-none-eabi/lib/thumb/v7e-m+dp/hard\libcr_c.a(alloc.o)
data_init                                         ./startup/startup_mimxrt1052.o
dcd_data                                          ./board/dcd.o
errno                                             c:/nxp/mcuxpressoide_11.6.1_8255/ide/plugins/com.nxp.mcuxpresso.tools.win32_11.6.1.202207200623/tools/bin/../lib/gcc/arm-none-eabi/10.3.1/../../../../arm-none-eabi/lib/thumb/v7e-m+dp/hard\libcr_c.a(errno.o)
                                                  c:/nxp/mcuxpressoide_11.6.1_8255/ide/plugins/com.nxp.mcuxpresso.tools.win32_11.6.1.202207200623/tools/bin/../lib/gcc/arm-none-eabi/10.3.1/../../../../arm-none-eabi/lib/thumb/v7e-m+dp/hard\libcr_c.a(ftell.o)
                                                  c:/nxp/mcuxpressoide_11.6.1_8255/ide/plugins/com.nxp.mcuxpresso.tools.win32_11.6.1.202207200623/tools/bin/../lib/gcc/arm-none-eabi/10.3.1/../../../../arm-none-eabi/lib/thumb/v7e-m+dp/hard\libcr_c.a(_cr_sbrk.o)
error_trap                                        ./source/flexspi_romapi.o
fclose                                            c:/nxp/mcuxpressoide_11.6.1_8255/ide/plugins/com.nxp.mcuxpresso.tools.win32_11.6.1.202207200623/tools/bin/../lib/gcc/arm-none-eabi/10.3.1/../../../../arm-none-eabi/lib/thumb/v7e-m+dp/hard\libcr_c.a(fclose.o)
                                                  c:/nxp/mcuxpressoide_11.6.1_8255/ide/plugins/com.nxp.mcuxpresso.tools.win32_11.6.1.202207200623/tools/bin/../lib/gcc/arm-none-eabi/10.3.1/../../../../arm-none-eabi/lib/thumb/v7e-m+dp/hard\libcr_c.a(_fdopen.o)
                                                  c:/nxp/mcuxpressoide_11.6.1_8255/ide/plugins/com.nxp.mcuxpresso.tools.win32_11.6.1.202207200623/tools/bin/../lib/gcc/arm-none-eabi/10.3.1/../../../../arm-none-eabi/lib/thumb/v7e-m+dp/hard\libcr_c.a(initio.o)
fflush                                            c:/nxp/mcuxpressoide_11.6.1_8255/ide/plugins/com.nxp.mcuxpresso.tools.win32_11.6.1.202207200623/tools/bin/../lib/gcc/arm-none-eabi/10.3.1/../../../../arm-none-eabi/lib/thumb/v7e-m+dp/hard\libcr_c.a(fflush.o)
                                                  c:/nxp/mcuxpressoide_11.6.1_8255/ide/plugins/com.nxp.mcuxpresso.tools.win32_11.6.1.202207200623/tools/bin/../lib/gcc/arm-none-eabi/10.3.1/../../../../arm-none-eabi/lib/thumb/v7e-m+dp/hard\libcr_c.a(fclose.o)
flexspi_nor_handle_cache                          ./source/flexspi_romapi.o
free                                              c:/nxp/mcuxpressoide_11.6.1_8255/ide/plugins/com.nxp.mcuxpresso.tools.win32_11.6.1.202207200623/tools/bin/../lib/gcc/arm-none-eabi/10.3.1/../../../../arm-none-eabi/lib/thumb/v7e-m+dp/hard\libcr_c.a(alloc.o)
                                                  c:/nxp/mcuxpressoide_11.6.1_8255/ide/plugins/com.nxp.mcuxpresso.tools.win32_11.6.1.202207200623/tools/bin/../lib/gcc/arm-none-eabi/10.3.1/../../../../arm-none-eabi/lib/thumb/v7e-m+dp/hard\libcr_c.a(fclose.o)
                                                  ./drivers/fsl_common.o
fseek                                             c:/nxp/mcuxpressoide_11.6.1_8255/ide/plugins/com.nxp.mcuxpresso.tools.win32_11.6.1.202207200623/tools/bin/../lib/gcc/arm-none-eabi/10.3.1/../../../../arm-none-eabi/lib/thumb/v7e-m+dp/hard\libcr_c.a(fseek.o)
                                                  c:/nxp/mcuxpressoide_11.6.1_8255/ide/plugins/com.nxp.mcuxpresso.tools.win32_11.6.1.202207200623/tools/bin/../lib/gcc/arm-none-eabi/10.3.1/../../../../arm-none-eabi/lib/thumb/v7e-m+dp/hard\libcr_c.a(_deferredlazyseek.o)
                                                  c:/nxp/mcuxpressoide_11.6.1_8255/ide/plugins/com.nxp.mcuxpresso.tools.win32_11.6.1.202207200623/tools/bin/../lib/gcc/arm-none-eabi/10.3.1/../../../../arm-none-eabi/lib/thumb/v7e-m+dp/hard\libcr_c.a(_do_fflush.o)
                                                  c:/nxp/mcuxpressoide_11.6.1_8255/ide/plugins/com.nxp.mcuxpresso.tools.win32_11.6.1.202207200623/tools/bin/../lib/gcc/arm-none-eabi/10.3.1/../../../../arm-none-eabi/lib/thumb/v7e-m+dp/hard\libcr_c.a(_fdopen.o)
ftell                                             c:/nxp/mcuxpressoide_11.6.1_8255/ide/plugins/com.nxp.mcuxpresso.tools.win32_11.6.1.202207200623/tools/bin/../lib/gcc/arm-none-eabi/10.3.1/../../../../arm-none-eabi/lib/thumb/v7e-m+dp/hard\libcr_c.a(ftell.o)
                                                  c:/nxp/mcuxpressoide_11.6.1_8255/ide/plugins/com.nxp.mcuxpresso.tools.win32_11.6.1.202207200623/tools/bin/../lib/gcc/arm-none-eabi/10.3.1/../../../../arm-none-eabi/lib/thumb/v7e-m+dp/hard\libcr_c.a(fseek.o)
g_boot_data                                       ./xip/fsl_flexspi_nor_boot.o
g_pfnVectors                                      ./startup/startup_mimxrt1052.o
                                                  ./device/system_MIMXRT1052.o
g_rtcXtalFreq                                     ./drivers/fsl_clock.o
                                                  ./board/clock_config.o
g_xtalFreq                                        ./drivers/fsl_clock.o
                                                  ./board/clock_config.o
                                                  ./board/board.o
get_cache_status                                  ./source/flexspi_romapi.o
hyperflash_config                                 ./xip/evkbimxrt1050_flexspi_nor_config.o
image_vector_table                                ./xip/fsl_flexspi_nor_boot.o
main                                              ./source/flexspi_romapi.o
                                                  c:/nxp/mcuxpressoide_11.6.1_8255/ide/plugins/com.nxp.mcuxpresso.tools.win32_11.6.1.202207200623/tools/bin/../lib/gcc/arm-none-eabi/10.3.1/../../../../arm-none-eabi/lib/thumb/v7e-m+dp/hard\libcr_nohost_nf.a(_cr__main.o)
malloc                                            c:/nxp/mcuxpressoide_11.6.1_8255/ide/plugins/com.nxp.mcuxpresso.tools.win32_11.6.1.202207200623/tools/bin/../lib/gcc/arm-none-eabi/10.3.1/../../../../arm-none-eabi/lib/thumb/v7e-m+dp/hard\libcr_c.a(alloc.o)
                                                  ./drivers/fsl_common.o
memcmp                                            c:/nxp/mcuxpressoide_11.6.1_8255/ide/plugins/com.nxp.mcuxpresso.tools.win32_11.6.1.202207200623/tools/bin/../lib/gcc/arm-none-eabi/10.3.1/../../../../arm-none-eabi/lib/thumb/v7e-m+dp/hard\libcr_c.a(memcmp.o)
                                                  ./source/flexspi_romapi.o
memcpy                                            c:/nxp/mcuxpressoide_11.6.1_8255/ide/plugins/com.nxp.mcuxpresso.tools.win32_11.6.1.202207200623/tools/bin/../lib/gcc/arm-none-eabi/10.3.1/../../../../arm-none-eabi/lib/thumb/v7e-m+dp/hard\libcr_c.a(memcpy.o)
                                                  c:/nxp/mcuxpressoide_11.6.1_8255/ide/plugins/com.nxp.mcuxpresso.tools.win32_11.6.1.202207200623/tools/bin/../lib/gcc/arm-none-eabi/10.3.1/../../../../arm-none-eabi/lib/thumb/v7e-m+dp/hard\libcr_c.a(alloc.o)
                                                  ./source/flexspi_romapi.o
                                                  ./utilities/fsl_debug_console.o
memset                                            c:/nxp/mcuxpressoide_11.6.1_8255/ide/plugins/com.nxp.mcuxpresso.tools.win32_11.6.1.202207200623/tools/bin/../lib/gcc/arm-none-eabi/10.3.1/../../../../arm-none-eabi/lib/thumb/v7e-m+dp/hard\libcr_c.a(memset.o)
                                                  c:/nxp/mcuxpressoide_11.6.1_8255/ide/plugins/com.nxp.mcuxpresso.tools.win32_11.6.1.202207200623/tools/bin/../lib/gcc/arm-none-eabi/10.3.1/../../../../arm-none-eabi/lib/thumb/v7e-m+dp/hard\libcr_c.a(fclose.o)
                                                  c:/nxp/mcuxpressoide_11.6.1_8255/ide/plugins/com.nxp.mcuxpresso.tools.win32_11.6.1.202207200623/tools/bin/../lib/gcc/arm-none-eabi/10.3.1/../../../../arm-none-eabi/lib/thumb/v7e-m+dp/hard\libcr_c.a(alloc.o)
                                                  ./drivers/fsl_lpuart.o
                                                  ./source/flexspi_romapi.o
realloc                                           c:/nxp/mcuxpressoide_11.6.1_8255/ide/plugins/com.nxp.mcuxpresso.tools.win32_11.6.1.202207200623/tools/bin/../lib/gcc/arm-none-eabi/10.3.1/../../../../arm-none-eabi/lib/thumb/v7e-m+dp/hard\libcr_c.a(alloc.o)
remove                                            c:/nxp/mcuxpressoide_11.6.1_8255/ide/plugins/com.nxp.mcuxpresso.tools.win32_11.6.1.202207200623/tools/bin/../lib/gcc/arm-none-eabi/10.3.1/../../../../arm-none-eabi/lib/thumb/v7e-m+dp/hard\libcr_c.a(remove.o)
                                                  c:/nxp/mcuxpressoide_11.6.1_8255/ide/plugins/com.nxp.mcuxpresso.tools.win32_11.6.1.202207200623/tools/bin/../lib/gcc/arm-none-eabi/10.3.1/../../../../arm-none-eabi/lib/thumb/v7e-m+dp/hard\libcr_c.a(fclose.o)
rename                                            c:/nxp/mcuxpressoide_11.6.1_8255/ide/plugins/com.nxp.mcuxpresso.tools.win32_11.6.1.202207200623/tools/bin/../lib/gcc/arm-none-eabi/10.3.1/../../../../arm-none-eabi/lib/thumb/v7e-m+dp/hard\libcr_c.a(remove.o)
s_lpuartHandle                                    ./drivers/fsl_lpuart.o
s_lpuartIRQ                                       ./drivers/fsl_lpuart.o
s_lpuartIsr                                       ./drivers/fsl_lpuart.o
setvbuf                                           c:/nxp/mcuxpressoide_11.6.1_8255/ide/plugins/com.nxp.mcuxpresso.tools.win32_11.6.1.202207200623/tools/bin/../lib/gcc/arm-none-eabi/10.3.1/../../../../arm-none-eabi/lib/thumb/v7e-m+dp/hard\libcr_c.a(setvbuf.o)
                                                  c:/nxp/mcuxpressoide_11.6.1_8255/ide/plugins/com.nxp.mcuxpresso.tools.win32_11.6.1.202207200623/tools/bin/../lib/gcc/arm-none-eabi/10.3.1/../../../../arm-none-eabi/lib/thumb/v7e-m+dp/hard\libcr_c.a(initio.o)
strlen                                            c:/nxp/mcuxpressoide_11.6.1_8255/ide/plugins/com.nxp.mcuxpresso.tools.win32_11.6.1.202207200623/tools/bin/../lib/gcc/arm-none-eabi/10.3.1/../../../../arm-none-eabi/lib/thumb/v7e-m+dp/hard\libcr_c.a(strlen.o)
                                                  c:/nxp/mcuxpressoide_11.6.1_8255/ide/plugins/com.nxp.mcuxpresso.tools.win32_11.6.1.202207200623/tools/bin/../lib/gcc/arm-none-eabi/10.3.1/../../../../arm-none-eabi/lib/thumb/v7e-m+dp/hard\libcr_c.a(remove.o)
                                                  ./utilities/fsl_debug_console.o
sysPllConfig_BOARD_BootClockRUN                   ./board/clock_config.o
usb1PllConfig_BOARD_BootClockRUN                  ./board/clock_config.o
videoPllConfig_BOARD_BootClockRUN                 ./board/clock_config.o
